 sodium

 Timestamp is 5b22df09 (Thu Jun 14 23:32:57 2018)

 Preferred load address is 0000000180000000

 Start         Length     Name                   Class
 0001:00000000 00000070H .text$di                CODE
 0001:00000070 00052040H .text$mn                CODE
 0001:000520b0 00000020H .text$mn$00             CODE
 0001:000520d0 000003f0H .text$x                 CODE
 0001:000524c0 000000fcH .text$yd                CODE
 0002:00000000 000007f8H .idata$5                DATA
 0002:000007f8 00000010H .00cfg                  DATA
 0002:00000808 00000008H .CRT$XCA                DATA
 0002:00000810 00000018H .CRT$XCC                DATA
 0002:00000828 00000010H .CRT$XCL                DATA
 0002:00000838 00000008H .CRT$XCU                DATA
 0002:00000840 00000008H .CRT$XCZ                DATA
 0002:00000848 00000008H .CRT$XIA                DATA
 0002:00000850 00000030H .CRT$XIC                DATA
 0002:00000880 00000008H .CRT$XIZ                DATA
 0002:00000888 00000008H .CRT$XLA                DATA
 0002:00000890 00000008H .CRT$XLZ                DATA
 0002:00000898 00000008H .CRT$XPA                DATA
 0002:000008a0 00000010H .CRT$XPX                DATA
 0002:000008b0 00000008H .CRT$XPXA               DATA
 0002:000008b8 00000008H .CRT$XPZ                DATA
 0002:000008c0 00000008H .CRT$XTA                DATA
 0002:000008c8 00000008H .CRT$XTZ                DATA
 0002:000008d0 00017208H .rdata                  DATA
 0002:00017ad8 00000028H .rdata$T                DATA
 0002:00017b00 00000884H .rdata$r                DATA
 0002:00018384 0000049cH .rdata$zzzdbg           DATA
 0002:00018820 00000008H .rtc$IAA                DATA
 0002:00018828 00000008H .rtc$IZZ                DATA
 0002:00018830 00000008H .rtc$TAA                DATA
 0002:00018838 00000008H .rtc$TZZ                DATA
 0002:00018840 00003278H .xdata                  DATA
 0002:0001bab8 00000244H .xdata$x                DATA
 0002:0001bcfc 00000020H .didat$2                DATA
 0002:0001bd1c 00000024H .didat$3                DATA
 0002:0001bd40 00000158H .didat$4                DATA
 0002:0001be98 00000bc0H .didat$6                DATA
 0002:0001ca58 00000158H .didat$7                DATA
 0002:0001cbb0 00000050H .edata                  DATA
 0002:0001cc00 00000028H .idata$2                DATA
 0002:0001cc28 00000018H .idata$3                DATA
 0002:0001cc40 000007f8H .idata$4                DATA
 0002:0001d438 00001a64H .idata$6                DATA
 0003:00000000 00000aa0H .data                   DATA
 0003:00000aa0 000002f0H .data$r                 DATA
 0003:00000d90 00000160H .didat$5                DATA
 0003:00000ef0 0000185cH .bss                    DATA
 0004:00000000 00003528H .pdata                  DATA
 0005:00000000 000000b8H .gfids$x                DATA
 0005:000000b8 00000128H .gfids$y                DATA
 0006:00000000 00000004H .tls                    DATA
 0006:00000004 00000004H .tls$                   DATA
 0006:00000008 00000001H .tls$ZZZ                DATA
 0007:00000000 00000060H .rsrc$01                DATA
 0007:00000060 00000180H .rsrc$02                DATA

  Address         Publics by Value              Rva+Base               Lib:Object

 0000:00000000       __dynamic_value_reloc_table 0000000000000000     <absolute>
 0000:00000000       __guard_iat_count          0000000000000000     <absolute>
 0000:00000000       __guard_iat_table          0000000000000000     <absolute>
 0000:00000000       __guard_longjmp_table      0000000000000000     <absolute>
 0000:00000000       __guard_longjmp_count      0000000000000000     <absolute>
 0000:00000000       __guard_fids_count         0000000000000000     <absolute>
 0000:00000000       ___safe_se_handler_table   0000000000000000     <absolute>
 0000:00000000       ___safe_se_handler_count   0000000000000000     <absolute>
 0000:00000000       __guard_fids_table         0000000000000000     <absolute>
 0000:00000100       __guard_flags              0000000000000100     <absolute>
 0000:00000000       __ImageBase                0000000180000000     <linker-defined>
 0001:00000070       __local_stdio_printf_options 0000000180001070 f i crypto_aead.obj
 0001:00000080       sprintf_s                  0000000180001080 f i crypto_aead.obj
 0001:000000e0       ?what@exception@stdext@@UEBAPEBDXZ 00000001800010e0 f i crypto_aead.obj
 0001:00000100       ?_Lock@?$basic_streambuf@DU?$char_traits@D@std@@@std@@UEAAXXZ 0000000180001100 f i crypto_aead.obj
 0001:00000100       ?_Unlock@?$basic_streambuf@DU?$char_traits@D@std@@@std@@UEAAXXZ 0000000180001100 f i crypto_aead.obj
 0001:00000100       ?_Doraise@exception@stdext@@MEBAXXZ 0000000180001100 f i crypto_aead.obj
 0001:00000100       ?imbue@?$basic_streambuf@DU?$char_traits@D@std@@@std@@MEAAXAEBVlocale@2@@Z 0000000180001100 f i crypto_aead.obj
 0001:00000100       __except_validate_context_record 0000000180001100 f i libvcruntime:jbcxrval.obj
 0001:00000100       _guard_check_icall_nop     0000000180001100 f i LIBCMT:guard_support.obj
 0001:00000110       ??_Eruntime_error@std@@UEAAPEAXI@Z 0000000180001110 f i * CIL library *:* CIL module *
 0001:00000110       ??_Gexception@stdext@@UEAAPEAXI@Z 0000000180001110 f i crypto_aead.obj
 0001:00000110       ??_Eexception@stdext@@UEAAPEAXI@Z 0000000180001110 f i * CIL library *:* CIL module *
 0001:00000110       ??_Gruntime_error@std@@UEAAPEAXI@Z 0000000180001110 f i crypto_aead.obj
 0001:00000140       ?_Doraise@runtime_error@std@@MEBAXXZ 0000000180001140 f i crypto_aead.obj
 0001:00000140       ?_Doraise@failure@ios_base@std@@MEBAXXZ 0000000180001140 f i crypto_aead.obj
 0001:00000160       ??0_Locinfo@std@@QEAA@PEBD@Z 0000000180001160 f i crypto_aead.obj
 0001:00000220       ??1_Locinfo@std@@QEAA@XZ   0000000180001220 f i crypto_aead.obj
 0001:000002c0       ??_E_Facet_base@std@@UEAAPEAXI@Z 00000001800012c0 f i * CIL library *:* CIL module *
 0001:000002c0       ??_G_Facet_base@std@@UEAAPEAXI@Z 00000001800012c0 f i crypto_aead.obj
 0001:000002f0       ?_Incref@facet@locale@std@@UEAAXXZ 00000001800012f0 f i crypto_aead.obj
 0001:00000300       ?_Decref@facet@locale@std@@UEAAPEAV_Facet_base@3@XZ 0000000180001300 f i crypto_aead.obj
 0001:00000310       ?_Getcat@?$ctype@D@std@@SA_KPEAPEBVfacet@locale@2@PEBV42@@Z 0000000180001310 f i crypto_aead.obj
 0001:000003d0       ?do_tolower@?$ctype@D@std@@MEBADD@Z 00000001800013d0 f i crypto_aead.obj
 0001:000003e0       ?do_tolower@?$ctype@D@std@@MEBAPEBDPEADPEBD@Z 00000001800013e0 f i crypto_aead.obj
 0001:00000440       ?do_toupper@?$ctype@D@std@@MEBADD@Z 0000000180001440 f i crypto_aead.obj
 0001:00000450       ?do_toupper@?$ctype@D@std@@MEBAPEBDPEADPEBD@Z 0000000180001450 f i crypto_aead.obj
 0001:000004b0       ?do_widen@?$ctype@D@std@@MEBADD@Z 00000001800014b0 f i crypto_aead.obj
 0001:000004b0       ?do_narrow@?$ctype@D@std@@MEBADDD@Z 00000001800014b0 f i crypto_aead.obj
 0001:000004c0       ?do_widen@?$ctype@D@std@@MEBAPEBDPEBD0PEAD@Z 00000001800014c0 f i crypto_aead.obj
 0001:000004e0       ?do_narrow@?$ctype@D@std@@MEBAPEBDPEBD0DPEAD@Z 00000001800014e0 f i crypto_aead.obj
 0001:00000500       ??_G?$ctype@D@std@@MEAAPEAXI@Z 0000000180001500 f i crypto_aead.obj
 0001:00000500       ??_E?$ctype@D@std@@MEAAPEAXI@Z 0000000180001500 f i * CIL library *:* CIL module *
 0001:00000570       ??_E_Iostream_error_category@std@@UEAAPEAXI@Z 0000000180001570 f i * CIL library *:* CIL module *
 0001:00000570       ??_Gerror_category@std@@UEAAPEAXI@Z 0000000180001570 f i crypto_aead.obj
 0001:00000570       ??_G_Iostream_error_category@std@@UEAAPEAXI@Z 0000000180001570 f i crypto_aead.obj
 0001:00000570       ??_Eerror_category@std@@UEAAPEAXI@Z 0000000180001570 f i * CIL library *:* CIL module *
 0001:000005a0       ?default_error_condition@error_category@std@@UEBA?AVerror_condition@2@H@Z 00000001800015a0 f i crypto_aead.obj
 0001:000005b0       ?equivalent@error_category@std@@UEBA_NHAEBVerror_condition@2@@Z 00000001800015b0 f i crypto_aead.obj
 0001:000005d0       ?equivalent@error_category@std@@UEBA_NAEBVerror_code@2@H@Z 00000001800015d0 f i crypto_aead.obj
 0001:000005f0       ??0_System_error@std@@IEAA@Verror_code@1@AEBV?$basic_string@DU?$char_traits@D@std@@V?$allocator@D@2@@1@@Z 00000001800015f0 f i crypto_aead.obj
 0001:00000800       ??_Gfailure@ios_base@std@@UEAAPEAXI@Z 0000000180001800 f i crypto_aead.obj
 0001:00000800       ??_G_System_error@std@@UEAAPEAXI@Z 0000000180001800 f i crypto_aead.obj
 0001:00000800       ??_Efailure@ios_base@std@@UEAAPEAXI@Z 0000000180001800 f i * CIL library *:* CIL module *
 0001:00000800       ??_E_System_error@std@@UEAAPEAXI@Z 0000000180001800 f i * CIL library *:* CIL module *
 0001:00000830       ?name@_Iostream_error_category@std@@UEBAPEBDXZ 0000000180001830 f i crypto_aead.obj
 0001:00000840       ?message@_Iostream_error_category@std@@UEBA?AV?$basic_string@DU?$char_traits@D@std@@V?$allocator@D@2@@2@H@Z 0000000180001840 f i crypto_aead.obj
 0001:000008c0       ?clear@ios_base@std@@QEAAXH_N@Z 00000001800018c0 f i crypto_aead.obj
 0001:00000c30       ??_Gios_base@std@@UEAAPEAXI@Z 0000000180001c30 f i crypto_aead.obj
 0001:00000c30       ??_Eios_base@std@@UEAAPEAXI@Z 0000000180001c30 f i * CIL library *:* CIL module *
 0001:00000d40       ??$To@VInteger@v8@@@imp@Nan@@YA?AV?$Local@VInteger@v8@@@v8@@V23@@Z 0000000180001d40 f i crypto_aead.obj
 0001:00000dd0       ?New@?$Factory@VFunctionTemplate@v8@@@imp@Nan@@SA?AV?$Local@VFunctionTemplate@v8@@@v8@@P6AXAEBV?$FunctionCallbackInfo@VValue@v8@@@3@@ZV?$Local@VValue@v8@@@5@V?$Local@VSignature@v8@@@5@@Z 0000000180001dd0 f i crypto_aead.obj
 0001:00000fb0       ?ThrowError@Nan@@YAXPEBD@Z 0000000180001fb0 f i crypto_aead.obj
 0001:00001040       ?bind_crypto_aead_aes256gcm_is_available@@YAXAEBV?$FunctionCallbackInfo@VValue@v8@@@Nan@@@Z 0000000180002040 f   crypto_aead.obj
 0001:000010e0       ?bind_crypto_aead_aes256gcm_beforenm@@YAXAEBV?$FunctionCallbackInfo@VValue@v8@@@Nan@@@Z 00000001800020e0 f   crypto_aead.obj
 0001:000012d0       ?bind_crypto_aead_aes256gcm_encrypt_afternm@@YAXAEBV?$FunctionCallbackInfo@VValue@v8@@@Nan@@@Z 00000001800022d0 f   crypto_aead.obj
 0001:00001750       ?bind_crypto_aead_aes256gcm_decrypt_afternm@@YAXAEBV?$FunctionCallbackInfo@VValue@v8@@@Nan@@@Z 0000000180002750 f   crypto_aead.obj
 0001:00001c60       ?bind_crypto_aead_aes256gcm_encrypt_detached_afternm@@YAXAEBV?$FunctionCallbackInfo@VValue@v8@@@Nan@@@Z 0000000180002c60 f   crypto_aead.obj
 0001:000022c0       ?bind_crypto_aead_aes256gcm_decrypt_detached_afternm@@YAXAEBV?$FunctionCallbackInfo@VValue@v8@@@Nan@@@Z 00000001800032c0 f   crypto_aead.obj
 0001:000027d0       ?bind_crypto_aead_aes256gcm_encrypt@@YAXAEBV?$FunctionCallbackInfo@VValue@v8@@@Nan@@@Z 00000001800037d0 f   crypto_aead.obj
 0001:00002d00       ?bind_crypto_aead_aes256gcm_decrypt@@YAXAEBV?$FunctionCallbackInfo@VValue@v8@@@Nan@@@Z 0000000180003d00 f   crypto_aead.obj
 0001:00003260       ?bind_crypto_aead_aes256gcm_encrypt_detached@@YAXAEBV?$FunctionCallbackInfo@VValue@v8@@@Nan@@@Z 0000000180004260 f   crypto_aead.obj
 0001:00003910       ?bind_crypto_aead_aes256gcm_decrypt_detached@@YAXAEBV?$FunctionCallbackInfo@VValue@v8@@@Nan@@@Z 0000000180004910 f   crypto_aead.obj
 0001:00003eb0       ?bind_crypto_aead_chacha20poly1305_encrypt@@YAXAEBV?$FunctionCallbackInfo@VValue@v8@@@Nan@@@Z 0000000180004eb0 f   crypto_aead.obj
 0001:000043e0       ?bind_crypto_aead_chacha20poly1305_decrypt@@YAXAEBV?$FunctionCallbackInfo@VValue@v8@@@Nan@@@Z 00000001800053e0 f   crypto_aead.obj
 0001:00004940       ?bind_crypto_aead_chacha20poly1305_encrypt_detached@@YAXAEBV?$FunctionCallbackInfo@VValue@v8@@@Nan@@@Z 0000000180005940 f   crypto_aead.obj
 0001:00004ff0       ?bind_crypto_aead_chacha20poly1305_decrypt_detached@@YAXAEBV?$FunctionCallbackInfo@VValue@v8@@@Nan@@@Z 0000000180005ff0 f   crypto_aead.obj
 0001:00005590       ?bind_crypto_aead_chacha20poly1305_ietf_encrypt@@YAXAEBV?$FunctionCallbackInfo@VValue@v8@@@Nan@@@Z 0000000180006590 f   crypto_aead.obj
 0001:00005ac0       ?bind_crypto_aead_chacha20poly1305_ietf_decrypt@@YAXAEBV?$FunctionCallbackInfo@VValue@v8@@@Nan@@@Z 0000000180006ac0 f   crypto_aead.obj
 0001:00006020       ?bind_crypto_aead_chacha20poly1305_ietf_encrypt_detached@@YAXAEBV?$FunctionCallbackInfo@VValue@v8@@@Nan@@@Z 0000000180007020 f   crypto_aead.obj
 0001:000066d0       ?bind_crypto_aead_chacha20poly1305_ietf_decrypt_detached@@YAXAEBV?$FunctionCallbackInfo@VValue@v8@@@Nan@@@Z 00000001800076d0 f   crypto_aead.obj
 0001:00006c70       ?register_crypto_aead@@YAXV?$Local@VObject@v8@@@v8@@@Z 0000000180007c70 f   crypto_aead.obj
 0001:000081f0       ??1?$basic_string@DU?$char_traits@D@std@@V?$allocator@D@2@@std@@QEAA@XZ 00000001800091f0 f i crypto_aead.obj
 0001:00008280       ??1?$basic_ostringstream@DU?$char_traits@D@std@@V?$allocator@D@2@@std@@UEAA@XZ 0000000180009280 f i crypto_aead.obj
 0001:00008360       ??0?$basic_ostringstream@DU?$char_traits@D@std@@V?$allocator@D@2@@std@@QEAA@H@Z 0000000180009360 f i crypto_aead.obj
 0001:00008420       ?seekpos@?$basic_stringbuf@DU?$char_traits@D@std@@V?$allocator@D@2@@std@@MEAA?AV?$fpos@U_Mbstatet@@@2@V32@H@Z 0000000180009420 f i crypto_aead.obj
 0001:00008530       ?seekoff@?$basic_stringbuf@DU?$char_traits@D@std@@V?$allocator@D@2@@std@@MEAA?AV?$fpos@U_Mbstatet@@@2@_JHH@Z 0000000180009530 f i crypto_aead.obj
 0001:000086c0       ?underflow@?$basic_stringbuf@DU?$char_traits@D@std@@V?$allocator@D@2@@std@@MEAAHXZ 00000001800096c0 f i crypto_aead.obj
 0001:00008720       ?pbackfail@?$basic_stringbuf@DU?$char_traits@D@std@@V?$allocator@D@2@@std@@MEAAHH@Z 0000000180009720 f i crypto_aead.obj
 0001:00008770       ?overflow@?$basic_stringbuf@DU?$char_traits@D@std@@V?$allocator@D@2@@std@@MEAAHH@Z 0000000180009770 f i crypto_aead.obj
 0001:000089e0       ??6?$basic_ostream@DU?$char_traits@D@std@@@std@@QEAAAEAV01@I@Z 00000001800099e0 f i crypto_aead.obj
 0001:00008bb0       ?sync@?$basic_streambuf@DU?$char_traits@D@std@@@std@@MEAAHXZ 0000000180009bb0 f i crypto_aead.obj
 0001:00008bb0       ?showmanyc@?$basic_streambuf@DU?$char_traits@D@std@@@std@@MEAA_JXZ 0000000180009bb0 f i crypto_aead.obj
 0001:00008bc0       ?setbuf@?$basic_streambuf@DU?$char_traits@D@std@@@std@@MEAAPEAV12@PEAD_J@Z 0000000180009bc0 f i crypto_aead.obj
 0001:00008bd0       ?seekoff@?$basic_streambuf@DU?$char_traits@D@std@@@std@@MEAA?AV?$fpos@U_Mbstatet@@@2@_JHH@Z 0000000180009bd0 f i crypto_aead.obj
 0001:00008bd0       ?seekpos@?$basic_streambuf@DU?$char_traits@D@std@@@std@@MEAA?AV?$fpos@U_Mbstatet@@@2@V32@H@Z 0000000180009bd0 f i crypto_aead.obj
 0001:00008bf0       ?xsputn@?$basic_streambuf@DU?$char_traits@D@std@@@std@@MEAA_JPEBD_J@Z 0000000180009bf0 f i crypto_aead.obj
 0001:00008cb0       ?xsgetn@?$basic_streambuf@DU?$char_traits@D@std@@@std@@MEAA_JPEAD_J@Z 0000000180009cb0 f i crypto_aead.obj
 0001:00008db0       ?uflow@?$basic_streambuf@DU?$char_traits@D@std@@@std@@MEAAHXZ 0000000180009db0 f i crypto_aead.obj
 0001:00008df0       ?overflow@?$basic_streambuf@DU?$char_traits@D@std@@@std@@MEAAHH@Z 0000000180009df0 f i crypto_aead.obj
 0001:00008df0       ?underflow@?$basic_streambuf@DU?$char_traits@D@std@@@std@@MEAAHXZ 0000000180009df0 f i crypto_aead.obj
 0001:00008df0       ?pbackfail@?$basic_streambuf@DU?$char_traits@D@std@@@std@@MEAAHH@Z 0000000180009df0 f i crypto_aead.obj
 0001:00008e00       ??_E?$basic_ostringstream@DU?$char_traits@D@std@@V?$allocator@D@2@@std@@UEAAPEAXI@Z 0000000180009e00 f i * CIL library *:* CIL module *
 0001:00008e00       ??_G?$basic_ostringstream@DU?$char_traits@D@std@@V?$allocator@D@2@@std@@UEAAPEAXI@Z 0000000180009e00 f i crypto_aead.obj
 0001:00008e50       ??_G?$basic_stringbuf@DU?$char_traits@D@std@@V?$allocator@D@2@@std@@UEAAPEAXI@Z 0000000180009e50 f i crypto_aead.obj
 0001:00008e50       ??_E?$basic_stringbuf@DU?$char_traits@D@std@@V?$allocator@D@2@@std@@UEAAPEAXI@Z 0000000180009e50 f i * CIL library *:* CIL module *
 0001:00008ee0       ??_G?$basic_ostream@DU?$char_traits@D@std@@@std@@UEAAPEAXI@Z 0000000180009ee0 f i crypto_aead.obj
 0001:00008ee0       ??_E?$basic_ostream@DU?$char_traits@D@std@@@std@@UEAAPEAXI@Z 0000000180009ee0 f i * CIL library *:* CIL module *
 0001:00008f50       ??_E?$basic_streambuf@DU?$char_traits@D@std@@@std@@UEAAPEAXI@Z 0000000180009f50 f i * CIL library *:* CIL module *
 0001:00008f50       ??_G?$basic_streambuf@DU?$char_traits@D@std@@@std@@UEAAPEAXI@Z 0000000180009f50 f i crypto_aead.obj
 0001:00008fd0       ??_Glocale@std@@QEAAPEAXI@Z 0000000180009fd0 f i crypto_aead.obj
 0001:00009030       ??_G?$basic_ios@DU?$char_traits@D@std@@@std@@UEAAPEAXI@Z 000000018000a030 f i crypto_aead.obj
 0001:00009030       ??_E?$basic_ios@DU?$char_traits@D@std@@@std@@UEAAPEAXI@Z 000000018000a030 f i * CIL library *:* CIL module *
 0001:00009070       ??0sentry@?$basic_ostream@DU?$char_traits@D@std@@@std@@QEAA@AEAV12@@Z 000000018000a070 f i crypto_aead.obj
 0001:000090f0       ?do_put@?$num_put@DV?$ostreambuf_iterator@DU?$char_traits@D@std@@@std@@@std@@MEBA?AV?$ostreambuf_iterator@DU?$char_traits@D@std@@@2@V32@AEAVios_base@2@DPEBX@Z 000000018000a0f0 f i crypto_aead.obj
 0001:00009190       ?do_put@?$num_put@DV?$ostreambuf_iterator@DU?$char_traits@D@std@@@std@@@std@@MEBA?AV?$ostreambuf_iterator@DU?$char_traits@D@std@@@2@V32@AEAVios_base@2@DO@Z 000000018000a190 f i crypto_aead.obj
 0001:00009400       ?do_put@?$num_put@DV?$ostreambuf_iterator@DU?$char_traits@D@std@@@std@@@std@@MEBA?AV?$ostreambuf_iterator@DU?$char_traits@D@std@@@2@V32@AEAVios_base@2@DN@Z 000000018000a400 f i crypto_aead.obj
 0001:00009670       ?do_put@?$num_put@DV?$ostreambuf_iterator@DU?$char_traits@D@std@@@std@@@std@@MEBA?AV?$ostreambuf_iterator@DU?$char_traits@D@std@@@2@V32@AEAVios_base@2@D_K@Z 000000018000a670 f i crypto_aead.obj
 0001:00009770       ?do_put@?$num_put@DV?$ostreambuf_iterator@DU?$char_traits@D@std@@@std@@@std@@MEBA?AV?$ostreambuf_iterator@DU?$char_traits@D@std@@@2@V32@AEAVios_base@2@D_J@Z 000000018000a770 f i crypto_aead.obj
 0001:00009870       ?do_put@?$num_put@DV?$ostreambuf_iterator@DU?$char_traits@D@std@@@std@@@std@@MEBA?AV?$ostreambuf_iterator@DU?$char_traits@D@std@@@2@V32@AEAVios_base@2@DK@Z 000000018000a870 f i crypto_aead.obj
 0001:00009970       ?do_put@?$num_put@DV?$ostreambuf_iterator@DU?$char_traits@D@std@@@std@@@std@@MEBA?AV?$ostreambuf_iterator@DU?$char_traits@D@std@@@2@V32@AEAVios_base@2@DJ@Z 000000018000a970 f i crypto_aead.obj
 0001:00009a70       ?do_put@?$num_put@DV?$ostreambuf_iterator@DU?$char_traits@D@std@@@std@@@std@@MEBA?AV?$ostreambuf_iterator@DU?$char_traits@D@std@@@2@V32@AEAVios_base@2@D_N@Z 000000018000aa70 f i crypto_aead.obj
 0001:00009f30       ?assign@?$basic_string@DU?$char_traits@D@std@@V?$allocator@D@2@@std@@QEAAAEAV12@_KD@Z 000000018000af30 f i crypto_aead.obj
 0001:0000a030       ?assign@?$basic_string@DU?$char_traits@D@std@@V?$allocator@D@2@@std@@QEAAAEAV12@PEBD_K@Z 000000018000b030 f i crypto_aead.obj
 0001:0000a160       ?assign@?$basic_string@DU?$char_traits@D@std@@V?$allocator@D@2@@std@@QEAAAEAV12@AEBV12@_K1@Z 000000018000b160 f i crypto_aead.obj
 0001:0000a290       ?append@?$basic_string@DU?$char_traits@D@std@@V?$allocator@D@2@@std@@QEAAAEAV12@PEBD_K@Z 000000018000b290 f i crypto_aead.obj
 0001:0000a3e0       ?append@?$basic_string@DU?$char_traits@D@std@@V?$allocator@D@2@@std@@QEAAAEAV12@AEBV12@_K1@Z 000000018000b3e0 f i crypto_aead.obj
 0001:0000a510       ?_Assign_rv@?$basic_string@DU?$char_traits@D@std@@V?$allocator@D@2@@std@@QEAAX$$QEAV12@@Z 000000018000b510 f i crypto_aead.obj
 0001:0000a590       ?_Tidy@?$basic_stringbuf@DU?$char_traits@D@std@@V?$allocator@D@2@@std@@IEAAXXZ 000000018000b590 f i crypto_aead.obj
 0001:0000a650       ?str@?$basic_stringbuf@DU?$char_traits@D@std@@V?$allocator@D@2@@std@@QEBA?AV?$basic_string@DU?$char_traits@D@std@@V?$allocator@D@2@@2@XZ 000000018000b650 f i crypto_aead.obj
 0001:0000a7e0       ?allocate@?$allocator@D@std@@QEAAPEAD_K@Z 000000018000b7e0 f i crypto_aead.obj
 0001:0000a840       ?deallocate@?$allocator@D@std@@QEAAXPEAD_K@Z 000000018000b840 f i crypto_aead.obj
 0001:0000a8a0       ?_Pnavail@?$basic_streambuf@DU?$char_traits@D@std@@@std@@IEBA_JXZ 000000018000b8a0 f i crypto_aead.obj
 0001:0000a8c0       ?_Gnavail@?$basic_streambuf@DU?$char_traits@D@std@@@std@@IEBA_JXZ 000000018000b8c0 f i crypto_aead.obj
 0001:0000a8e0       ??_G?$num_put@DV?$ostreambuf_iterator@DU?$char_traits@D@std@@@std@@@std@@MEAAPEAXI@Z 000000018000b8e0 f i crypto_aead.obj
 0001:0000a8e0       ??_E?$num_put@DV?$ostreambuf_iterator@DU?$char_traits@D@std@@@std@@@std@@MEAAPEAXI@Z 000000018000b8e0 f i * CIL library *:* CIL module *
 0001:0000a910       ?do_truename@?$numpunct@D@std@@MEBA?AV?$basic_string@DU?$char_traits@D@std@@V?$allocator@D@2@@2@XZ 000000018000b910 f i crypto_aead.obj
 0001:0000a960       ?do_falsename@?$numpunct@D@std@@MEBA?AV?$basic_string@DU?$char_traits@D@std@@V?$allocator@D@2@@2@XZ 000000018000b960 f i crypto_aead.obj
 0001:0000a9b0       ?do_grouping@?$numpunct@D@std@@MEBA?AV?$basic_string@DU?$char_traits@D@std@@V?$allocator@D@2@@2@XZ 000000018000b9b0 f i crypto_aead.obj
 0001:0000aa00       ?do_thousands_sep@?$numpunct@D@std@@MEBADXZ 000000018000ba00 f i crypto_aead.obj
 0001:0000aa10       ?do_decimal_point@?$numpunct@D@std@@MEBADXZ 000000018000ba10 f i crypto_aead.obj
 0001:0000aa20       ?_Iput@?$num_put@DV?$ostreambuf_iterator@DU?$char_traits@D@std@@@std@@@std@@AEBA?AV?$ostreambuf_iterator@DU?$char_traits@D@std@@@2@V32@AEAVios_base@2@DPEAD_K@Z 000000018000ba20 f i crypto_aead.obj
 0001:0000b100       ?_Fput@?$num_put@DV?$ostreambuf_iterator@DU?$char_traits@D@std@@@std@@@std@@AEBA?AV?$ostreambuf_iterator@DU?$char_traits@D@std@@@2@V32@AEAVios_base@2@DPEBD_K@Z 000000018000c100 f i crypto_aead.obj
 0001:0000b960       ?erase@?$basic_string@DU?$char_traits@D@std@@V?$allocator@D@2@@std@@QEAAAEAV12@_K0@Z 000000018000c960 f i crypto_aead.obj
 0001:0000ba30       ?append@?$basic_string@DU?$char_traits@D@std@@V?$allocator@D@2@@std@@QEAAAEAV12@_KD@Z 000000018000ca30 f i crypto_aead.obj
 0001:0000bb40       ?assign@?$basic_string@DU?$char_traits@D@std@@V?$allocator@D@2@@std@@QEAAAEAV12@$$QEAV12@@Z 000000018000cb40 f i crypto_aead.obj
 0001:0000bbf0       ?flush@?$basic_ostream@DU?$char_traits@D@std@@@std@@QEAAAEAV12@XZ 000000018000cbf0 f i crypto_aead.obj
 0001:0000bd10       ??0?$basic_streambuf@DU?$char_traits@D@std@@@std@@IEAA@XZ 000000018000cd10 f i crypto_aead.obj
 0001:0000bdb0       ?init@?$basic_ios@DU?$char_traits@D@std@@@std@@IEAAXPEAV?$basic_streambuf@DU?$char_traits@D@std@@@2@_N@Z 000000018000cdb0 f i crypto_aead.obj
 0001:0000be50       ??_G?$numpunct@D@std@@MEAAPEAXI@Z 000000018000ce50 f i crypto_aead.obj
 0001:0000be50       ??_E?$numpunct@D@std@@MEAAPEAXI@Z 000000018000ce50 f i * CIL library *:* CIL module *
 0001:0000beb0       ?_Copy@?$basic_string@DU?$char_traits@D@std@@V?$allocator@D@2@@std@@QEAAX_K0@Z 000000018000ceb0 f i crypto_aead.obj
 0001:0000c030       ?insert@?$basic_string@DU?$char_traits@D@std@@V?$allocator@D@2@@std@@QEAAAEAV12@_K0D@Z 000000018000d030 f i crypto_aead.obj
 0001:0000c1a0       ?widen@?$basic_ios@DU?$char_traits@D@std@@@std@@QEBADD@Z 000000018000d1a0 f i crypto_aead.obj
 0001:0000c220       ??$use_facet@V?$ctype@D@std@@@std@@YAAEBV?$ctype@D@0@AEBVlocale@0@@Z 000000018000d220 f i crypto_aead.obj
 0001:0000c350       ??$_Immortalize@V_Iostream_error_category@std@@@std@@YAAEAV_Iostream_error_category@0@XZ 000000018000d350 f i crypto_aead.obj
 0001:0000c3d0       ??$?6U?$char_traits@D@std@@@std@@YAAEAV?$basic_ostream@DU?$char_traits@D@std@@@0@AEAV10@PEBD@Z 000000018000d3d0 f i crypto_aead.obj
 0001:0000c650       ??$SetMethod@VObject@v8@@VLocal@2@@Nan@@YAXV?$Local@VObject@v8@@@v8@@PEBDP6AXAEBV?$FunctionCallbackInfo@VValue@v8@@@0@@Z@Z 000000018000d650 f i crypto_aead.obj
 0001:0000c700       ??$use_facet@V?$num_put@DV?$ostreambuf_iterator@DU?$char_traits@D@std@@@std@@@std@@@std@@YAAEBV?$num_put@DV?$ostreambuf_iterator@DU?$char_traits@D@std@@@std@@@0@AEBVlocale@0@@Z 000000018000d700 f i crypto_aead.obj
 0001:0000c830       ??$use_facet@V?$numpunct@D@std@@@std@@YAAEBV?$numpunct@D@0@AEBVlocale@0@@Z 000000018000d830 f i crypto_aead.obj
 0001:0000c960       ?_Getcat@?$numpunct@D@std@@SA_KPEAPEBVfacet@locale@2@PEBV42@@Z 000000018000d960 f i crypto_aead.obj
 0001:0000ca20       ?_Getcat@?$num_put@DV?$ostreambuf_iterator@DU?$char_traits@D@std@@@std@@@std@@SA_KPEAPEBVfacet@locale@2@PEBV42@@Z 000000018000da20 f i crypto_aead.obj
 0001:0000cad0       ?_Init@?$numpunct@D@std@@IEAAXAEBV_Locinfo@2@_N@Z 000000018000dad0 f i crypto_aead.obj
 0001:0000cc50       ??$SetMethodAux@V?$Local@VObject@v8@@@v8@@@imp@Nan@@YAXV?$Local@VObject@v8@@@v8@@V?$Local@VString@v8@@@3@V?$Local@VFunctionTemplate@v8@@@3@ZZ 000000018000dc50 f i crypto_aead.obj
 0001:0000cce4       ??_E?$basic_ostream@DU?$char_traits@D@std@@@std@@$4PPPPPPPM@A@EAAPEAXI@Z 000000018000dce4 f i crypto_aead.obj
 0001:0000ccf0       ??_E?$basic_ostringstream@DU?$char_traits@D@std@@V?$allocator@D@2@@std@@$4PPPPPPPM@A@EAAPEAXI@Z 000000018000dcf0 f i crypto_aead.obj
 0001:0000cd00       ?register_crypto_sign@@YAXV?$Local@VObject@v8@@@v8@@@Z 000000018000dd00 f   crypto_sign.obj
 0001:0000d500       ?bind_crypto_sign_ed25519_pk_to_curve25519@@YAXAEBV?$FunctionCallbackInfo@VValue@v8@@@Nan@@@Z 000000018000e500 f   crypto_sign_ed25519.obj
 0001:0000d670       ?bind_crypto_sign_ed25519_sk_to_curve25519@@YAXAEBV?$FunctionCallbackInfo@VValue@v8@@@Nan@@@Z 000000018000e670 f   crypto_sign_ed25519.obj
 0001:0000d7e0       ?bind_crypto_sign_ed25519@@YAXAEBV?$FunctionCallbackInfo@VValue@v8@@@Nan@@@Z 000000018000e7e0 f   crypto_sign_ed25519.obj
 0001:0000dab0       ?bind_crypto_sign_ed25519_open@@YAXAEBV?$FunctionCallbackInfo@VValue@v8@@@Nan@@@Z 000000018000eab0 f   crypto_sign_ed25519.obj
 0001:0000de10       ?bind_crypto_sign_ed25519_detached@@YAXAEBV?$FunctionCallbackInfo@VValue@v8@@@Nan@@@Z 000000018000ee10 f   crypto_sign_ed25519.obj
 0001:0000e0c0       ?bind_crypto_sign_ed25519_verify_detached@@YAXAEBV?$FunctionCallbackInfo@VValue@v8@@@Nan@@@Z 000000018000f0c0 f   crypto_sign_ed25519.obj
 0001:0000e380       ?bind_crypto_sign_ed25519_keypair@@YAXAEBV?$FunctionCallbackInfo@VValue@v8@@@Nan@@@Z 000000018000f380 f   crypto_sign_ed25519.obj
 0001:0000e630       ?bind_crypto_sign_ed25519_seed_keypair@@YAXAEBV?$FunctionCallbackInfo@VValue@v8@@@Nan@@@Z 000000018000f630 f   crypto_sign_ed25519.obj
 0001:0000e9f0       ?bind_crypto_sign_ed25519_sk_to_seed@@YAXAEBV?$FunctionCallbackInfo@VValue@v8@@@Nan@@@Z 000000018000f9f0 f   crypto_sign_ed25519.obj
 0001:0000ebc0       ?bind_crypto_sign_ed25519_sk_to_pk@@YAXAEBV?$FunctionCallbackInfo@VValue@v8@@@Nan@@@Z 000000018000fbc0 f   crypto_sign_ed25519.obj
 0001:0000ed90       ?register_crypto_sign_ed25519@@YAXV?$Local@VObject@v8@@@v8@@@Z 000000018000fd90 f   crypto_sign_ed25519.obj
 0001:0000f710       ?bind_crypto_box@@YAXAEBV?$FunctionCallbackInfo@VValue@v8@@@Nan@@@Z 0000000180010710 f   crypto_box.obj
 0001:0000fb70       ?bind_crypto_box_easy@@YAXAEBV?$FunctionCallbackInfo@VValue@v8@@@Nan@@@Z 0000000180010b70 f   crypto_box.obj
 0001:0000ff40       ?bind_crypto_box_keypair@@YAXAEBV?$FunctionCallbackInfo@VValue@v8@@@Nan@@@Z 0000000180010f40 f   crypto_box.obj
 0001:000101c0       ?bind_crypto_box_open@@YAXAEBV?$FunctionCallbackInfo@VValue@v8@@@Nan@@@Z 00000001800111c0 f   crypto_box.obj
 0001:00010720       ?bind_crypto_box_open_easy@@YAXAEBV?$FunctionCallbackInfo@VValue@v8@@@Nan@@@Z 0000000180011720 f   crypto_box.obj
 0001:00010ba0       ?bind_crypto_box_beforenm@@YAXAEBV?$FunctionCallbackInfo@VValue@v8@@@Nan@@@Z 0000000180011ba0 f   crypto_box.obj
 0001:00010dd0       ?bind_crypto_box_afternm@@YAXAEBV?$FunctionCallbackInfo@VValue@v8@@@Nan@@@Z 0000000180011dd0 f   crypto_box.obj
 0001:00011160       ?bind_crypto_box_open_afternm@@YAXAEBV?$FunctionCallbackInfo@VValue@v8@@@Nan@@@Z 0000000180012160 f   crypto_box.obj
 0001:00011600       ?bind_crypto_box_detached@@YAXAEBV?$FunctionCallbackInfo@VValue@v8@@@Nan@@@Z 0000000180012600 f   crypto_box.obj
 0001:00011b30       ?bind_crypto_box_open_detached@@YAXAEBV?$FunctionCallbackInfo@VValue@v8@@@Nan@@@Z 0000000180012b30 f   crypto_box.obj
 0001:00012060       ?bind_crypto_box_seal@@YAXAEBV?$FunctionCallbackInfo@VValue@v8@@@Nan@@@Z 0000000180013060 f   crypto_box.obj
 0001:00012300       ?bind_crypto_box_seal_open@@YAXAEBV?$FunctionCallbackInfo@VValue@v8@@@Nan@@@Z 0000000180013300 f   crypto_box.obj
 0001:000126a0       ?bind_crypto_box_seed_keypair@@YAXAEBV?$FunctionCallbackInfo@VValue@v8@@@Nan@@@Z 00000001800136a0 f   crypto_box.obj
 0001:00012a60       ?bind_crypto_box_detached_afternm@@YAXAEBV?$FunctionCallbackInfo@VValue@v8@@@Nan@@@Z 0000000180013a60 f   crypto_box.obj
 0001:00012f00       ?bind_crypto_box_open_detached_afternm@@YAXAEBV?$FunctionCallbackInfo@VValue@v8@@@Nan@@@Z 0000000180013f00 f   crypto_box.obj
 0001:000133a0       ?bind_crypto_box_easy_afternm@@YAXAEBV?$FunctionCallbackInfo@VValue@v8@@@Nan@@@Z 00000001800143a0 f   crypto_box.obj
 0001:00013740       ?bind_crypto_box_open_easy_afternm@@YAXAEBV?$FunctionCallbackInfo@VValue@v8@@@Nan@@@Z 0000000180014740 f   crypto_box.obj
 0001:00013b80       ?register_crypto_box@@YAXV?$Local@VObject@v8@@@v8@@@Z 0000000180014b80 f   crypto_box.obj
 0001:00014e50       ?bind_crypto_box_curve25519xsalsa20poly1305@@YAXAEBV?$FunctionCallbackInfo@VValue@v8@@@Nan@@@Z 0000000180015e50 f   crypto_box_curve25519xsalsa20poly1305.obj
 0001:000152b0       ?bind_crypto_box_curve25519xsalsa20poly1305_keypair@@YAXAEBV?$FunctionCallbackInfo@VValue@v8@@@Nan@@@Z 00000001800162b0 f   crypto_box_curve25519xsalsa20poly1305.obj
 0001:00015530       ?bind_crypto_box_curve25519xsalsa20poly1305_open@@YAXAEBV?$FunctionCallbackInfo@VValue@v8@@@Nan@@@Z 0000000180016530 f   crypto_box_curve25519xsalsa20poly1305.obj
 0001:00015a90       ?bind_crypto_box_curve25519xsalsa20poly1305_beforenm@@YAXAEBV?$FunctionCallbackInfo@VValue@v8@@@Nan@@@Z 0000000180016a90 f   crypto_box_curve25519xsalsa20poly1305.obj
 0001:00015cc0       ?bind_crypto_box_curve25519xsalsa20poly1305_afternm@@YAXAEBV?$FunctionCallbackInfo@VValue@v8@@@Nan@@@Z 0000000180016cc0 f   crypto_box_curve25519xsalsa20poly1305.obj
 0001:00016050       ?bind_crypto_box_curve25519xsalsa20poly1305_open_afternm@@YAXAEBV?$FunctionCallbackInfo@VValue@v8@@@Nan@@@Z 0000000180017050 f   crypto_box_curve25519xsalsa20poly1305.obj
 0001:000164f0       ?register_crypto_box_curve25519xsalsa20poly1305@@YAXV?$Local@VObject@v8@@@v8@@@Z 00000001800174f0 f   crypto_box_curve25519xsalsa20poly1305.obj
 0001:00017000       ?bind_sodium_runtime_has_aesni@@YAXAEBV?$FunctionCallbackInfo@VValue@v8@@@Nan@@@Z 0000000180018000 f   sodium_runtime.obj
 0001:000170e0       ?bind_sodium_runtime_has_neon@@YAXAEBV?$FunctionCallbackInfo@VValue@v8@@@Nan@@@Z 00000001800180e0 f   sodium_runtime.obj
 0001:000171c0       ?bind_sodium_runtime_has_sse2@@YAXAEBV?$FunctionCallbackInfo@VValue@v8@@@Nan@@@Z 00000001800181c0 f   sodium_runtime.obj
 0001:000172a0       ?bind_sodium_runtime_has_sse3@@YAXAEBV?$FunctionCallbackInfo@VValue@v8@@@Nan@@@Z 00000001800182a0 f   sodium_runtime.obj
 0001:00017380       ?bind_sodium_runtime_has_ssse3@@YAXAEBV?$FunctionCallbackInfo@VValue@v8@@@Nan@@@Z 0000000180018380 f   sodium_runtime.obj
 0001:00017460       ?bind_sodium_runtime_has_sse41@@YAXAEBV?$FunctionCallbackInfo@VValue@v8@@@Nan@@@Z 0000000180018460 f   sodium_runtime.obj
 0001:00017540       ?bind_sodium_runtime_has_avx@@YAXAEBV?$FunctionCallbackInfo@VValue@v8@@@Nan@@@Z 0000000180018540 f   sodium_runtime.obj
 0001:00017620       ?bind_sodium_runtime_has_avx2@@YAXAEBV?$FunctionCallbackInfo@VValue@v8@@@Nan@@@Z 0000000180018620 f   sodium_runtime.obj
 0001:00017700       ?bind_sodium_runtime_has_pclmul@@YAXAEBV?$FunctionCallbackInfo@VValue@v8@@@Nan@@@Z 0000000180018700 f   sodium_runtime.obj
 0001:000177e0       ?register_runtime@@YAXV?$Local@VObject@v8@@@v8@@@Z 00000001800187e0 f   sodium_runtime.obj
 0001:00017ce0       ?register_crypto_auth@@YAXV?$Local@VObject@v8@@@v8@@@Z 0000000180018ce0 f   crypto_auth.obj
 0001:000180c0       ?bind_crypto_auth_hmacsha256@@YAXAEBV?$FunctionCallbackInfo@VValue@v8@@@Nan@@@Z 00000001800190c0 f   crypto_auth_algos.obj
 0001:00018320       ?bind_crypto_auth_hmacsha256_verify@@YAXAEBV?$FunctionCallbackInfo@VValue@v8@@@Nan@@@Z 0000000180019320 f   crypto_auth_algos.obj
 0001:00018680       ?bind_crypto_auth_hmacsha256_init@@YAXAEBV?$FunctionCallbackInfo@VValue@v8@@@Nan@@@Z 0000000180019680 f   crypto_auth_algos.obj
 0001:00018850       ?bind_crypto_auth_hmacsha256_update@@YAXAEBV?$FunctionCallbackInfo@VValue@v8@@@Nan@@@Z 0000000180019850 f   crypto_auth_algos.obj
 0001:00018af0       ?bind_crypto_auth_hmacsha256_final@@YAXAEBV?$FunctionCallbackInfo@VValue@v8@@@Nan@@@Z 0000000180019af0 f   crypto_auth_algos.obj
 0001:00018c90       ?bind_crypto_auth_hmacsha512@@YAXAEBV?$FunctionCallbackInfo@VValue@v8@@@Nan@@@Z 0000000180019c90 f   crypto_auth_algos.obj
 0001:00018ef0       ?bind_crypto_auth_hmacsha512_verify@@YAXAEBV?$FunctionCallbackInfo@VValue@v8@@@Nan@@@Z 0000000180019ef0 f   crypto_auth_algos.obj
 0001:00019250       ?bind_crypto_auth_hmacsha512_init@@YAXAEBV?$FunctionCallbackInfo@VValue@v8@@@Nan@@@Z 000000018001a250 f   crypto_auth_algos.obj
 0001:00019420       ?bind_crypto_auth_hmacsha512_update@@YAXAEBV?$FunctionCallbackInfo@VValue@v8@@@Nan@@@Z 000000018001a420 f   crypto_auth_algos.obj
 0001:000196c0       ?bind_crypto_auth_hmacsha512_final@@YAXAEBV?$FunctionCallbackInfo@VValue@v8@@@Nan@@@Z 000000018001a6c0 f   crypto_auth_algos.obj
 0001:00019860       ?bind_crypto_auth_hmacsha512256@@YAXAEBV?$FunctionCallbackInfo@VValue@v8@@@Nan@@@Z 000000018001a860 f   crypto_auth_algos.obj
 0001:00019ac0       ?bind_crypto_auth_hmacsha512256_verify@@YAXAEBV?$FunctionCallbackInfo@VValue@v8@@@Nan@@@Z 000000018001aac0 f   crypto_auth_algos.obj
 0001:00019e20       ?bind_crypto_auth_hmacsha512256_init@@YAXAEBV?$FunctionCallbackInfo@VValue@v8@@@Nan@@@Z 000000018001ae20 f   crypto_auth_algos.obj
 0001:00019ff0       ?bind_crypto_auth_hmacsha512256_update@@YAXAEBV?$FunctionCallbackInfo@VValue@v8@@@Nan@@@Z 000000018001aff0 f   crypto_auth_algos.obj
 0001:0001a290       ?bind_crypto_auth_hmacsha512256_final@@YAXAEBV?$FunctionCallbackInfo@VValue@v8@@@Nan@@@Z 000000018001b290 f   crypto_auth_algos.obj
 0001:0001a430       ?register_crypto_auth_algos@@YAXV?$Local@VObject@v8@@@v8@@@Z 000000018001b430 f   crypto_auth_algos.obj
 0001:0001b260       ?bind_crypto_core_hchacha20@@YAXAEBV?$FunctionCallbackInfo@VValue@v8@@@Nan@@@Z 000000018001c260 f   crypto_core.obj
 0001:0001b640       ?bind_crypto_core_hsalsa20@@YAXAEBV?$FunctionCallbackInfo@VValue@v8@@@Nan@@@Z 000000018001c640 f   crypto_core.obj
 0001:0001ba20       ?bind_crypto_core_salsa20@@YAXAEBV?$FunctionCallbackInfo@VValue@v8@@@Nan@@@Z 000000018001ca20 f   crypto_core.obj
 0001:0001be00       ?bind_crypto_core_salsa2012@@YAXAEBV?$FunctionCallbackInfo@VValue@v8@@@Nan@@@Z 000000018001ce00 f   crypto_core.obj
 0001:0001c1e0       ?bind_crypto_core_salsa208@@YAXAEBV?$FunctionCallbackInfo@VValue@v8@@@Nan@@@Z 000000018001d1e0 f   crypto_core.obj
 0001:0001c5c0       ?register_crypto_core@@YAXV?$Local@VObject@v8@@@v8@@@Z 000000018001d5c0 f   crypto_core.obj
 0001:0001d9c0       ?bind_crypto_scalarmult_curve25519_base@@YAXAEBV?$FunctionCallbackInfo@VValue@v8@@@Nan@@@Z 000000018001e9c0 f   crypto_scalarmult_curve25519.obj
 0001:0001db20       ?bind_crypto_scalarmult_curve25519@@YAXAEBV?$FunctionCallbackInfo@VValue@v8@@@Nan@@@Z 000000018001eb20 f   crypto_scalarmult_curve25519.obj
 0001:0001dd40       ?register_crypto_scalarmult_curve25519@@YAXV?$Local@VObject@v8@@@v8@@@Z 000000018001ed40 f   crypto_scalarmult_curve25519.obj
 0001:0001e060       ?register_crypto_scalarmult@@YAXV?$Local@VObject@v8@@@v8@@@Z 000000018001f060 f   crypto_scalarmult.obj
 0001:0001e440       ?bind_crypto_secretbox_xsalsa20poly1305@@YAXAEBV?$FunctionCallbackInfo@VValue@v8@@@Nan@@@Z 000000018001f440 f   crypto_secretbox_xsalsa20poly1305.obj
 0001:0001e870       ?bind_crypto_secretbox_xsalsa20poly1305_open@@YAXAEBV?$FunctionCallbackInfo@VValue@v8@@@Nan@@@Z 000000018001f870 f   crypto_secretbox_xsalsa20poly1305.obj
 0001:0001ed20       ?register_crypto_secretbox_xsalsa20poly1305@@YAXV?$Local@VObject@v8@@@v8@@@Z 000000018001fd20 f   crypto_secretbox_xsalsa20poly1305.obj
 0001:0001f320       ?bind_crypto_secretbox@@YAXAEBV?$FunctionCallbackInfo@VValue@v8@@@Nan@@@Z 0000000180020320 f   crypto_secretbox.obj
 0001:0001f750       ?bind_crypto_secretbox_open@@YAXAEBV?$FunctionCallbackInfo@VValue@v8@@@Nan@@@Z 0000000180020750 f   crypto_secretbox.obj
 0001:0001fc00       ?bind_crypto_secretbox_easy@@YAXAEBV?$FunctionCallbackInfo@VValue@v8@@@Nan@@@Z 0000000180020c00 f   crypto_secretbox.obj
 0001:0001ffa0       ?bind_crypto_secretbox_open_easy@@YAXAEBV?$FunctionCallbackInfo@VValue@v8@@@Nan@@@Z 0000000180020fa0 f   crypto_secretbox.obj
 0001:00020340       ?bind_crypto_secretbox_detached@@YAXAEBV?$FunctionCallbackInfo@VValue@v8@@@Nan@@@Z 0000000180021340 f   crypto_secretbox.obj
 0001:000207e0       ?bind_crypto_secretbox_open_detached@@YAXAEBV?$FunctionCallbackInfo@VValue@v8@@@Nan@@@Z 00000001800217e0 f   crypto_secretbox.obj
 0001:00020c80       ?register_crypto_secretbox@@YAXV?$Local@VObject@v8@@@v8@@@Z 0000000180021c80 f   crypto_secretbox.obj
 0001:00021570       ?RegisterModule@@YAXV?$Local@VObject@v8@@@v8@@@Z 0000000180022570 f   sodium.obj
 0001:000216b0       ?register_crypto_stream@@YAXV?$Local@VObject@v8@@@v8@@@Z 00000001800226b0 f   crypto_stream.obj
 0001:00021a90       ?bind_crypto_stream_salsa20@@YAXAEBV?$FunctionCallbackInfo@VValue@v8@@@Nan@@@Z 0000000180022a90 f   crypto_streams.obj
 0001:00021d50       ?bind_crypto_stream_salsa20_xor@@YAXAEBV?$FunctionCallbackInfo@VValue@v8@@@Nan@@@Z 0000000180022d50 f   crypto_streams.obj
 0001:000220f0       ?bind_crypto_stream_salsa20_xor_ic@@YAXAEBV?$FunctionCallbackInfo@VValue@v8@@@Nan@@@Z 00000001800230f0 f   crypto_streams.obj
 0001:00022520       ?bind_crypto_stream_xsalsa20@@YAXAEBV?$FunctionCallbackInfo@VValue@v8@@@Nan@@@Z 0000000180023520 f   crypto_streams.obj
 0001:000227e0       ?bind_crypto_stream_xsalsa20_xor@@YAXAEBV?$FunctionCallbackInfo@VValue@v8@@@Nan@@@Z 00000001800237e0 f   crypto_streams.obj
 0001:00022b80       ?bind_crypto_stream_xsalsa20_xor_ic@@YAXAEBV?$FunctionCallbackInfo@VValue@v8@@@Nan@@@Z 0000000180023b80 f   crypto_streams.obj
 0001:00022fb0       ?bind_crypto_stream_salsa208@@YAXAEBV?$FunctionCallbackInfo@VValue@v8@@@Nan@@@Z 0000000180023fb0 f   crypto_streams.obj
 0001:00023270       ?bind_crypto_stream_salsa208_xor@@YAXAEBV?$FunctionCallbackInfo@VValue@v8@@@Nan@@@Z 0000000180024270 f   crypto_streams.obj
 0001:00023610       ?bind_crypto_stream_salsa2012@@YAXAEBV?$FunctionCallbackInfo@VValue@v8@@@Nan@@@Z 0000000180024610 f   crypto_streams.obj
 0001:000238d0       ?bind_crypto_stream_salsa2012_xor@@YAXAEBV?$FunctionCallbackInfo@VValue@v8@@@Nan@@@Z 00000001800248d0 f   crypto_streams.obj
 0001:00023c70       ?bind_crypto_stream_chacha20@@YAXAEBV?$FunctionCallbackInfo@VValue@v8@@@Nan@@@Z 0000000180024c70 f   crypto_streams.obj
 0001:00023f30       ?bind_crypto_stream_chacha20_xor@@YAXAEBV?$FunctionCallbackInfo@VValue@v8@@@Nan@@@Z 0000000180024f30 f   crypto_streams.obj
 0001:000242d0       ?bind_crypto_stream_chacha20_xor_ic@@YAXAEBV?$FunctionCallbackInfo@VValue@v8@@@Nan@@@Z 00000001800252d0 f   crypto_streams.obj
 0001:00024700       ?bind_crypto_stream_chacha20_ietf@@YAXAEBV?$FunctionCallbackInfo@VValue@v8@@@Nan@@@Z 0000000180025700 f   crypto_streams.obj
 0001:000249c0       ?bind_crypto_stream_chacha20_ietf_xor@@YAXAEBV?$FunctionCallbackInfo@VValue@v8@@@Nan@@@Z 00000001800259c0 f   crypto_streams.obj
 0001:00024d60       ?bind_crypto_stream_chacha20_ietf_xor_ic@@YAXAEBV?$FunctionCallbackInfo@VValue@v8@@@Nan@@@Z 0000000180025d60 f   crypto_streams.obj
 0001:00025190       ?register_crypto_streams@@YAXV?$Local@VObject@v8@@@v8@@@Z 0000000180026190 f   crypto_streams.obj
 0001:00026600       ?bind_sodium_version_string@@YAXAEBV?$FunctionCallbackInfo@VValue@v8@@@Nan@@@Z 0000000180027600 f   helpers.obj
 0001:000266a0       ?bind_sodium_library_version_minor@@YAXAEBV?$FunctionCallbackInfo@VValue@v8@@@Nan@@@Z 00000001800276a0 f   helpers.obj
 0001:00026780       ?bind_sodium_library_version_major@@YAXAEBV?$FunctionCallbackInfo@VValue@v8@@@Nan@@@Z 0000000180027780 f   helpers.obj
 0001:00026860       ?bind_memzero@@YAXAEBV?$FunctionCallbackInfo@VValue@v8@@@Nan@@@Z 0000000180027860 f   helpers.obj
 0001:000269a0       ?bind_memcmp@@YAXAEBV?$FunctionCallbackInfo@VValue@v8@@@Nan@@@Z 00000001800279a0 f   helpers.obj
 0001:00026c40       ?bind_bin2hex@@YAXAEBV?$FunctionCallbackInfo@VValue@v8@@@Nan@@@Z 0000000180027c40 f   helpers.obj
 0001:00026c40       ?bind_hex2bin@@YAXAEBV?$FunctionCallbackInfo@VValue@v8@@@Nan@@@Z 0000000180027c40 f   helpers.obj
 0001:00026c80       ?bind_crypto_verify_16@@YAXAEBV?$FunctionCallbackInfo@VValue@v8@@@Nan@@@Z 0000000180027c80 f   helpers.obj
 0001:00026ee0       ?bind_crypto_verify_32@@YAXAEBV?$FunctionCallbackInfo@VValue@v8@@@Nan@@@Z 0000000180027ee0 f   helpers.obj
 0001:00027140       ?bind_crypto_verify_64@@YAXAEBV?$FunctionCallbackInfo@VValue@v8@@@Nan@@@Z 0000000180028140 f   helpers.obj
 0001:000273a0       ?bind_increment@@YAXAEBV?$FunctionCallbackInfo@VValue@v8@@@Nan@@@Z 00000001800283a0 f   helpers.obj
 0001:000274e0       ?bind_compare@@YAXAEBV?$FunctionCallbackInfo@VValue@v8@@@Nan@@@Z 00000001800284e0 f   helpers.obj
 0001:00027740       ?bind_add@@YAXAEBV?$FunctionCallbackInfo@VValue@v8@@@Nan@@@Z 0000000180028740 f   helpers.obj
 0001:00027920       ?bind_is_zero@@YAXAEBV?$FunctionCallbackInfo@VValue@v8@@@Nan@@@Z 0000000180028920 f   helpers.obj
 0001:00027ae0       ?register_helpers@@YAXV?$Local@VObject@v8@@@v8@@@Z 0000000180028ae0 f   helpers.obj
 0001:000285a0       ?bind_randombytes_buf@@YAXAEBV?$FunctionCallbackInfo@VValue@v8@@@Nan@@@Z 00000001800295a0 f   randombytes.obj
 0001:000286e0       ?bind_randombytes_stir@@YAXAEBV?$FunctionCallbackInfo@VValue@v8@@@Nan@@@Z 00000001800296e0 f   randombytes.obj
 0001:00028750       ?bind_randombytes_close@@YAXAEBV?$FunctionCallbackInfo@VValue@v8@@@Nan@@@Z 0000000180029750 f   randombytes.obj
 0001:00028830       ?bind_randombytes_random@@YAXAEBV?$FunctionCallbackInfo@VValue@v8@@@Nan@@@Z 0000000180029830 f   randombytes.obj
 0001:00028910       ?bind_randombytes_uniform@@YAXAEBV?$FunctionCallbackInfo@VValue@v8@@@Nan@@@Z 0000000180029910 f   randombytes.obj
 0001:00028a70       ?bind_randombytes_buf_deterministic@@YAXAEBV?$FunctionCallbackInfo@VValue@v8@@@Nan@@@Z 0000000180029a70 f   randombytes.obj
 0001:00028c50       ?register_randombytes@@YAXV?$Local@VObject@v8@@@v8@@@Z 0000000180029c50 f   randombytes.obj
 0001:00029140       ?bind_crypto_pwhash_argon2i@@YAXAEBV?$FunctionCallbackInfo@VValue@v8@@@Nan@@@Z 000000018002a140 f   crypto_pwhash.obj
 0001:00029500       ?bind_crypto_pwhash_argon2i_str@@YAXAEBV?$FunctionCallbackInfo@VValue@v8@@@Nan@@@Z 000000018002a500 f   crypto_pwhash.obj
 0001:000297b0       ?bind_crypto_pwhash_argon2i_str_verify@@YAXAEBV?$FunctionCallbackInfo@VValue@v8@@@Nan@@@Z 000000018002a7b0 f   crypto_pwhash.obj
 0001:000299e0       ?bind_crypto_pwhash@@YAXAEBV?$FunctionCallbackInfo@VValue@v8@@@Nan@@@Z 000000018002a9e0 f   crypto_pwhash.obj
 0001:00029da0       ?bind_crypto_pwhash_str@@YAXAEBV?$FunctionCallbackInfo@VValue@v8@@@Nan@@@Z 000000018002ada0 f   crypto_pwhash.obj
 0001:0002a050       ?bind_crypto_pwhash_str_verify@@YAXAEBV?$FunctionCallbackInfo@VValue@v8@@@Nan@@@Z 000000018002b050 f   crypto_pwhash.obj
 0001:0002a2a0       ?bind_crypto_pwhash_scryptsalsa208sha256@@YAXAEBV?$FunctionCallbackInfo@VValue@v8@@@Nan@@@Z 000000018002b2a0 f   crypto_pwhash.obj
 0001:0002a600       ?bind_crypto_pwhash_scryptsalsa208sha256_ll@@YAXAEBV?$FunctionCallbackInfo@VValue@v8@@@Nan@@@Z 000000018002b600 f   crypto_pwhash.obj
 0001:0002a9d0       ?bind_crypto_pwhash_scryptsalsa208sha256_str@@YAXAEBV?$FunctionCallbackInfo@VValue@v8@@@Nan@@@Z 000000018002b9d0 f   crypto_pwhash.obj
 0001:0002ac80       ?bind_crypto_pwhash_scryptsalsa208sha256_str_verify@@YAXAEBV?$FunctionCallbackInfo@VValue@v8@@@Nan@@@Z 000000018002bc80 f   crypto_pwhash.obj
 0001:0002aed0       ?register_crypto_pwhash@@YAXV?$Local@VObject@v8@@@v8@@@Z 000000018002bed0 f   crypto_pwhash.obj
 0001:0002c7f0       ?bind_crypto_hash@@YAXAEBV?$FunctionCallbackInfo@VValue@v8@@@Nan@@@Z 000000018002d7f0 f   crypto_hash.obj
 0001:0002c9a0       ?register_crypto_hash@@YAXV?$Local@VObject@v8@@@v8@@@Z 000000018002d9a0 f   crypto_hash.obj
 0001:0002cc00       ?bind_crypto_hash_sha256@@YAXAEBV?$FunctionCallbackInfo@VValue@v8@@@Nan@@@Z 000000018002dc00 f   crypto_hash_sha256.obj
 0001:0002cdb0       ?bind_crypto_hash_sha256_init@@YAXAEBV?$FunctionCallbackInfo@VValue@v8@@@Nan@@@Z 000000018002ddb0 f   crypto_hash_sha256.obj
 0001:0002cea0       ?bind_crypto_hash_sha256_update@@YAXAEBV?$FunctionCallbackInfo@VValue@v8@@@Nan@@@Z 000000018002dea0 f   crypto_hash_sha256.obj
 0001:0002d150       ?bind_crypto_hash_sha256_final@@YAXAEBV?$FunctionCallbackInfo@VValue@v8@@@Nan@@@Z 000000018002e150 f   crypto_hash_sha256.obj
 0001:0002d2f0       ?register_crypto_hash_sha256@@YAXV?$Local@VObject@v8@@@v8@@@Z 000000018002e2f0 f   crypto_hash_sha256.obj
 0001:0002d640       ?bind_crypto_hash_sha512@@YAXAEBV?$FunctionCallbackInfo@VValue@v8@@@Nan@@@Z 000000018002e640 f   crypto_hash_sha512.obj
 0001:0002d7f0       ?bind_crypto_hash_sha512_init@@YAXAEBV?$FunctionCallbackInfo@VValue@v8@@@Nan@@@Z 000000018002e7f0 f   crypto_hash_sha512.obj
 0001:0002d8e0       ?bind_crypto_hash_sha512_update@@YAXAEBV?$FunctionCallbackInfo@VValue@v8@@@Nan@@@Z 000000018002e8e0 f   crypto_hash_sha512.obj
 0001:0002db90       ?bind_crypto_hash_sha512_final@@YAXAEBV?$FunctionCallbackInfo@VValue@v8@@@Nan@@@Z 000000018002eb90 f   crypto_hash_sha512.obj
 0001:0002dd30       ?register_crypto_hash_sha512@@YAXV?$Local@VObject@v8@@@v8@@@Z 000000018002ed30 f   crypto_hash_sha512.obj
 0001:0002e080       ?bind_crypto_shorthash@@YAXAEBV?$FunctionCallbackInfo@VValue@v8@@@Nan@@@Z 000000018002f080 f   crypto_shorthash.obj
 0001:0002e300       ?register_crypto_shorthash@@YAXV?$Local@VObject@v8@@@v8@@@Z 000000018002f300 f   crypto_shorthash.obj
 0001:0002e650       ?bind_crypto_shorthash_siphash24@@YAXAEBV?$FunctionCallbackInfo@VValue@v8@@@Nan@@@Z 000000018002f650 f   crypto_shorthash_siphash24.obj
 0001:0002e8d0       ?register_crypto_shorthash_siphash24@@YAXV?$Local@VObject@v8@@@v8@@@Z 000000018002f8d0 f   crypto_shorthash_siphash24.obj
 0001:0002eb60       ?bind_crypto_generichash@@YAXAEBV?$FunctionCallbackInfo@VValue@v8@@@Nan@@@Z 000000018002fb60 f   crypto_generichash.obj
 0001:0002eec0       ?bind_crypto_generichash_init@@YAXAEBV?$FunctionCallbackInfo@VValue@v8@@@Nan@@@Z 000000018002fec0 f   crypto_generichash.obj
 0001:0002f1c0       ?bind_crypto_generichash_update@@YAXAEBV?$FunctionCallbackInfo@VValue@v8@@@Nan@@@Z 00000001800301c0 f   crypto_generichash.obj
 0001:0002f440       ?bind_crypto_generichash_final@@YAXAEBV?$FunctionCallbackInfo@VValue@v8@@@Nan@@@Z 0000000180030440 f   crypto_generichash.obj
 0001:0002f690       ?register_crypto_generichash@@YAXV?$Local@VObject@v8@@@v8@@@Z 0000000180030690 f   crypto_generichash.obj
 0001:0002ff50       ?bind_crypto_generichash_blake2b@@YAXAEBV?$FunctionCallbackInfo@VValue@v8@@@Nan@@@Z 0000000180030f50 f   crypto_generichash_blake2b.obj
 0001:00030260       ?bind_crypto_generichash_blake2b_init@@YAXAEBV?$FunctionCallbackInfo@VValue@v8@@@Nan@@@Z 0000000180031260 f   crypto_generichash_blake2b.obj
 0001:00030560       ?bind_crypto_generichash_blake2b_update@@YAXAEBV?$FunctionCallbackInfo@VValue@v8@@@Nan@@@Z 0000000180031560 f   crypto_generichash_blake2b.obj
 0001:000307e0       ?bind_crypto_generichash_blake2b_final@@YAXAEBV?$FunctionCallbackInfo@VValue@v8@@@Nan@@@Z 00000001800317e0 f   crypto_generichash_blake2b.obj
 0001:00030a30       ?bind_crypto_generichash_blake2b_salt_personal@@YAXAEBV?$FunctionCallbackInfo@VValue@v8@@@Nan@@@Z 0000000180031a30 f   crypto_generichash_blake2b.obj
 0001:00030ee0       ?register_crypto_generichash_blake2b@@YAXV?$Local@VObject@v8@@@v8@@@Z 0000000180031ee0 f   crypto_generichash_blake2b.obj
 0001:00031960       ?register_crypto_onetimeauth@@YAXV?$Local@VObject@v8@@@v8@@@Z 0000000180032960 f   crypto_onetimeauth.obj
 0001:00031ee0       ?bind_crypto_onetimeauth_poly1305@@YAXAEBV?$FunctionCallbackInfo@VValue@v8@@@Nan@@@Z 0000000180032ee0 f   crypto_onetimeauth_poly1305.obj
 0001:00032160       ?bind_crypto_onetimeauth_poly1305_verify@@YAXAEBV?$FunctionCallbackInfo@VValue@v8@@@Nan@@@Z 0000000180033160 f   crypto_onetimeauth_poly1305.obj
 0001:00032480       ?bind_crypto_onetimeauth_poly1305_init@@YAXAEBV?$FunctionCallbackInfo@VValue@v8@@@Nan@@@Z 0000000180033480 f   crypto_onetimeauth_poly1305.obj
 0001:00032650       ?bind_crypto_onetimeauth_poly1305_update@@YAXAEBV?$FunctionCallbackInfo@VValue@v8@@@Nan@@@Z 0000000180033650 f   crypto_onetimeauth_poly1305.obj
 0001:000328d0       ?bind_crypto_onetimeauth_poly1305_final@@YAXAEBV?$FunctionCallbackInfo@VValue@v8@@@Nan@@@Z 00000001800338d0 f   crypto_onetimeauth_poly1305.obj
 0001:00032a70       ?register_crypto_onetimeauth_poly1305@@YAXV?$Local@VObject@v8@@@v8@@@Z 0000000180033a70 f   crypto_onetimeauth_poly1305.obj
 0001:00032f8c       __imp_load_?Value@External@v8@@QEBAPEAXXZ 0000000180033f8c f   node:node.exe
 0001:00032f98       __tailMerge_node_exe       0000000180033f98 f i node:node.exe
 0001:00033011       __imp_load_?New@External@v8@@SA?AV?$Local@VExternal@v8@@@2@PEAVIsolate@2@PEAX@Z 0000000180034011 f   node:node.exe
 0001:0003301d       __imp_load_?NewFromUnsigned@Integer@v8@@SA?AV?$Local@VInteger@v8@@@2@PEAVIsolate@2@I@Z 000000018003401d f   node:node.exe
 0001:00033029       __imp_load_?ThrowException@Isolate@v8@@QEAA?AV?$Local@VValue@v8@@@2@V32@@Z 0000000180034029 f   node:node.exe
 0001:00033035       __imp_load_?GetCurrentContext@Isolate@v8@@QEAA?AV?$Local@VContext@v8@@@2@XZ 0000000180034035 f   node:node.exe
 0001:00033041       __imp_load_?GetCurrent@Isolate@v8@@SAPEAV12@XZ 0000000180034041 f   node:node.exe
 0001:0003304d       __imp_load_?CreateHandle@HandleScope@v8@@KAPEAPEAVObject@internal@2@PEAVIsolate@42@PEAV342@@Z 000000018003404d f   node:node.exe
 0001:00033059       __imp_load_?CreateHandle@HandleScope@v8@@CAPEAPEAVObject@internal@2@PEAVHeapObject@42@PEAV342@@Z 0000000180034059 f   node:node.exe
 0001:00033065       __imp_load_??1HandleScope@v8@@QEAA@XZ 0000000180034065 f   node:node.exe
 0001:00033071       __imp_load_??0HandleScope@v8@@QEAA@PEAVIsolate@1@@Z 0000000180034071 f   node:node.exe
 0001:0003307d       __imp_load_?Error@Exception@v8@@SA?AV?$Local@VValue@v8@@@2@V?$Local@VString@v8@@@2@@Z 000000018003407d f   node:node.exe
 0001:00033089       __imp_load_?SetClassName@FunctionTemplate@v8@@QEAAXV?$Local@VString@v8@@@2@@Z 0000000180034089 f   node:node.exe
 0001:00033095       __imp_load_?GetFunction@FunctionTemplate@v8@@QEAA?AV?$MaybeLocal@VFunction@v8@@@2@V?$Local@VContext@v8@@@2@@Z 0000000180034095 f   node:node.exe
 0001:000330a1       __imp_load_?New@FunctionTemplate@v8@@SA?AV?$Local@VFunctionTemplate@v8@@@2@PEAVIsolate@2@P6AXAEBV?$FunctionCallbackInfo@VValue@v8@@@2@@ZV?$Local@VValue@v8@@@2@V?$Local@VSignature@v8@@@2@HW4ConstructorBehavior@2@@Z 00000001800340a1 f   node:node.exe
 0001:000330ad       __imp_load_?ToLocalEmpty@V8@v8@@CAXXZ 00000001800340ad f   node:node.exe
 0001:000330b9       __imp_load_?DisposeGlobal@V8@v8@@CAXPEAPEAVObject@internal@2@@Z 00000001800340b9 f   node:node.exe
 0001:000330c5       __imp_load_?GlobalizeReference@V8@v8@@CAPEAPEAVObject@internal@2@PEAVIsolate@42@PEAPEAV342@@Z 00000001800340c5 f   node:node.exe
 0001:000330d1       __imp_load_?ToInteger@Value@v8@@QEBA?AV?$MaybeLocal@VInteger@v8@@@2@V?$Local@VContext@v8@@@2@@Z 00000001800340d1 f   node:node.exe
 0001:000330dd       __imp_load_?Escape@EscapableHandleScope@v8@@AEAAPEAPEAVObject@internal@2@PEAPEAV342@@Z 00000001800340dd f   node:node.exe
 0001:000330e9       __imp_load_??0EscapableHandleScope@v8@@QEAA@PEAVIsolate@1@@Z 00000001800340e9 f   node:node.exe
 0001:000330f5       __imp_load_?NewFromUtf8@String@v8@@SA?AV?$MaybeLocal@VString@v8@@@2@PEAVIsolate@2@PEBDW4NewStringType@2@H@Z 00000001800340f5 f   node:node.exe
 0001:00033101       __imp_load_?SlowGetInternalField@Object@v8@@AEAA?AV?$Local@VValue@v8@@@2@H@Z 0000000180034101 f   node:node.exe
 0001:0003310d       __imp_load_?New@Object@v8@@SA?AV?$Local@VObject@v8@@@2@PEAVIsolate@2@@Z 000000018003410d f   node:node.exe
 0001:00033119       __imp_load_?SetInternalField@Object@v8@@QEAAXHV?$Local@VValue@v8@@@2@@Z 0000000180034119 f   node:node.exe
 0001:00033125       __imp_load_?DefineOwnProperty@Object@v8@@QEAA?AV?$Maybe@_N@2@V?$Local@VContext@v8@@@2@V?$Local@VName@v8@@@2@V?$Local@VValue@v8@@@2@W4PropertyAttribute@2@@Z 0000000180034125 f   node:node.exe
 0001:00033131       __imp_load_?Set@Object@v8@@QEAA_NV?$Local@VValue@v8@@@2@0@Z 0000000180034131 f   node:node.exe
 0001:0003313d       __imp_load_?SetInternalFieldCount@ObjectTemplate@v8@@QEAAXH@Z 000000018003413d f   node:node.exe
 0001:00033149       __imp_load_?NewInstance@ObjectTemplate@v8@@QEAA?AV?$MaybeLocal@VObject@v8@@@2@V?$Local@VContext@v8@@@2@@Z 0000000180034149 f   node:node.exe
 0001:00033155       __imp_load_?New@ObjectTemplate@v8@@SA?AV?$Local@VObjectTemplate@v8@@@2@PEAVIsolate@2@V?$Local@VFunctionTemplate@v8@@@2@@Z 0000000180034155 f   node:node.exe
 0001:00033161       __imp_load_?HasInstance@Buffer@node@@YA_NV?$Local@VValue@v8@@@v8@@@Z 0000000180034161 f   node:node.exe
 0001:0003316d       __imp_load_?New@Buffer@node@@YA?AV?$MaybeLocal@VObject@v8@@@v8@@PEAVIsolate@4@_K@Z 000000018003416d f   node:node.exe
 0001:00033179       __imp_load_?Data@Buffer@node@@YAPEADV?$Local@VObject@v8@@@v8@@@Z 0000000180034179 f   node:node.exe
 0001:00033185       __imp_load_?Length@Buffer@node@@YA_KV?$Local@VObject@v8@@@v8@@@Z 0000000180034185 f   node:node.exe
 0001:00033191       __imp_load_?ToObject@Value@v8@@QEBA?AV?$Local@VObject@v8@@@2@XZ 0000000180034191 f   node:node.exe
 0001:0003319d       __imp_load_?NewFromOneByte@String@v8@@SA?AV?$MaybeLocal@VString@v8@@@2@PEAVIsolate@2@PEBEW4NewStringType@2@H@Z 000000018003419d f   node:node.exe
 0001:000331a9       __imp_load_?New@Integer@v8@@SA?AV?$Local@VInteger@v8@@@2@PEAVIsolate@2@H@Z 00000001800341a9 f   node:node.exe
 0001:000331b5       __imp_load_node_module_register 00000001800341b5 f   node:node.exe
 0001:000331c1       __imp_load_?Uint32Value@Value@v8@@QEBAIXZ 00000001800341c1 f   node:node.exe
 0001:000331cd       __imp_load_?IsUint32@Value@v8@@QEBA_NXZ 00000001800341cd f   node:node.exe
 0001:000331d9       __imp_load_?ToInt32@Value@v8@@QEBA?AV?$MaybeLocal@VInt32@v8@@@2@V?$Local@VContext@v8@@@2@@Z 00000001800341d9 f   node:node.exe
 0001:000331e5       __imp_load_?ToUint32@Value@v8@@QEBA?AV?$MaybeLocal@VUint32@v8@@@2@V?$Local@VContext@v8@@@2@@Z 00000001800341e5 f   node:node.exe
 0001:000331f1       __imp_load_?New@Number@v8@@SA?AV?$Local@VNumber@v8@@@2@PEAVIsolate@2@N@Z 00000001800341f1 f   node:node.exe
 0001:00033200       ??0_Init_locks@std@@QEAA@XZ 0000000180034200 f   libcpmt:xlock.obj
 0001:0003324c       ??0_Lockit@std@@QEAA@H@Z   000000018003424c f   libcpmt:xlock.obj
 0001:00033288       ??1_Init_locks@std@@QEAA@XZ 0000000180034288 f   libcpmt:xlock.obj
 0001:000332cc       ??1_Lockit@std@@QEAA@XZ    00000001800342cc f   libcpmt:xlock.obj
 0001:00033300       ??4?$_Yarn@D@std@@QEAAAEAV01@PEBD@Z 0000000180034300 f i libcpmt:locale0.obj
 0001:00033378       ??_G_Fac_node@std@@QEAAPEAXI@Z 0000000180034378 f i libcpmt:locale0.obj
 0001:00033404       ??_G_Locimp@locale@std@@MEAAPEAXI@Z 0000000180034404 f i libcpmt:locale0.obj
 0001:00033404       ??_E_Locimp@locale@std@@MEAAPEAXI@Z 0000000180034404 f i libcpmt:locale0.obj
 0001:00033470       ?_Facet_Register@std@@YAXPEAV_Facet_base@1@@Z 0000000180034470 f   libcpmt:locale0.obj
 0001:000334a8       ?_Getgloballocale@locale@std@@CAPEAV_Locimp@12@XZ 00000001800344a8 f   libcpmt:locale0.obj
 0001:000334b0       ?_Init@locale@std@@CAPEAV_Locimp@12@_N@Z 00000001800344b0 f   libcpmt:locale0.obj
 0001:0003356c       ?_Locimp_dtor@_Locimp@locale@std@@CAXPEAV123@@Z 000000018003456c f   libcpmt:locale0.obj
 0001:00033614       ?_Locinfo_ctor@_Locinfo@std@@SAXPEAV12@PEBD@Z 0000000180034614 f   libcpmt:locale0.obj
 0001:00033680       ?_Locinfo_dtor@_Locinfo@std@@SAXPEAV12@@Z 0000000180034680 f   libcpmt:locale0.obj
 0001:000336a4       ?_New_Locimp@_Locimp@locale@std@@CAPEAV123@_N@Z 00000001800346a4 f   libcpmt:locale0.obj
 0001:00033714       ?_Setgloballocale@locale@std@@CAXPEAX@Z 0000000180034714 f   libcpmt:locale0.obj
 0001:00033748       _Deletegloballocale        0000000180034748 f   libcpmt:locale0.obj
 0001:000337d0       ??0bad_alloc@std@@QEAA@AEBV01@@Z 00000001800347d0 f i libcpmt:xthrow.obj
 0001:00033810       ??0bad_alloc@std@@QEAA@XZ  0000000180034810 f i libcpmt:xthrow.obj
 0001:00033830       ??0exception@std@@QEAA@AEBV01@@Z 0000000180034830 f i libcpmt:xthrow.obj
 0001:00033868       ??0length_error@std@@QEAA@AEBV01@@Z 0000000180034868 f i libcpmt:xthrow.obj
 0001:000338a8       ??0length_error@std@@QEAA@PEBD@Z 00000001800348a8 f i libcpmt:xthrow.obj
 0001:000338f4       ??0logic_error@std@@QEAA@AEBV01@@Z 00000001800348f4 f i libcpmt:xthrow.obj
 0001:00033934       ??0out_of_range@std@@QEAA@AEBV01@@Z 0000000180034934 f i libcpmt:xthrow.obj
 0001:00033974       ??0out_of_range@std@@QEAA@PEBD@Z 0000000180034974 f i libcpmt:xthrow.obj
 0001:000339c0       ?_Xlength_error@std@@YAXPEBD@Z 00000001800349c0 f   libcpmt:xthrow.obj
 0001:000339e4       ?_Xout_of_range@std@@YAXPEBD@Z 00000001800349e4 f   libcpmt:xthrow.obj
 0001:00033a08       ?what@exception@std@@UEBAPEBDXZ 0000000180034a08 f i libcpmt:xthrow.obj
 0001:00033a1c       ?_Ios_base_dtor@ios_base@std@@CAXPEAV12@@Z 0000000180034a1c f   libcpmt:ios.obj
 0001:00033a60       ?_Tidy@ios_base@std@@AEAAXXZ 0000000180034a60 f i libcpmt:ios.obj
 0001:00033af0       ?_Syserror_map@std@@YAPEBDH@Z 0000000180034af0 f   libcpmt:syserror.obj
 0001:00033b18       _Getctype                  0000000180034b18 f   libcpmt:_tolower.obj
 0001:00033bd8       _Tolower                   0000000180034bd8 f   libcpmt:_tolower.obj
 0001:00033d00       _Getcvt                    0000000180034d00 f   libcpmt:xwctomb.obj
 0001:00033d90       _Toupper                   0000000180034d90 f   libcpmt:_toupper.obj
 0001:00033ec8       _Mtxdst                    0000000180034ec8 f   libcpmt:xmtx.obj
 0001:00033ed0       _Mtxinit                   0000000180034ed0 f   libcpmt:xmtx.obj
 0001:00033ee0       _Mtxlock                   0000000180034ee0 f   libcpmt:xmtx.obj
 0001:00033ee8       _Mtxunlock                 0000000180034ee8 f   libcpmt:xmtx.obj
 0001:00033ef0       ?_Atexit@@YAXP6AXXZ@Z      0000000180034ef0 f   libcpmt:iosptrs.obj
 0001:00033f30       __crtLCMapStringA          0000000180034f30 f   libcpmt:StlLCMapStringA.obj
 0001:000346ec       __crtInitializeCriticalSectionEx 00000001800356ec f   libcpmt:winapisupp.obj
 0001:0003474c       GetTableIndexFromLocaleName 000000018003574c f   libcpmt:winapinls.obj
 0001:000347d8       __crtDownlevelLocaleNameToLCID 00000001800357d8 f   libcpmt:winapinls.obj
 0001:0003480c       __crtLCMapStringEx         000000018003580c f   libcpmt:winapinls.obj
 0001:000348c8       __wcsnicmp_ascii           00000001800358c8 f   libcpmt:winapinls.obj
 0001:00034930       __security_check_cookie    0000000180035930 f   LIBCMT:_amdsecgs_.obj
 0001:00034954       ??3@YAXPEAX_K@Z            0000000180035954 f   LIBCMT:delete_scalar_size.obj
 0001:00034954       ??_V@YAXPEAX@Z             0000000180035954 f   LIBCMT:delete_array.obj
 0001:00034aa4       _Init_thread_footer        0000000180035aa4 f   LIBCMT:thread_safe_statics.obj
 0001:00034b04       _Init_thread_header        0000000180035b04 f   LIBCMT:thread_safe_statics.obj
 0001:00034b6c       _Init_thread_notify        0000000180035b6c f   LIBCMT:thread_safe_statics.obj
 0001:00034bc8       _Init_thread_wait          0000000180035bc8 f   LIBCMT:thread_safe_statics.obj
 0001:00034c60       ??2@YAPEAX_K@Z             0000000180035c60 f   LIBCMT:new_scalar.obj
 0001:00034c9c       __scrt_acquire_startup_lock 0000000180035c9c f   LIBCMT:utility.obj
 0001:00034cd8       __scrt_dllmain_after_initialize_c 0000000180035cd8 f   LIBCMT:utility.obj
 0001:00034d0c       __scrt_dllmain_before_initialize_c 0000000180035d0c f   LIBCMT:utility.obj
 0001:00034d24       __scrt_dllmain_crt_thread_attach 0000000180035d24 f   LIBCMT:utility.obj
 0001:00034d4c       __scrt_dllmain_crt_thread_detach 0000000180035d4c f   LIBCMT:utility.obj
 0001:00034d64       __scrt_dllmain_exception_filter 0000000180035d64 f   LIBCMT:utility.obj
 0001:00034dc8       __scrt_dllmain_uninitialize_c 0000000180035dc8 f   LIBCMT:utility.obj
 0001:00034df8       __scrt_dllmain_uninitialize_critical 0000000180035df8 f   LIBCMT:utility.obj
 0001:00034e0c       __scrt_initialize_crt      0000000180035e0c f   LIBCMT:utility.obj
 0001:00034e58       __scrt_initialize_onexit_tables 0000000180035e58 f   LIBCMT:utility.obj
 0001:00034f24       __scrt_is_nonwritable_in_current_image 0000000180035f24 f   LIBCMT:utility.obj
 0001:00034fc0       __scrt_release_startup_lock 0000000180035fc0 f   LIBCMT:utility.obj
 0001:00034fe4       __scrt_uninitialize_crt    0000000180035fe4 f   LIBCMT:utility.obj
 0001:00035010       _onexit                    0000000180036010 f   LIBCMT:utility.obj
 0001:00035060       atexit                     0000000180036060 f   LIBCMT:utility.obj
 0001:00035078       ??3@YAXPEAX@Z              0000000180036078 f   LIBCMT:delete_scalar.obj
 0001:000353cc       _DllMainCRTStartup         00000001800363cc f   LIBCMT:dll_dllmain.obj
 0001:0003540c       _guard_check_icall         000000018003640c f i LIBCMT:checkcfg.obj
 0001:00035414       ??_Gtype_info@@UEAAPEAXI@Z 0000000180036414 f i LIBCMT:std_type_info_static.obj
 0001:00035414       ??_Etype_info@@UEAAPEAXI@Z 0000000180036414 f i LIBCMT:std_type_info_static.obj
 0001:00035440       __GSHandlerCheck           0000000180036440 f   LIBCMT:_gshandler_.obj
 0001:00035460       __GSHandlerCheckCommon     0000000180036460 f   LIBCMT:_gshandler_.obj
 0001:000354d0       _alloca_probe              00000001800364d0 f   LIBCMT:_chkstk_.obj
 0001:000354d0       __chkstk                   00000001800364d0 f   LIBCMT:_chkstk_.obj
 0001:00035524       __raise_securityfailure    0000000180036524 f   LIBCMT:gs_report.obj
 0001:00035558       __report_gsfailure         0000000180036558 f   LIBCMT:gs_report.obj
 0001:0003562c       __report_rangecheckfailure 000000018003662c f   LIBCMT:gs_report.obj
 0001:00035640       __report_securityfailure   0000000180036640 f   LIBCMT:gs_report.obj
 0001:000357c0       __crt_debugger_hook        00000001800367c0 f   LIBCMT:utility_desktop.obj
 0001:000357c8       __scrt_fastfail            00000001800367c8 f   LIBCMT:utility_desktop.obj
 0001:00035910       ??0bad_array_new_length@std@@QEAA@AEBV01@@Z 0000000180036910 f i LIBCMT:throw_bad_alloc.obj
 0001:00035950       ??0bad_array_new_length@std@@QEAA@XZ 0000000180036950 f i LIBCMT:throw_bad_alloc.obj
 0001:00035970       ?_Xbad_alloc@std@@YAXXZ    0000000180036970 f   libcpmt:xthrow.obj
 0001:00035970       ?__scrt_throw_std_bad_alloc@@YAXXZ 0000000180036970 f   LIBCMT:throw_bad_alloc.obj
 0001:00035990       ?__scrt_throw_std_bad_array_new_length@@YAXXZ 0000000180036990 f   LIBCMT:throw_bad_alloc.obj
 0001:000359b0       __isa_available_init       00000001800369b0 f   LIBCMT:_cpu_disp_.obj
 0001:00035b78       _get_startup_argv_mode     0000000180036b78 f   LIBCMT:argv_mode.obj
 0001:00035b78       DllMain                    0000000180036b78 f   LIBCMT:dll_dllmain_stub.obj
 0001:00035b80       __scrt_is_ucrt_dll_in_use  0000000180036b80 f   LIBCMT:ucrt_detection.obj
 0001:00035b8c       __security_init_cookie     0000000180036b8c f   LIBCMT:gs_support.obj
 0001:00035c38       ?__scrt_initialize_type_info@@YAXXZ 0000000180036c38 f   LIBCMT:tncleanup.obj
 0001:00035c48       ?__scrt_uninitialize_type_info@@YAXXZ 0000000180036c48 f   LIBCMT:tncleanup.obj
 0001:00035c54       __local_stdio_scanf_options 0000000180036c54 f i LIBCMT:default_local_stdio_options.obj
 0001:00035c5c       __scrt_initialize_default_local_stdio_options 0000000180036c5c f   LIBCMT:default_local_stdio_options.obj
 0001:00035c78       __scrt_get_dyn_tls_init_callback 0000000180036c78 f   LIBCMT:dyn_tls_init.obj
 0001:00035c80       _RTC_Initialize            0000000180036c80 f   LIBCMT:_initsect_.obj
 0001:00035ccc       _RTC_Terminate             0000000180036ccc f   LIBCMT:_initsect_.obj
 0001:00035d30       memmove                    0000000180036d30 f   libvcruntime:memcpy.obj
 0001:00035d30       memcpy                     0000000180036d30 f   libvcruntime:memcpy.obj
 0001:00036168       _purecall                  0000000180037168 f   libvcruntime:purevirt.obj
 0001:000361a4       __DestructExceptionObject  00000001800371a4 f   libvcruntime:frame.obj
 0001:0003622c       ??0bad_exception@std@@QEAA@AEBV01@@Z 000000018003722c f i libvcruntime:frame.obj
 0001:0003626c       ??0bad_exception@std@@QEAA@XZ 000000018003726c f i libvcruntime:frame.obj
 0001:0003628c       ??1bad_exception@std@@UEAA@XZ 000000018003728c f i libvcruntime:frame.obj
 0001:0003628c       ??1out_of_range@std@@UEAA@XZ 000000018003728c f i libcpmt:xthrow.obj
 0001:0003628c       ??1bad_alloc@std@@UEAA@XZ  000000018003728c f i libcpmt:xthrow.obj
 0001:0003628c       ??1bad_array_new_length@std@@UEAA@XZ 000000018003728c f i LIBCMT:throw_bad_alloc.obj
 0001:0003628c       ??1length_error@std@@UEAA@XZ 000000018003728c f i libcpmt:xthrow.obj
 0001:000362a0       ??_Elength_error@std@@UEAAPEAXI@Z 00000001800372a0 f i libcpmt:xthrow.obj
 0001:000362a0       ??_Glogic_error@std@@UEAAPEAXI@Z 00000001800372a0 f i libcpmt:xthrow.obj
 0001:000362a0       ??_Gout_of_range@std@@UEAAPEAXI@Z 00000001800372a0 f i libcpmt:xthrow.obj
 0001:000362a0       ??_Eexception@std@@UEAAPEAXI@Z 00000001800372a0 f i libcpmt:xthrow.obj
 0001:000362a0       ??_Gbad_exception@std@@UEAAPEAXI@Z 00000001800372a0 f i libvcruntime:frame.obj
 0001:000362a0       ??_Gbad_array_new_length@std@@UEAAPEAXI@Z 00000001800372a0 f i LIBCMT:throw_bad_alloc.obj
 0001:000362a0       ??_Gexception@std@@UEAAPEAXI@Z 00000001800372a0 f i libcpmt:xthrow.obj
 0001:000362a0       ??_Ebad_exception@std@@UEAAPEAXI@Z 00000001800372a0 f i libvcruntime:frame.obj
 0001:000362a0       ??_Eout_of_range@std@@UEAAPEAXI@Z 00000001800372a0 f i libcpmt:xthrow.obj
 0001:000362a0       ??_Glength_error@std@@UEAAPEAXI@Z 00000001800372a0 f i libcpmt:xthrow.obj
 0001:000362a0       ??_Ebad_alloc@std@@UEAAPEAXI@Z 00000001800372a0 f i libcpmt:xthrow.obj
 0001:000362a0       ??_Elogic_error@std@@UEAAPEAXI@Z 00000001800372a0 f i libcpmt:xthrow.obj
 0001:000362a0       ??_Gbad_alloc@std@@UEAAPEAXI@Z 00000001800372a0 f i libcpmt:xthrow.obj
 0001:000362a0       ??_Ebad_array_new_length@std@@UEAAPEAXI@Z 00000001800372a0 f i LIBCMT:throw_bad_alloc.obj
 0001:00036c40       ?_CallMemberFunction0@@YAXPEAXP6AX0@Z@Z 0000000180037c40 f i libvcruntime:frame.obj
 0001:00036c44       ?_CallMemberFunction1@@YAXPEAXP6AX0@Z0@Z 0000000180037c44 f i libvcruntime:frame.obj
 0001:00036c50       ?_CallMemberFunction2@@YAXPEAXP6AX0@Z0H@Z 0000000180037c50 f i libvcruntime:frame.obj
 0001:00036c60       __AdjustPointer            0000000180037c60 f   libvcruntime:frame.obj
 0001:00036c84       __BuildCatchObject         0000000180037c84 f   libvcruntime:frame.obj
 0001:00036d48       __BuildCatchObjectHelper   0000000180037d48 f   libvcruntime:frame.obj
 0001:00036f28       __CxxCallCatchBlock        0000000180037f28 f   libvcruntime:frame.obj
 0001:00037114       __FrameUnwindFilter        0000000180038114 f   libvcruntime:frame.obj
 0001:00037160       __FrameUnwindToState       0000000180038160 f   libvcruntime:frame.obj
 0001:000372f4       __InternalCxxFrameHandler  00000001800382f4 f   libvcruntime:frame.obj
 0001:0003754c       __TypeMatch                000000018003854c f   libvcruntime:frame.obj
 0001:0003768c       __std_terminate            000000018003868c f   libvcruntime:frame.obj
 0001:00037698       ?_ExecutionInCatch@@YAHPEAU_xDISPATCHER_CONTEXT@@PEBU_s_FuncInfo@@@Z 0000000180038698 f   libvcruntime:trnsctrl.obj
 0001:0003770c       ?_GetEstablisherFrame@@YAPEA_KPEA_KPEAU_xDISPATCHER_CONTEXT@@PEBU_s_FuncInfo@@0@Z 000000018003870c f   libvcruntime:trnsctrl.obj
 0001:000377d8       ?_GetRangeOfTrysToCheck@@YAPEBU_s_TryBlockMapEntry@@PEA_KPEBU_s_FuncInfo@@HHPEAI2PEAU_xDISPATCHER_CONTEXT@@@Z 00000001800387d8 f   libvcruntime:trnsctrl.obj
 0001:00037904       ?__FrameUnwindToEmptyState@@YAXPEA_KPEAU_xDISPATCHER_CONTEXT@@PEBU_s_FuncInfo@@@Z 0000000180038904 f   libvcruntime:trnsctrl.obj
 0001:00037998       ?__SehTransFilter@@YAHPEAU_EXCEPTION_POINTERS@@PEAUEHExceptionRecord@@PEA_KPEAU_CONTEXT@@PEAU_xDISPATCHER_CONTEXT@@PEBU_s_FuncInfo@@PEAH@Z 0000000180038998 f   libvcruntime:trnsctrl.obj
 0001:00037a30       _CallSETranslator          0000000180038a30 f   libvcruntime:trnsctrl.obj
 0001:00037a88       _CreateFrameInfo           0000000180038a88 f   libvcruntime:trnsctrl.obj
 0001:00037ac4       _FindAndUnlinkFrame        0000000180038ac4 f   libvcruntime:trnsctrl.obj
 0001:00037b1c       _GetImageBase              0000000180038b1c f   libvcruntime:trnsctrl.obj
 0001:00037b30       _GetThrowImageBase         0000000180038b30 f   libvcruntime:trnsctrl.obj
 0001:00037b44       _IsExceptionObjectToBeDestroyed 0000000180038b44 f   libvcruntime:trnsctrl.obj
 0001:00037b74       _SetImageBase              0000000180038b74 f   libvcruntime:trnsctrl.obj
 0001:00037b8c       _SetThrowImageBase         0000000180038b8c f   libvcruntime:trnsctrl.obj
 0001:00037ba4       _UnwindNestedFrames        0000000180038ba4 f   libvcruntime:trnsctrl.obj
 0001:00037cc8       __CxxFrameHandler3         0000000180038cc8 f   libvcruntime:trnsctrl.obj
 0001:00037d48       __std_exception_copy       0000000180038d48 f   libvcruntime:std_exception.obj
 0001:00037dd8       __std_exception_destroy    0000000180038dd8 f   libvcruntime:std_exception.obj
 0001:00037e00       _CxxThrowException         0000000180038e00 f   libvcruntime:throw.obj
 0001:00037ef0       memset                     0000000180038ef0 f   libvcruntime:memset.obj
 0001:000380a0       memcmp                     00000001800390a0 f   libvcruntime:memcmp.obj
 0001:00038330       __vcrt_FlsAlloc            0000000180039330 f   libvcruntime:winapi_downlevel.obj
 0001:00038384       __vcrt_FlsFree             0000000180039384 f   libvcruntime:winapi_downlevel.obj
 0001:000383d8       __vcrt_FlsGetValue         00000001800393d8 f   libvcruntime:winapi_downlevel.obj
 0001:0003842c       __vcrt_FlsSetValue         000000018003942c f   libvcruntime:winapi_downlevel.obj
 0001:00038494       __vcrt_InitializeCriticalSectionEx 0000000180039494 f   libvcruntime:winapi_downlevel.obj
 0001:0003850c       __vcrt_initialize_winapi_thunks 000000018003950c f   libvcruntime:winapi_downlevel.obj
 0001:00038558       __vcrt_uninitialize_winapi_thunks 0000000180039558 f   libvcruntime:winapi_downlevel.obj
 0001:00038598       __vcrt_initialize          0000000180039598 f   libvcruntime:initialization.obj
 0001:000385cc       __vcrt_thread_attach       00000001800395cc f   libvcruntime:initialization.obj
 0001:000385e0       __vcrt_thread_detach       00000001800395e0 f   libvcruntime:initialization.obj
 0001:000385f4       __vcrt_uninitialize        00000001800395f4 f   libvcruntime:initialization.obj
 0001:00038614       __vcrt_uninitialize_critical 0000000180039614 f   libvcruntime:initialization.obj
 0001:00038624       __C_specific_handler       0000000180039624 f   libvcruntime:_chandler_.obj
 0001:00038820       __std_type_info_compare    0000000180039820 f   libvcruntime:std_type_info.obj
 0001:00038848       __std_type_info_destroy_list 0000000180039848 f   libvcruntime:std_type_info.obj
 0001:00038874       __vcrt_initialize_pure_virtual_call_handler 0000000180039874 f   libvcruntime:purevirt_data.obj
 0001:00038898       __vcrt_freefls             0000000180039898 f   libvcruntime:per_thread_data.obj
 0001:000388b8       __vcrt_freeptd             00000001800398b8 f   libvcruntime:per_thread_data.obj
 0001:00038908       __vcrt_getptd              0000000180039908 f   libvcruntime:per_thread_data.obj
 0001:00038924       __vcrt_getptd_noexit       0000000180039924 f   libvcruntime:per_thread_data.obj
 0001:000389dc       __vcrt_initialize_ptd      00000001800399dc f   libvcruntime:per_thread_data.obj
 0001:00038a1c       __vcrt_uninitialize_ptd    0000000180039a1c f   libvcruntime:per_thread_data.obj
 0001:00038a40       ?__GetCurrentState@@YAHPEA_KPEAU_xDISPATCHER_CONTEXT@@PEBU_s_FuncInfo@@@Z 0000000180039a40 f   libvcruntime:ehstate.obj
 0001:00038a68       ?__GetUnwindTryBlock@@YAHPEA_KPEAU_xDISPATCHER_CONTEXT@@PEBU_s_FuncInfo@@@Z 0000000180039a68 f   libvcruntime:ehstate.obj
 0001:00038a94       ?__SetState@@YAXPEA_KPEAU_xDISPATCHER_CONTEXT@@PEBU_s_FuncInfo@@H@Z 0000000180039a94 f   libvcruntime:ehstate.obj
 0001:00038aa0       ?__SetUnwindTryBlock@@YAXPEA_KPEAU_xDISPATCHER_CONTEXT@@PEBU_s_FuncInfo@@H@Z 0000000180039aa0 f   libvcruntime:ehstate.obj
 0001:00038adc       ?__StateFromControlPc@@YAHPEBU_s_FuncInfo@@PEAU_xDISPATCHER_CONTEXT@@@Z 0000000180039adc f   libvcruntime:ehstate.obj
 0001:00038ae4       ?__StateFromIp@@YAHPEBU_s_FuncInfo@@PEAU_xDISPATCHER_CONTEXT@@_J@Z 0000000180039ae4 f   libvcruntime:ehstate.obj
 0001:00038b60       _CallSettingFrame          0000000180039b60 f   libvcruntime:handlers.obj
 0001:00038bb0       _local_unwind              0000000180039bb0 f   libvcruntime:_jmpuwind_.obj
 0001:00038be0       _NLG_Notify                0000000180039be0 f   libvcruntime:_jmpuwind_.obj
 0001:00038c00       __NLG_Dispatch2            0000000180039c00 f   libvcruntime:_jmpuwind_.obj
 0001:00038c10       __NLG_Return2              0000000180039c10 f   libvcruntime:_jmpuwind_.obj
 0001:00038c14       __vcrt_initialize_locks    0000000180039c14 f   libvcruntime:locks.obj
 0001:00038c5c       __vcrt_uninitialize_locks  0000000180039c5c f   libvcruntime:locks.obj
 0001:00038c94       abort                      0000000180039c94 f   libucrt:abort.obj
 0001:00038cec       calloc                     0000000180039cec f   libucrt:calloc.obj
 0001:00038cf4       __acrt_call_reportfault    0000000180039cf4 f   libucrt:invalid_parameter.obj
 0001:00038e50       __acrt_initialize_invalid_parameter_handler 0000000180039e50 f   libucrt:invalid_parameter.obj
 0001:00038e58       _invalid_parameter         0000000180039e58 f   libucrt:invalid_parameter.obj
 0001:00038f00       _invalid_parameter_noinfo  0000000180039f00 f   libucrt:invalid_parameter.obj
 0001:00038f20       _invalid_parameter_noinfo_noreturn 0000000180039f20 f   libucrt:invalid_parameter.obj
 0001:00038f50       _invoke_watson             0000000180039f50 f   libucrt:invalid_parameter.obj
 0001:00038f98       strcspn                    0000000180039f98 f   libucrt:strcspn.obj
 0001:00039038       ??$?RV<lambda_7b91131dde12e1c3dfc74ff76b3f2eac>@@AEAV<lambda_dd75445284c072d0bd3768540cc698fa>@@V<lambda_16bc4ecb55b4718497c16bceaea2ceaf>@@@?$__crt_seh_guarded_call@H@@QEAAH$$QEAV<lambda_7b91131dde12e1c3dfc74ff76b3f2eac>@@AEAV<lambda_dd75445284c072d0bd3768540cc698fa>@@$$QEAV<lambda_16bc4ecb55b4718497c16bceaea2ceaf>@@@Z 000000018003a038 f i libucrt:output.obj
 0001:00039220       ??$ensure_buffer_is_big_enough@D@formatting_buffer@__crt_stdio_output@@QEAA_N_K@Z 000000018003a220 f i libucrt:output.obj
 0001:000392cc       ??$is_wide_character_specifier@D@__crt_stdio_output@@YA_N_KDW4length_modifier@0@@Z 000000018003a2cc f i libucrt:output.obj
 0001:000392fc       ??$is_wide_character_specifier@_W@__crt_stdio_output@@YA_N_K_WW4length_modifier@0@@Z 000000018003a2fc f i libucrt:output.obj
 0001:00039340       ??$type_case_integer_parse_into_buffer@I@?$output_processor@_WV?$stream_output_adapter@_W@__crt_stdio_output@@V?$standard_base@_WV?$stream_output_adapter@_W@__crt_stdio_output@@@2@@__crt_stdio_output@@AEAAXII_N@Z 000000018003a340 f i libucrt:output.obj
 0001:00039340       ??$type_case_integer_parse_into_buffer@I@?$output_processor@DV?$string_output_adapter@D@__crt_stdio_output@@V?$format_validation_base@DV?$string_output_adapter@D@__crt_stdio_output@@@2@@__crt_stdio_output@@AEAAXII_N@Z 000000018003a340 f i libucrt:output.obj
 0001:00039340       ??$type_case_integer_parse_into_buffer@I@?$output_processor@_WV?$string_output_adapter@_W@__crt_stdio_output@@V?$standard_base@_WV?$string_output_adapter@_W@__crt_stdio_output@@@2@@__crt_stdio_output@@AEAAXII_N@Z 000000018003a340 f i libucrt:output.obj
 0001:000393dc       ??$type_case_integer_parse_into_buffer@_K@?$output_processor@_WV?$stream_output_adapter@_W@__crt_stdio_output@@V?$standard_base@_WV?$stream_output_adapter@_W@__crt_stdio_output@@@2@@__crt_stdio_output@@AEAAX_KI_N@Z 000000018003a3dc f i libucrt:output.obj
 0001:000393dc       ??$type_case_integer_parse_into_buffer@_K@?$output_processor@DV?$string_output_adapter@D@__crt_stdio_output@@V?$format_validation_base@DV?$string_output_adapter@D@__crt_stdio_output@@@2@@__crt_stdio_output@@AEAAX_KI_N@Z 000000018003a3dc f i libucrt:output.obj
 0001:000393dc       ??$type_case_integer_parse_into_buffer@_K@?$output_processor@_WV?$string_output_adapter@_W@__crt_stdio_output@@V?$standard_base@_WV?$string_output_adapter@_W@__crt_stdio_output@@@2@@__crt_stdio_output@@AEAAX_KI_N@Z 000000018003a3dc f i libucrt:output.obj
 0001:00039478       ??$write_multiple_characters@V?$stream_output_adapter@_W@__crt_stdio_output@@D@__crt_stdio_output@@YAXAEBV?$stream_output_adapter@_W@0@DHQEAH@Z 000000018003a478 f i libucrt:output.obj
 0001:00039508       ??$write_multiple_characters@V?$string_output_adapter@D@__crt_stdio_output@@D@__crt_stdio_output@@YAXAEBV?$string_output_adapter@D@0@DHQEAH@Z 000000018003a508 f i libucrt:output.obj
 0001:00039564       ??$write_multiple_characters@V?$string_output_adapter@_W@__crt_stdio_output@@D@__crt_stdio_output@@YAXAEBV?$string_output_adapter@_W@0@DHQEAH@Z 000000018003a564 f i libucrt:output.obj
 0001:000395d4       ??0?$output_processor@DV?$string_output_adapter@D@__crt_stdio_output@@V?$format_validation_base@DV?$string_output_adapter@D@__crt_stdio_output@@@2@@__crt_stdio_output@@QEAA@AEBV?$string_output_adapter@D@1@_KQEBDQEAU__crt_locale_pointers@@QEAD@Z 000000018003a5d4 f i libucrt:output.obj
 0001:00039650       ??0?$output_processor@_WV?$string_output_adapter@_W@__crt_stdio_output@@V?$standard_base@_WV?$string_output_adapter@_W@__crt_stdio_output@@@2@@__crt_stdio_output@@QEAA@AEBV?$string_output_adapter@_W@1@_KQEB_WQEAU__crt_locale_pointers@@QEAD@Z 000000018003a650 f i libucrt:output.obj
 0001:00039650       ??0?$output_processor@_WV?$stream_output_adapter@_W@__crt_stdio_output@@V?$standard_base@_WV?$stream_output_adapter@_W@__crt_stdio_output@@@2@@__crt_stdio_output@@QEAA@AEBV?$stream_output_adapter@_W@1@_KQEB_WQEAU__crt_locale_pointers@@QEAD@Z 000000018003a650 f i libucrt:output.obj
 0001:000396d0       ??0_LocaleUpdate@@QEAA@QEAU__crt_locale_pointers@@@Z 000000018003a6d0 f i libucrt:output.obj
 0001:00039850       ?force_decimal_point@__crt_stdio_output@@YAXPEADQEAU__crt_locale_pointers@@@Z 000000018003a850 f i libucrt:output.obj
 0001:000398c0       ?parse_int_from_format_string@?$output_processor@DV?$string_output_adapter@D@__crt_stdio_output@@V?$format_validation_base@DV?$string_output_adapter@D@__crt_stdio_output@@@2@@__crt_stdio_output@@AEAA_NQEAH@Z 000000018003a8c0 f i libucrt:output.obj
 0001:00039944       ?parse_int_from_format_string@?$output_processor@_WV?$stream_output_adapter@_W@__crt_stdio_output@@V?$standard_base@_WV?$stream_output_adapter@_W@__crt_stdio_output@@@2@@__crt_stdio_output@@AEAA_NQEAH@Z 000000018003a944 f i libucrt:output.obj
 0001:00039944       ?parse_int_from_format_string@?$output_processor@_WV?$string_output_adapter@_W@__crt_stdio_output@@V?$standard_base@_WV?$string_output_adapter@_W@__crt_stdio_output@@@2@@__crt_stdio_output@@AEAA_NQEAH@Z 000000018003a944 f i libucrt:output.obj
 0001:000399c4       ?process@?$output_processor@DV?$string_output_adapter@D@__crt_stdio_output@@V?$format_validation_base@DV?$string_output_adapter@D@__crt_stdio_output@@@2@@__crt_stdio_output@@QEAAHXZ 000000018003a9c4 f i libucrt:output.obj
 0001:00039bd8       ?process@?$output_processor@_WV?$stream_output_adapter@_W@__crt_stdio_output@@V?$standard_base@_WV?$stream_output_adapter@_W@__crt_stdio_output@@@2@@__crt_stdio_output@@QEAAHXZ 000000018003abd8 f i libucrt:output.obj
 0001:00039e50       ?process@?$output_processor@_WV?$string_output_adapter@_W@__crt_stdio_output@@V?$standard_base@_WV?$string_output_adapter@_W@__crt_stdio_output@@@2@@__crt_stdio_output@@QEAAHXZ 000000018003ae50 f i libucrt:output.obj
 0001:0003a0cc       ?state_case_normal@?$output_processor@DV?$string_output_adapter@D@__crt_stdio_output@@V?$format_validation_base@DV?$string_output_adapter@D@__crt_stdio_output@@@2@@__crt_stdio_output@@AEAA_NXZ 000000018003b0cc f i libucrt:output.obj
 0001:0003a140       ?state_case_normal_tchar@?$output_processor@DV?$string_output_adapter@D@__crt_stdio_output@@V?$format_validation_base@DV?$string_output_adapter@D@__crt_stdio_output@@@2@@__crt_stdio_output@@AEAA_ND@Z 000000018003b140 f i libucrt:output.obj
 0001:0003a1d8       ?state_case_size@?$output_processor@DV?$string_output_adapter@D@__crt_stdio_output@@V?$format_validation_base@DV?$string_output_adapter@D@__crt_stdio_output@@@2@@__crt_stdio_output@@AEAA_NXZ 000000018003b1d8 f i libucrt:output.obj
 0001:0003a354       ?state_case_size@?$output_processor@_WV?$stream_output_adapter@_W@__crt_stdio_output@@V?$standard_base@_WV?$stream_output_adapter@_W@__crt_stdio_output@@@2@@__crt_stdio_output@@AEAA_NXZ 000000018003b354 f i libucrt:output.obj
 0001:0003a4f8       ?state_case_size@?$output_processor@_WV?$string_output_adapter@_W@__crt_stdio_output@@V?$standard_base@_WV?$string_output_adapter@_W@__crt_stdio_output@@@2@@__crt_stdio_output@@AEAA_NXZ 000000018003b4f8 f i libucrt:output.obj
 0001:0003a69c       ?state_case_type@?$output_processor@DV?$string_output_adapter@D@__crt_stdio_output@@V?$format_validation_base@DV?$string_output_adapter@D@__crt_stdio_output@@@2@@__crt_stdio_output@@AEAA_NXZ 000000018003b69c f i libucrt:output.obj
 0001:0003a918       ?state_case_type@?$output_processor@_WV?$stream_output_adapter@_W@__crt_stdio_output@@V?$standard_base@_WV?$stream_output_adapter@_W@__crt_stdio_output@@@2@@__crt_stdio_output@@AEAA_NXZ 000000018003b918 f i libucrt:output.obj
 0001:0003abe4       ?state_case_type@?$output_processor@_WV?$string_output_adapter@_W@__crt_stdio_output@@V?$standard_base@_WV?$string_output_adapter@_W@__crt_stdio_output@@@2@@__crt_stdio_output@@AEAA_NXZ 000000018003bbe4 f i libucrt:output.obj
 0001:0003aeb0       ?type_case_Z@?$output_processor@DV?$string_output_adapter@D@__crt_stdio_output@@V?$format_validation_base@DV?$string_output_adapter@D@__crt_stdio_output@@@2@@__crt_stdio_output@@AEAA_NXZ 000000018003beb0 f i libucrt:output.obj
 0001:0003af30       ?type_case_Z@?$output_processor@_WV?$stream_output_adapter@_W@__crt_stdio_output@@V?$standard_base@_WV?$stream_output_adapter@_W@__crt_stdio_output@@@2@@__crt_stdio_output@@AEAA_NXZ 000000018003bf30 f i libucrt:output.obj
 0001:0003af30       ?type_case_Z@?$output_processor@_WV?$string_output_adapter@_W@__crt_stdio_output@@V?$standard_base@_WV?$string_output_adapter@_W@__crt_stdio_output@@@2@@__crt_stdio_output@@AEAA_NXZ 000000018003bf30 f i libucrt:output.obj
 0001:0003afb0       ?type_case_a@?$output_processor@DV?$string_output_adapter@D@__crt_stdio_output@@V?$format_validation_base@DV?$string_output_adapter@D@__crt_stdio_output@@@2@@__crt_stdio_output@@AEAA_NXZ 000000018003bfb0 f i libucrt:output.obj
 0001:0003b1cc       ?type_case_a@?$output_processor@_WV?$stream_output_adapter@_W@__crt_stdio_output@@V?$standard_base@_WV?$stream_output_adapter@_W@__crt_stdio_output@@@2@@__crt_stdio_output@@AEAA_NXZ 000000018003c1cc f i libucrt:output.obj
 0001:0003b1cc       ?type_case_a@?$output_processor@_WV?$string_output_adapter@_W@__crt_stdio_output@@V?$standard_base@_WV?$string_output_adapter@_W@__crt_stdio_output@@@2@@__crt_stdio_output@@AEAA_NXZ 000000018003c1cc f i libucrt:output.obj
 0001:0003b410       ?type_case_c_tchar@?$output_processor@DV?$string_output_adapter@D@__crt_stdio_output@@V?$format_validation_base@DV?$string_output_adapter@D@__crt_stdio_output@@@2@@__crt_stdio_output@@AEAA_ND@Z 000000018003c410 f i libucrt:output.obj
 0001:0003b4c4       ?type_case_c_tchar@?$output_processor@_WV?$stream_output_adapter@_W@__crt_stdio_output@@V?$standard_base@_WV?$stream_output_adapter@_W@__crt_stdio_output@@@2@@__crt_stdio_output@@AEAA_N_W@Z 000000018003c4c4 f i libucrt:output.obj
 0001:0003b4c4       ?type_case_c_tchar@?$output_processor@_WV?$string_output_adapter@_W@__crt_stdio_output@@V?$standard_base@_WV?$string_output_adapter@_W@__crt_stdio_output@@@2@@__crt_stdio_output@@AEAA_N_W@Z 000000018003c4c4 f i libucrt:output.obj
 0001:0003b56c       ?type_case_integer@?$output_processor@_WV?$string_output_adapter@_W@__crt_stdio_output@@V?$standard_base@_WV?$string_output_adapter@_W@__crt_stdio_output@@@2@@__crt_stdio_output@@AEAA_NI_N@Z 000000018003c56c f i libucrt:output.obj
 0001:0003b56c       ?type_case_integer@?$output_processor@DV?$string_output_adapter@D@__crt_stdio_output@@V?$format_validation_base@DV?$string_output_adapter@D@__crt_stdio_output@@@2@@__crt_stdio_output@@AEAA_NI_N@Z 000000018003c56c f i libucrt:output.obj
 0001:0003b56c       ?type_case_integer@?$output_processor@_WV?$stream_output_adapter@_W@__crt_stdio_output@@V?$standard_base@_WV?$stream_output_adapter@_W@__crt_stdio_output@@@2@@__crt_stdio_output@@AEAA_NI_N@Z 000000018003c56c f i libucrt:output.obj
 0001:0003b70c       ?type_case_n@?$output_processor@_WV?$string_output_adapter@_W@__crt_stdio_output@@V?$standard_base@_WV?$string_output_adapter@_W@__crt_stdio_output@@@2@@__crt_stdio_output@@AEAA_NXZ 000000018003c70c f i libucrt:output.obj
 0001:0003b70c       ?type_case_n@?$output_processor@_WV?$stream_output_adapter@_W@__crt_stdio_output@@V?$standard_base@_WV?$stream_output_adapter@_W@__crt_stdio_output@@@2@@__crt_stdio_output@@AEAA_NXZ 000000018003c70c f i libucrt:output.obj
 0001:0003b70c       ?type_case_n@?$output_processor@DV?$string_output_adapter@D@__crt_stdio_output@@V?$format_validation_base@DV?$string_output_adapter@D@__crt_stdio_output@@@2@@__crt_stdio_output@@AEAA_NXZ 000000018003c70c f i libucrt:output.obj
 0001:0003b7e8       ?type_case_s@?$output_processor@DV?$string_output_adapter@D@__crt_stdio_output@@V?$format_validation_base@DV?$string_output_adapter@D@__crt_stdio_output@@@2@@__crt_stdio_output@@AEAA_NXZ 000000018003c7e8 f i libucrt:output.obj
 0001:0003b878       ?type_case_s@?$output_processor@_WV?$stream_output_adapter@_W@__crt_stdio_output@@V?$standard_base@_WV?$stream_output_adapter@_W@__crt_stdio_output@@@2@@__crt_stdio_output@@AEAA_NXZ 000000018003c878 f i libucrt:output.obj
 0001:0003b878       ?type_case_s@?$output_processor@_WV?$string_output_adapter@_W@__crt_stdio_output@@V?$standard_base@_WV?$string_output_adapter@_W@__crt_stdio_output@@@2@@__crt_stdio_output@@AEAA_NXZ 000000018003c878 f i libucrt:output.obj
 0001:0003b940       ?write_stored_string_tchar@?$output_processor@DV?$string_output_adapter@D@__crt_stdio_output@@V?$format_validation_base@DV?$string_output_adapter@D@__crt_stdio_output@@@2@@__crt_stdio_output@@AEAA_ND@Z 000000018003c940 f i libucrt:output.obj
 0001:0003ba18       ?write_stored_string_tchar@?$output_processor@_WV?$stream_output_adapter@_W@__crt_stdio_output@@V?$standard_base@_WV?$stream_output_adapter@_W@__crt_stdio_output@@@2@@__crt_stdio_output@@AEAA_N_W@Z 000000018003ca18 f i libucrt:output.obj
 0001:0003bb04       ?write_stored_string_tchar@?$output_processor@_WV?$string_output_adapter@_W@__crt_stdio_output@@V?$standard_base@_WV?$string_output_adapter@_W@__crt_stdio_output@@@2@@__crt_stdio_output@@AEAA_N_W@Z 000000018003cb04 f i libucrt:output.obj
 0001:0003bbf4       ?write_string@?$stream_output_adapter@_W@__crt_stdio_output@@QEBAXQEB_WHQEAH1@Z 000000018003cbf4 f i libucrt:output.obj
 0001:0003bd00       ?write_string@?$string_output_adapter@D@__crt_stdio_output@@QEBAXQEBDHQEAH1@Z 000000018003cd00 f i libucrt:output.obj
 0001:0003bdbc       ?write_string@?$string_output_adapter@_W@__crt_stdio_output@@QEBAXQEB_WHQEAH1@Z 000000018003cdbc f i libucrt:output.obj
 0001:0003be7c       __stdio_common_vfwprintf   000000018003ce7c f   libucrt:output.obj
 0001:0003bf08       __stdio_common_vsprintf_s  000000018003cf08 f   libucrt:output.obj
 0001:0003bf6c       __stdio_common_vswprintf   000000018003cf6c f   libucrt:output.obj
 0001:0003c1a4       localeconv                 000000018003d1a4 f   libucrt:localeconv.obj
 0001:0003c1d8       free                       000000018003d1d8 f   libucrt:free.obj
 0001:0003c1e0       frexp                      000000018003d1e0 f   libucrt:frexp.obj
 0001:0003ccc0       ??$ftprintf@PEAU_iobuf@@PEB_WAEBQEB_WAEBQEB_WAEBI@?$__crt_char_traits@_W@@SAH$$QEAPEAU_iobuf@@$$QEAPEB_WAEBQEB_W2AEBI@Z 000000018003dcc0 f i libucrt:assert.obj
 0001:0003cce8       _wassert                   000000018003dce8 f   libucrt:assert.obj
 0001:0003cd6c       fwprintf                   000000018003dd6c f i libucrt:assert.obj
 0001:0003cdb0       swprintf                   000000018003ddb0 f i libucrt:assert.obj
 0001:0003ce04       __ascii_stricmp            000000018003de04 f   libucrt:stricmp.obj
 0001:0003ce40       _stricmp                   000000018003de40 f   libucrt:stricmp.obj
 0001:0003ce88       _stricmp_l                 000000018003de88 f   libucrt:stricmp.obj
 0001:0003cf3c       __acrt_initialize_locks    000000018003df3c f   libucrt:locks.obj
 0001:0003cf84       __acrt_lock                000000018003df84 f   libucrt:locks.obj
 0001:0003cfa0       __acrt_uninitialize_locks  000000018003dfa0 f   libucrt:locks.obj
 0001:0003cfd8       __acrt_unlock              000000018003dfd8 f   libucrt:locks.obj
 0001:0003cff4       _lock_locales              000000018003dff4 f   libucrt:locks.obj
 0001:0003d004       _unlock_locales            000000018003e004 f   libucrt:locks.obj
 0001:0003d014       malloc                     000000018003e014 f   libucrt:malloc.obj
 0001:0003d104       setlocale                  000000018003e104 f   libucrt:setlocale.obj
 0001:0003d2d0       _calloc_base               000000018003e2d0 f   libucrt:calloc_base.obj
 0001:0003d348       __pctype_func              000000018003e348 f   libucrt:ctype.obj
 0001:0003d378       isdigit                    000000018003e378 f i libucrt:_ctype.obj
 0001:0003d3ec       islower                    000000018003e3ec f i libucrt:_ctype.obj
 0001:0003d460       isupper                    000000018003e460 f i libucrt:_ctype.obj
 0001:0003d4d4       _wcsdup                    000000018003e4d4 f   libucrt:wcsdup.obj
 0001:0003d558       ___lc_codepage_func        000000018003e558 f   libucrt:initctype.obj
 0001:0003d588       ___lc_locale_name_func     000000018003e588 f   libucrt:initctype.obj
 0001:0003d5bc       ___mb_cur_max_func         000000018003e5bc f   libucrt:initctype.obj
 0001:0003d5ec       __acrt_locale_initialize_ctype 000000018003e5ec f   libucrt:initctype.obj
 0001:0003dbc0       __acrt_errno_from_os_error 000000018003ebc0 f   libucrt:errno.obj
 0001:0003dc08       __acrt_errno_map_os_error  000000018003ec08 f   libucrt:errno.obj
 0001:0003dc58       __doserrno                 000000018003ec58 f   libucrt:errno.obj
 0001:0003dc78       _errno                     000000018003ec78 f   libucrt:errno.obj
 0001:0003dd10       _ismbblead                 000000018003ed10 f   libucrt:ismbbyte.obj
 0001:0003dd24       _malloc_base               000000018003ed24 f   libucrt:malloc_base.obj
 0001:0003dd84       _realloc_base              000000018003ed84 f   libucrt:realloc_base.obj
 0001:0003de10       ?divide@__crt_strtox@@YA_KAEAUbig_integer@1@AEBU21@@Z 000000018003ee10 f i libucrt:strtod.obj
 0001:0003e370       pow                        000000018003f370 f   libucrt:pow.obj
 0001:0003fa10       powf                       0000000180040a10 f   libucrt:powf.obj
 0001:000408d8       __strncnt                  00000001800418d8 f   libucrt:strncnt.obj
 0001:000408f0       _free_base                 00000001800418f0 f   libucrt:free_base.obj
 0001:00040980       _tolower_l                 0000000180041980 f   libucrt:tolower_toupper.obj
 0001:00040ac0       tolower                    0000000180041ac0 f   libucrt:tolower_toupper.obj
 0001:00040aec       wcscpy_s                   0000000180041aec f   libucrt:wcscpy_s.obj
 0001:00040b54       strnlen                    0000000180041b54 f   libucrt:strnlen.obj
 0001:00040cb0       wcsnlen                    0000000180041cb0 f   libucrt:strnlen.obj
 0001:00040ea0       __acrt_initialize_new_handler 0000000180041ea0 f   libucrt:new_handler.obj
 0001:00040ea8       _callnewh                  0000000180041ea8 f   libucrt:new_handler.obj
 0001:00040ee8       _query_new_handler         0000000180041ee8 f   libucrt:new_handler.obj
 0001:00040f1c       _seh_filter_dll            0000000180041f1c f   libucrt:exception_filter.obj
 0001:00040f30       _seh_filter_exe            0000000180041f30 f   libucrt:exception_filter.obj
 0001:000412f0       __acrt_initialize_thread_local_exit_callback 00000001800422f0 f   libucrt:exit.obj
 0001:000412f8       _cexit                     00000001800422f8 f   libucrt:exit.obj
 0001:00041308       _exit                      0000000180042308 f   libucrt:exit.obj
 0001:00041314       _is_c_termination_complete 0000000180042314 f   libucrt:exit.obj
 0001:000414d8       __acrt_allocate_buffer_for_argv 00000001800424d8 f   libucrt:argv_parsing.obj
 0001:0004153c       _configure_narrow_argv     000000018004253c f   libucrt:argv_parsing.obj
 0001:00041898       __dcrt_uninitialize_environments_nolock 0000000180042898 f   libucrt:environment_initialization.obj
 0001:000418d0       _initialize_narrow_environment 00000001800428d0 f   libucrt:environment_initialization.obj
 0001:000418d8       ??$?RV<lambda_b8c45f8f788dd370798f47cfe8ac3a86>@@AEAV<lambda_4e60a939b0d047cfe11ddc22648dfba9>@@V<lambda_332c3edc96d0294ec56c57d38c1cdfd5>@@@?$__crt_seh_guarded_call@H@@QEAAH$$QEAV<lambda_b8c45f8f788dd370798f47cfe8ac3a86>@@AEAV<lambda_4e60a939b0d047cfe11ddc22648dfba9>@@$$QEAV<lambda_332c3edc96d0294ec56c57d38c1cdfd5>@@@Z 00000001800428d8 f i libucrt:onexit.obj
 0001:00041914       ??$?RV<lambda_e24bbb7b643b32fcea6fa61b31d4c984>@@AEAV<lambda_275893d493268fdec8709772e3fcec0e>@@V<lambda_9d71df4d7cf3f480f8d633942495c3b0>@@@?$__crt_seh_guarded_call@H@@QEAAH$$QEAV<lambda_e24bbb7b643b32fcea6fa61b31d4c984>@@AEAV<lambda_275893d493268fdec8709772e3fcec0e>@@$$QEAV<lambda_9d71df4d7cf3f480f8d633942495c3b0>@@@Z 0000000180042914 f i libucrt:onexit.obj
 0001:00041c90       _crt_atexit                0000000180042c90 f   libucrt:onexit.obj
 0001:00041ca0       _execute_onexit_table      0000000180042ca0 f   libucrt:onexit.obj
 0001:00041cdc       _initialize_onexit_table   0000000180042cdc f   libucrt:onexit.obj
 0001:00041d1c       _register_onexit_function  0000000180042d1c f   libucrt:onexit.obj
 0001:00041dac       __acrt_uninitialize_command_line 0000000180042dac f   libucrt:argv_data.obj
 0001:00041e9c       __acrt_initialize          0000000180042e9c f   libucrt:initialization.obj
 0001:00041eb0       __acrt_thread_attach       0000000180042eb0 f   libucrt:initialization.obj
 0001:00041ec4       __acrt_thread_detach       0000000180042ec4 f   libucrt:initialization.obj
 0001:00041ed4       __acrt_uninitialize        0000000180042ed4 f   libucrt:initialization.obj
 0001:00041ee8       __acrt_uninitialize_critical 0000000180042ee8 f   libucrt:initialization.obj
 0001:00041ef8       _initterm                  0000000180042ef8 f   libucrt:initterm.obj
 0001:00041f70       _initterm_e                0000000180042f70 f   libucrt:initterm.obj
 0001:00041fbc       terminate                  0000000180042fbc f   libucrt:terminate.obj
 0001:00041fe4       strcpy_s                   0000000180042fe4 f   libucrt:strcpy_s.obj
 0001:00042044       ??$is_overflow_condition@K@__crt_strtox@@YA_NIK@Z 0000000180043044 f i libucrt:atox.obj
 0001:00042070       ??$make_c_string_character_source@DPEAPEAD@__crt_strtox@@YA?AV?$c_string_character_source@D@0@QEBDQEAPEAD@Z 0000000180043070 f i libucrt:strtod.obj
 0001:00042070       ??$make_c_string_character_source@_WPEAPEA_W@__crt_strtox@@YA?AV?$c_string_character_source@_W@0@QEB_WQEAPEA_W@Z 0000000180043070 f i libucrt:strtod.obj
 0001:00042070       ??$make_c_string_character_source@_W$$T@__crt_strtox@@YA?AV?$c_string_character_source@_W@0@QEB_W$$T@Z 0000000180043070 f i libucrt:atox.obj
 0001:00042084       ??$parse_integer@KV?$c_string_character_source@D@__crt_strtox@@@__crt_strtox@@YAKQEAU__crt_locale_pointers@@V?$c_string_character_source@D@0@H_N@Z 0000000180043084 f i libucrt:atox.obj
 0001:00042398       ??$parse_integer@KV?$c_string_character_source@_W@__crt_strtox@@@__crt_strtox@@YAKQEAU__crt_locale_pointers@@V?$c_string_character_source@_W@0@H_N@Z 0000000180043398 f i libucrt:atox.obj
 0001:00042a6c       _wtol                      0000000180043a6c f   libucrt:atox.obj
 0001:00042a98       ??$?RV<lambda_c36588078e9f5dfd39652860aa6b3aaf>@@AEAV<lambda_ec61778202f4f5fc7e7711acc23c3bca>@@V<lambda_dc9d2797ccde5d239b4a0efae8ebd7db>@@@?$__crt_seh_guarded_call@P6AXH@Z@@QEAAP6AXH@Z$$QEAV<lambda_c36588078e9f5dfd39652860aa6b3aaf>@@AEAV<lambda_ec61778202f4f5fc7e7711acc23c3bca>@@$$QEAV<lambda_dc9d2797ccde5d239b4a0efae8ebd7db>@@@Z 0000000180043a98 f i libucrt:signal.obj
 0001:00042ae0       __acrt_get_sigabrt_handler 0000000180043ae0 f   libucrt:signal.obj
 0001:00042b10       __acrt_initialize_signal_handlers 0000000180043b10 f   libucrt:signal.obj
 0001:00042b30       raise                      0000000180043b30 f   libucrt:signal.obj
 0001:00042dcc       ??$?RV<lambda_46352004c1216016012b18bd6f87e700>@@AEAV<lambda_3bd07e1a1191394380780325891bf33f>@@V<lambda_334532d3f185bcaa59b5be82d7d22bff>@@@?$__crt_seh_guarded_call@X@@QEAAX$$QEAV<lambda_46352004c1216016012b18bd6f87e700>@@AEAV<lambda_3bd07e1a1191394380780325891bf33f>@@$$QEAV<lambda_334532d3f185bcaa59b5be82d7d22bff>@@@Z 0000000180043dcc f i libucrt:per_thread_data.obj
 0001:00042e2c       ??$?RV<lambda_5e887d1dcbef67a5eb4283622ba103bf>@@AEAV<lambda_4466841279450cc726390878d4a41900>@@V<lambda_341c25c0346d94847f1f3c463c57e077>@@@?$__crt_seh_guarded_call@X@@QEAAX$$QEAV<lambda_5e887d1dcbef67a5eb4283622ba103bf>@@AEAV<lambda_4466841279450cc726390878d4a41900>@@$$QEAV<lambda_341c25c0346d94847f1f3c463c57e077>@@@Z 0000000180043e2c f i libucrt:per_thread_data.obj
 0001:00042e74       ??$?RV<lambda_72d1df2b273a38828b1ce30cbf4cdab5>@@AEAV<lambda_876a65b173b8412d3a47c70a915b0cf4>@@V<lambda_41932305e351933ebe8f8be3ed8bb5dc>@@@?$__crt_seh_guarded_call@X@@QEAAX$$QEAV<lambda_72d1df2b273a38828b1ce30cbf4cdab5>@@AEAV<lambda_876a65b173b8412d3a47c70a915b0cf4>@@$$QEAV<lambda_41932305e351933ebe8f8be3ed8bb5dc>@@@Z 0000000180043e74 f i libucrt:per_thread_data.obj
 0001:00042eb4       ??$?RV<lambda_fb3a7dec4e47f37f22dae91bb15c9095>@@AEAV<lambda_698284760c8add0bfb0756c19673e34b>@@V<lambda_dfb8eca1e75fef3034a8fb18dd509707>@@@?$__crt_seh_guarded_call@X@@QEAAX$$QEAV<lambda_fb3a7dec4e47f37f22dae91bb15c9095>@@AEAV<lambda_698284760c8add0bfb0756c19673e34b>@@$$QEAV<lambda_dfb8eca1e75fef3034a8fb18dd509707>@@@Z 0000000180043eb4 f i libucrt:per_thread_data.obj
 0001:00043144       __acrt_freeptd             0000000180044144 f   libucrt:per_thread_data.obj
 0001:00043188       __acrt_getptd              0000000180044188 f   libucrt:per_thread_data.obj
 0001:0004321c       __acrt_getptd_noexit       000000018004421c f   libucrt:per_thread_data.obj
 0001:000432bc       __acrt_initialize_ptd      00000001800442bc f   libucrt:per_thread_data.obj
 0001:000432f8       __acrt_uninitialize_ptd    00000001800442f8 f   libucrt:per_thread_data.obj
 0001:0004331c       strtol                     000000018004431c f   libucrt:strtox.obj
 0001:0004334c       wcstol                     000000018004434c f   libucrt:strtox.obj
 0001:0004337c       _mbtowc_l                  000000018004437c f   libucrt:mbtowc.obj
 0001:000434c4       mbtowc                     00000001800444c4 f   libucrt:mbtowc.obj
 0001:000434cc       _wctomb_s_l                00000001800444cc f   libucrt:wctomb.obj
 0001:00043650       wctomb_s                   0000000180044650 f   libucrt:wctomb.obj
 0001:00043664       __acrt_update_locale_info  0000000180044664 f   libucrt:locale_update.obj
 0001:00043698       __acrt_update_multibyte_info 0000000180044698 f   libucrt:locale_update.obj
 0001:000436cc       ?__acrt_fp_classify@@YA?AW4__acrt_fp_class@@AEBN@Z 00000001800446cc f i libucrt:cvt.obj
 0001:00044104       __acrt_fp_format           0000000180045104 f   libucrt:cvt.obj
 0001:00044348       _fputwc_nolock             0000000180045348 f   libucrt:fputwc.obj
 0001:000444c4       _fileno                    00000001800454c4 f   libucrt:fileno.obj
 0001:000444ec       __acrt_initialize_stdio    00000001800454ec f   libucrt:_file.obj
 0001:0004460c       __acrt_iob_func            000000018004560c f   libucrt:_file.obj
 0001:00044620       __acrt_uninitialize_stdio  0000000180045620 f   libucrt:_file.obj
 0001:0004467c       _lock_file                 000000018004567c f   libucrt:_file.obj
 0001:00044688       _unlock_file               0000000180045688 f   libucrt:_file.obj
 0001:00044694       _fputc_nolock              0000000180045694 f   libucrt:fputc.obj
 0001:000446ac       _get_printf_count_output   00000001800456ac f   libucrt:printf_count_output.obj
 0001:000446c4       __acrt_stdio_begin_temporary_buffering_nolock 00000001800456c4 f   libucrt:_sftbuf.obj
 0001:00044794       __acrt_stdio_end_temporary_buffering_nolock 0000000180045794 f   libucrt:_sftbuf.obj
 0001:000447d0       ??$?RV<lambda_5df02c53a8f32f81fd64e5bbb78039f1>@@AEAV<lambda_2af78c5f5901b1372d98f9ab3177dfa6>@@AEAV<lambda_f51fe5fd7c79a33db34fc9310f277369>@@@?$__crt_seh_guarded_call@X@@QEAAX$$QEAV<lambda_5df02c53a8f32f81fd64e5bbb78039f1>@@AEAV<lambda_2af78c5f5901b1372d98f9ab3177dfa6>@@AEAV<lambda_f51fe5fd7c79a33db34fc9310f277369>@@@Z 00000001800457d0 f i libucrt:wsetlocale.obj
 0001:000447fc       ??$?RV<lambda_d67e8342c384adda8f857579ab50b2ae>@@AEAV<lambda_30712929f77e709619002f448b6a9510>@@V<lambda_4525336fd7e478d965fb7ca7a337cad8>@@@?$__crt_seh_guarded_call@X@@QEAAX$$QEAV<lambda_d67e8342c384adda8f857579ab50b2ae>@@AEAV<lambda_30712929f77e709619002f448b6a9510>@@$$QEAV<lambda_4525336fd7e478d965fb7ca7a337cad8>@@@Z 00000001800457fc f i libucrt:wsetlocale.obj
 0001:000449c8       __acrt_copy_locale_name    00000001800459c8 f   libucrt:wsetlocale.obj
 0001:00044a4c       __acrt_set_locale_changed  0000000180045a4c f   libucrt:wsetlocale.obj
 0001:00044a58       __acrt_uninitialize_locale 0000000180045a58 f   libucrt:wsetlocale.obj
 0001:00044aa0       __lc_lctowcs               0000000180045aa0 f   libucrt:wsetlocale.obj
 0001:00044b44       __lc_wcstolc               0000000180045b44 f   libucrt:wsetlocale.obj
 0001:00044dbc       _expandlocale              0000000180045dbc f   libucrt:wsetlocale.obj
 0001:000451b8       _wcscats                   00000001800461b8 f   libucrt:wsetlocale.obj
 0001:00045220       _wsetlocale                0000000180046220 f   libucrt:wsetlocale.obj
 0001:00045c54       __acrt_initialize_lowio    0000000180046c54 f   libucrt:ioinit.obj
 0001:00045c90       __acrt_uninitialize_lowio  0000000180046c90 f   libucrt:ioinit.obj
 0001:00045cd0       _dsign                     0000000180046cd0 f   libucrt:nan.obj
 0001:00045ce8       _errcode                   0000000180046ce8 f   libucrt:fpexcept.obj
 0001:00045d2c       _except1                   0000000180046d2c f   libucrt:fpexcept.obj
 0001:00045e20       _handle_exc                0000000180046e20 f   libucrt:fpexcept.obj
 0001:00046088       _raise_exc                 0000000180047088 f   libucrt:fpexcept.obj
 0001:000460b0       _raise_exc_ex              00000001800470b0 f   libucrt:fpexcept.obj
 0001:000463b8       _raise_excf                00000001800473b8 f   libucrt:fpexcept.obj
 0001:000463e4       _set_errno_from_matherr    00000001800473e4 f   libucrt:fpexcept.obj
 0001:00046414       _umatherr                  0000000180047414 f   libucrt:fpexcept.obj
 0001:000464e8       _decomp                    00000001800474e8 f   libucrt:util.obj
 0001:0004661c       _sptype                    000000018004761c f   libucrt:util.obj
 0001:00046690       _clrfp                     0000000180047690 f   libucrt:fpctrl.obj
 0001:000466b0       _ctrlfp                    00000001800476b0 f   libucrt:fpctrl.obj
 0001:0004672c       _set_statfp                000000018004772c f   libucrt:fpctrl.obj
 0001:0004674c       _statfp                    000000018004774c f   libucrt:fpctrl.obj
 0001:00046760       _query_app_type            0000000180047760 f   libucrt:report_runtime_error.obj
 0001:00046890       _itow_s                    0000000180047890 f   libucrt:xtoa.obj
 0001:000468b0       _set_error_mode            00000001800478b0 f   libucrt:set_error_mode.obj
 0001:000468f0       wcscat_s                   00000001800478f0 f   libucrt:wcscat_s.obj
 0001:00046970       wcsncat_s                  0000000180047970 f   libucrt:wcsncat_s.obj
 0001:00046a98       __acrt_show_wide_message_box 0000000180047a98 f   libucrt:crtmbox.obj
 0001:00046bb4       __acrt_stdio_flush_nolock  0000000180047bb4 f   libucrt:fflush.obj
 0001:00046c2c       _fflush_nolock             0000000180047c2c f   libucrt:fflush.obj
 0001:00046c78       _flushall                  0000000180047c78 f   libucrt:fflush.obj
 0001:00046d68       fflush                     0000000180047d68 f   libucrt:fflush.obj
 0001:00046dac       ??$?RV<lambda_7a5ef57ff966f610505f1d28a3d40618>@@AEAV<lambda_b721fa326cdb32351d23dfa67958c160>@@V<lambda_5e0fb27672408a07956fe59e48ccb2aa>@@@?$__crt_seh_guarded_call@H@@QEAAH$$QEAV<lambda_7a5ef57ff966f610505f1d28a3d40618>@@AEAV<lambda_b721fa326cdb32351d23dfa67958c160>@@$$QEAV<lambda_5e0fb27672408a07956fe59e48ccb2aa>@@@Z 0000000180047dac f i libucrt:setvbuf.obj
 0001:00046edc       setvbuf                    0000000180047edc f   libucrt:setvbuf.obj
 0001:00046fc0       ??$?RV<lambda_630b2aca97f6d20d5b5ea6529ea6b6af>@@AEAV<lambda_af91936f1d075d609f72d9d8cba980af>@@V<lambda_e82fa975f615b5c7c7b0e4d178fdae67>@@@?$__crt_seh_guarded_call@H@@QEAAH$$QEAV<lambda_630b2aca97f6d20d5b5ea6529ea6b6af>@@AEAV<lambda_af91936f1d075d609f72d9d8cba980af>@@$$QEAV<lambda_e82fa975f615b5c7c7b0e4d178fdae67>@@@Z 0000000180047fc0 f i libucrt:winapi_thunks.obj
 0001:000471f8       __acrt_EnumSystemLocalesEx 00000001800481f8 f   libucrt:winapi_thunks.obj
 0001:000472a0       __acrt_FlsAlloc            00000001800482a0 f   libucrt:winapi_thunks.obj
 0001:000472f8       __acrt_FlsFree             00000001800482f8 f   libucrt:winapi_thunks.obj
 0001:00047350       __acrt_FlsGetValue         0000000180048350 f   libucrt:winapi_thunks.obj
 0001:000473a8       __acrt_FlsSetValue         00000001800483a8 f   libucrt:winapi_thunks.obj
 0001:00047410       __acrt_GetLocaleInfoEx     0000000180048410 f   libucrt:winapi_thunks.obj
 0001:000474a8       __acrt_GetUserDefaultLocaleName 00000001800484a8 f   libucrt:winapi_thunks.obj
 0001:0004751c       __acrt_InitializeCriticalSectionEx 000000018004851c f   libucrt:winapi_thunks.obj
 0001:00047594       __acrt_IsValidLocaleName   0000000180048594 f   libucrt:winapi_thunks.obj
 0001:000475fc       __acrt_LCIDToLocaleName    00000001800485fc f   libucrt:winapi_thunks.obj
 0001:00047688       __acrt_LCMapStringEx       0000000180048688 f   libucrt:winapi_thunks.obj
 0001:00047778       __acrt_LocaleNameToLCID    0000000180048778 f   libucrt:winapi_thunks.obj
 0001:000477e0       __acrt_MessageBoxW         00000001800487e0 f   libucrt:winapi_thunks.obj
 0001:00047868       __acrt_can_show_message_box 0000000180048868 f   libucrt:winapi_thunks.obj
 0001:000478c4       __acrt_can_use_vista_locale_apis 00000001800488c4 f   libucrt:winapi_thunks.obj
 0001:000478f4       __acrt_get_parent_window   00000001800488f4 f   libucrt:winapi_thunks.obj
 0001:00047984       __acrt_initialize_winapi_thunks 0000000180048984 f   libucrt:winapi_thunks.obj
 0001:000479bc       __acrt_is_interactive      00000001800489bc f   libucrt:winapi_thunks.obj
 0001:00047a90       __acrt_is_packaged_app     0000000180048a90 f   libucrt:winapi_thunks.obj
 0001:00047b18       __acrt_uninitialize_winapi_thunks 0000000180048b18 f   libucrt:winapi_thunks.obj
 0001:00047d38       _mbstowcs_s_l              0000000180048d38 f   libucrt:mbstowcs.obj
 0001:00047e68       mbstowcs_s                 0000000180048e68 f   libucrt:mbstowcs.obj
 0001:000481bc       _wcstombs_s_l              00000001800491bc f   libucrt:wcstombs.obj
 0001:000482a8       _query_new_mode            00000001800492a8 f   libucrt:new_mode.obj
 0001:000482b0       __acrt_initialize_heap     00000001800492b0 f   libucrt:heap_handle.obj
 0001:000482cc       __acrt_uninitialize_heap   00000001800492cc f   libucrt:heap_handle.obj
 0001:000482d8       _isctype_l                 00000001800492d8 f   libucrt:isctype.obj
 0001:00048588       __acrt_GetLocaleInfoA      0000000180049588 f   libucrt:getlocaleinfoa.obj
 0001:00048750       __acrt_GetStringTypeA      0000000180049750 f   libucrt:getstringtypea.obj
 0001:00048c60       __acrt_LCMapStringA        0000000180049c60 f   libucrt:lcmapstringa.obj
 0001:00048cf8       iswctype                   0000000180049cf8 f   libucrt:iswctype.obj
 0001:00048d70       __acrt_initialize_fma3     0000000180049d70 f   libucrt:fma3_available.obj
 0001:00048de0       _pow_special               0000000180049de0 f   libucrt:pow_special.obj
 0001:00048f04       _powf_special              0000000180049f04 f   libucrt:pow_special.obj
 0001:00049090       _wcsicmp                   000000018004a090 f   libucrt:wcsicmp.obj
 0001:00049118       _wcsicmp_l                 000000018004a118 f   libucrt:wcsicmp.obj
 0001:00049208       __acrt_initialize_timeset  000000018004a208 f   libucrt:timeset.obj
 0001:00049238       _isleadbyte_l              000000018004a238 f i libucrt:_wctype.obj
 0001:00049754       ?expand_if_necessary@?$argument_list@D@?A0xca0879c4@@AEAAHXZ 000000018004a754 f i libucrt:argv_wildcards.obj
 0001:0004981c       __acrt_expand_narrow_argv_wildcards 000000018004a81c f   libucrt:argv_wildcards.obj
 0001:00049824       ??$?RV<lambda_99476a1ad63dd22509b5d3e65b0ffc95>@@AEAV<lambda_ad1ced32f4ac17aa236e5ef05d6b3b7c>@@V<lambda_f7424dd8d45958661754dc4f2697e9c3>@@@?$__crt_seh_guarded_call@X@@QEAAX$$QEAV<lambda_99476a1ad63dd22509b5d3e65b0ffc95>@@AEAV<lambda_ad1ced32f4ac17aa236e5ef05d6b3b7c>@@$$QEAV<lambda_f7424dd8d45958661754dc4f2697e9c3>@@@Z 000000018004a824 f i libucrt:mbctype.obj
 0001:00049f20       __acrt_initialize_multibyte 000000018004af20 f   libucrt:mbctype.obj
 0001:00049f48       __acrt_update_thread_multibyte_data 000000018004af48 f   libucrt:mbctype.obj
 0001:0004a008       _setmbcp_nolock            000000018004b008 f   libucrt:mbctype.obj
 0001:0004a2b0       __acrt_initialize_command_line 000000018004b2b0 f   libucrt:argv_data.obj
 0001:0004a2d8       __dcrt_get_narrow_environment_from_os 000000018004b2d8 f   libucrt:get_environment_from_os.obj
 0001:0004a3dc       _recalloc                  000000018004b3dc f   libucrt:recalloc.obj
 0001:0004a3e4       _recalloc_base             000000018004b3e4 f   libucrt:recalloc.obj
 0001:0004a47c       __acrt_execute_initializers 000000018004b47c f   libucrt:shared_initialization.obj
 0001:0004a510       __acrt_execute_uninitializers 000000018004b510 f   libucrt:shared_initialization.obj
 0001:0004a560       __acrt_has_user_matherr    000000018004b560 f   libucrt:matherr.obj
 0001:0004a580       __acrt_initialize_user_matherr 000000018004b580 f   libucrt:matherr.obj
 0001:0004a588       __acrt_invoke_user_matherr 000000018004b588 f   libucrt:matherr.obj
 0001:0004a5d0       __acrt_add_locale_ref      000000018004b5d0 f   libucrt:locale_refcounting.obj
 0001:0004a65c       __acrt_free_locale         000000018004b65c f   libucrt:locale_refcounting.obj
 0001:0004a7d4       __acrt_locale_add_lc_time_reference 000000018004b7d4 f   libucrt:locale_refcounting.obj
 0001:0004a7fc       __acrt_locale_free_lc_time_if_unreferenced 000000018004b7fc f   libucrt:locale_refcounting.obj
 0001:0004a834       __acrt_locale_release_lc_time_reference 000000018004b834 f   libucrt:locale_refcounting.obj
 0001:0004a85c       __acrt_release_locale_ref  000000018004b85c f   libucrt:locale_refcounting.obj
 0001:0004a904       __acrt_update_thread_locale_data 000000018004b904 f   libucrt:locale_refcounting.obj
 0001:0004a974       _updatetlocinfoEx_nolock   000000018004b974 f   libucrt:locale_refcounting.obj
 0001:0004a9dc       __acrt_fp_strflt_to_string 000000018004b9dc f   libucrt:_fptostr.obj
 0001:0004aa9c       __acrt_fltout              000000018004ba9c f   libucrt:cfout.obj
 0001:0004c018       __acrt_stdio_flush_and_write_narrow_nolock 000000018004d018 f   libucrt:_flsbuf.obj
 0001:0004c100       __acrt_stdio_flush_and_write_wide_nolock 000000018004d100 f   libucrt:_flsbuf.obj
 0001:0004c1ec       _fcloseall                 000000018004d1ec f   libucrt:closeall.obj
 0001:0004c2a0       __acrt_stdio_free_buffer_nolock 000000018004d2a0 f   libucrt:_freebuf.obj
 0001:0004c2e0       _isatty                    000000018004d2e0 f   libucrt:isatty.obj
 0001:0004c340       __acrt_locale_free_monetary 000000018004d340 f   libucrt:initmon.obj
 0001:0004c44c       __acrt_locale_initialize_monetary 000000018004d44c f   libucrt:initmon.obj
 0001:0004c984       __acrt_locale_free_numeric 000000018004d984 f   libucrt:initnum.obj
 0001:0004c9f0       __acrt_locale_initialize_numeric 000000018004d9f0 f   libucrt:initnum.obj
 0001:0004d074       __acrt_locale_free_time    000000018004e074 f   libucrt:inittime.obj
 0001:0004d17c       __acrt_locale_initialize_time 000000018004e17c f   libucrt:inittime.obj
 0001:0004d210       wcsncpy_s                  000000018004e210 f   libucrt:wcsncpy_s.obj
 0001:0004d2f4       wcscspn                    000000018004e2f4 f   libucrt:wcscspn.obj
 0001:0004d334       wcsncmp                    000000018004e334 f   libucrt:wcsncmp.obj
 0001:0004d360       wcspbrk                    000000018004e360 f   libucrt:wcspbrk.obj
 0001:0004dc04       __acrt_get_qualified_locale 000000018004ec04 f   libucrt:get_qualified_locale.obj
 0001:0004e5f0       __acrt_get_qualified_locale_downlevel 000000018004f5f0 f   libucrt:getqloc_downlevel.obj
 0001:0004e880       __acrt_lowio_create_handle_array 000000018004f880 f   libucrt:osfinfo.obj
 0001:0004e918       __acrt_lowio_destroy_handle_array 000000018004f918 f   libucrt:osfinfo.obj
 0001:0004e968       __acrt_lowio_ensure_fh_exists 000000018004f968 f   libucrt:osfinfo.obj
 0001:0004ea20       __acrt_lowio_lock_fh       000000018004fa20 f   libucrt:osfinfo.obj
 0001:0004ea44       __acrt_lowio_unlock_fh     000000018004fa44 f   libucrt:osfinfo.obj
 0001:0004ea68       _free_osfhnd               000000018004fa68 f   libucrt:osfinfo.obj
 0001:0004eb24       _get_osfhandle             000000018004fb24 f   libucrt:osfinfo.obj
 0001:0004ebb0       _get_fpsr                  000000018004fbb0 f   libucrt:fpsr.obj
 0001:0004ebc0       _set_fpsr                  000000018004fbc0 f   libucrt:fpsr.obj
 0001:0004ebca       _fclrf                     000000018004fbca f   libucrt:fpsr.obj
 0001:0004ebde       _frnd                      000000018004fbde f   libucrt:fpsr.obj
 0001:0004ec00       ??$?RV<lambda_b521505b218e5242e90febf6bfebc422>@@AEAV<lambda_6978c1fb23f02e42e1d9e99668cc68aa>@@V<lambda_314360699dd331753a4119843814e9a7>@@@?$__crt_seh_guarded_call@H@@QEAAH$$QEAV<lambda_b521505b218e5242e90febf6bfebc422>@@AEAV<lambda_6978c1fb23f02e42e1d9e99668cc68aa>@@$$QEAV<lambda_314360699dd331753a4119843814e9a7>@@@Z 000000018004fc00 f i libucrt:commit.obj
 0001:0004ec8c       _commit                    000000018004fc8c f   libucrt:commit.obj
 0001:0004f2c0       _write                     00000001800502c0 f   libucrt:write.obj
 0001:0004f3ac       _write_nolock              00000001800503ac f   libucrt:write.obj
 0001:0004f758       __acrt_DownlevelLCIDToLocaleName 0000000180050758 f   libucrt:lcidtoname_downlevel.obj
 0001:0004f83c       __acrt_DownlevelLocaleNameToLCID 000000018005083c f   libucrt:lcidtoname_downlevel.obj
 0001:0004f870       strncpy_s                  0000000180050870 f   libucrt:strncpy_s.obj
 0001:0004f944       _getfpcontrolword          0000000180050944 f   libucrt:_fenvutils.obj
 0001:0004f95c       _getfpstatusword           000000018005095c f   libucrt:_fenvutils.obj
 0001:0004f970       _setfpcontrolword          0000000180050970 f   libucrt:_fenvutils.obj
 0001:0004f97c       _setfpstatusword           000000018005097c f   libucrt:_fenvutils.obj
 0001:0004faf0       _handle_error              0000000180050af0 f   libucrt:libm_error.obj
 0001:0004fc18       _handle_errorf             0000000180050c18 f   libucrt:libm_error.obj
 0001:0004fd4c       _handle_nan                0000000180050d4c f   libucrt:libm_error.obj
 0001:0004fd68       _handle_nanf               0000000180050d68 f   libucrt:libm_error.obj
 0001:0004fd78       _towlower_l                0000000180050d78 f   libucrt:towlower.obj
 0001:0004ff10       qsort                      0000000180050f10 f   libucrt:qsort.obj
 0001:00050244       strpbrk                    0000000180051244 f   libucrt:strpbrk.obj
 0001:000502e4       _mbsdec                    00000001800512e4 f   libucrt:mbsdec.obj
 0001:000502ec       _mbsdec_l                  00000001800512ec f   libucrt:mbsdec.obj
 0001:0005039c       _msize                     000000018005139c f   libucrt:msize.obj
 0001:000503d8       fegetenv                   00000001800513d8 f   libucrt:fegetenv.obj
 0001:000503f8       fesetenv                   00000001800513f8 f   libucrt:fesetenv.obj
 0001:00050444       feholdexcept               0000000180051444 f   libucrt:feholdexcept.obj
 0001:00050494       ceil                       0000000180051494 f   libucrt:ceil.obj
 0001:00050560       log10                      0000000180051560 f   libucrt:log10.obj
 0001:00050c98       _lseeki64                  0000000180051c98 f   libucrt:lseek.obj
 0001:00050ca0       _lseeki64_nolock           0000000180051ca0 f   libucrt:lseek.obj
 0001:00050ca8       __acrt_stdio_allocate_buffer_nolock 0000000180051ca8 f   libucrt:_getbuf.obj
 0001:00050d0c       _fclose_nolock             0000000180051d0c f   libucrt:fclose.obj
 0001:00050d90       fclose                     0000000180051d90 f   libucrt:fclose.obj
 0001:00050dfc       _wcsnicmp                  0000000180051dfc f   libucrt:wcsnicmp.obj
 0001:00050e98       _wcsnicmp_l                0000000180051e98 f   libucrt:wcsnicmp.obj
 0001:00050fb0       wcscmp                     0000000180051fb0 f   libucrt:wcscmp.obj
 0001:00050fe8       _putwch_nolock             0000000180051fe8 f   libucrt:putwch.obj
 0001:00051044       _clearfp                   0000000180052044 f   libucrt:ieee.obj
 0001:00051098       _controlfp                 0000000180052098 f   libucrt:ieee.obj
 0001:000510a4       _statusfp                  00000001800520a4 f   libucrt:ieee.obj
 0001:00051384       __acrt_LCMapStringW        0000000180052384 f   libucrt:lcmapstringw.obj
 0001:00051410       _log10_special             0000000180052410 f   libucrt:log_special.obj
 0001:000514c8       ??$?RV<lambda_bfedae4ebbf01fab1bb6dcc6a9e276e0>@@AEAV<lambda_2fe9b910cf3cbf4a0ab98a02ba45b3ec>@@V<lambda_237c231691f317818eb88cc1d5d642d6>@@@?$__crt_seh_guarded_call@H@@QEAAH$$QEAV<lambda_bfedae4ebbf01fab1bb6dcc6a9e276e0>@@AEAV<lambda_2fe9b910cf3cbf4a0ab98a02ba45b3ec>@@$$QEAV<lambda_237c231691f317818eb88cc1d5d642d6>@@@Z 00000001800524c8 f i libucrt:close.obj
 0001:0005153c       _close                     000000018005253c f   libucrt:close.obj
 0001:000515e0       _close_nolock              00000001800525e0 f   libucrt:close.obj
 0001:0005169c       ?__acrt_stdio_free_stream@@YAXV__crt_stdio_stream@@@Z 000000018005269c f   libucrt:stream.obj
 0001:000516e0       __dcrt_lowio_initialize_console_output 00000001800526e0 f   libucrt:initcon.obj
 0001:0005171c       __dcrt_terminate_console_output 000000018005271c f   libucrt:initcon.obj
 0001:0005173c       IsProcessorFeaturePresent  000000018005273c f   kernel32:KERNEL32.dll
 0001:00051742       RtlUnwindEx                0000000180052742 f   kernel32:KERNEL32.dll
 0001:00051748       ?DloadAcquireSectionWriteAccess@@YAXXZ 0000000180052748 f i DelayImp:delayhlp.obj
 0001:00051804       ?DloadGetSRWLockFunctionPointers@@YAEXZ 0000000180052804 f i DelayImp:delayhlp.obj
 0001:000518a0       ?DloadMakePermanentImageCommit@@YAXPEAX_K@Z 00000001800528a0 f i DelayImp:delayhlp.obj
 0001:00051938       ?DloadObtainSection@@YAPEAXPEAK0@Z 0000000180052938 f i DelayImp:delayhlp.obj
 0001:000519d0       ?DloadProtectSection@@YAXKPEAK@Z 00000001800529d0 f i DelayImp:delayhlp.obj
 0001:00051a60       ?DloadReleaseSectionWriteAccess@@YAXXZ 0000000180052a60 f i DelayImp:delayhlp.obj
 0001:00051b04       __delayLoadHelper2         0000000180052b04 f   DelayImp:delayhlp.obj
 0001:00051e00       _FindPESection             0000000180052e00 f   LIBCMT:pesect.obj
 0001:00051e50       _IsNonwritableInCurrentImage 0000000180052e50 f   LIBCMT:pesect.obj
 0001:00051ea0       _ValidateImageBase         0000000180052ea0 f   LIBCMT:pesect.obj
 0001:00051ed0       strrchr                    0000000180052ed0 f   libvcruntime:strrchr.obj
 0001:00052010       wcschr                     0000000180053010 f   libvcruntime:wcschr.obj
 0001:000520c0       _guard_dispatch_icall_nop  00000001800530c0 f   LIBCMT:_guard_dispatch_.obj
 0001:000524c0       ??__F_Static@?1???$_Immortalize@V_Iostream_error_category@std@@@std@@YAAEAV_Iostream_error_category@0@XZ@YAXXZ 00000001800534c0 f i crypto_aead.obj
 0002:00000000       __imp_GetModuleHandleA     0000000180054000     kernel32:KERNEL32.dll
 0002:00000008       __imp_VirtualQuery         0000000180054008     kernel32:KERNEL32.dll
 0002:00000010       __imp_VirtualProtect       0000000180054010     kernel32:KERNEL32.dll
 0002:00000018       __imp_GetSystemInfo        0000000180054018     kernel32:KERNEL32.dll
 0002:00000020       __imp_CreateFileW          0000000180054020     kernel32:KERNEL32.dll
 0002:00000028       __imp_SetFilePointerEx     0000000180054028     kernel32:KERNEL32.dll
 0002:00000030       __imp_HeapSize             0000000180054030     kernel32:KERNEL32.dll
 0002:00000038       __imp_GetConsoleMode       0000000180054038     kernel32:KERNEL32.dll
 0002:00000040       __imp_GetConsoleCP         0000000180054040     kernel32:KERNEL32.dll
 0002:00000048       __imp_FlushFileBuffers     0000000180054048     kernel32:KERNEL32.dll
 0002:00000050       __imp_SetStdHandle         0000000180054050     kernel32:KERNEL32.dll
 0002:00000058       __imp_FreeEnvironmentStringsW 0000000180054058     kernel32:KERNEL32.dll
 0002:00000060       __imp_GetEnvironmentStringsW 0000000180054060     kernel32:KERNEL32.dll
 0002:00000068       __imp_GetCommandLineW      0000000180054068     kernel32:KERNEL32.dll
 0002:00000070       __imp_GetCommandLineA      0000000180054070     kernel32:KERNEL32.dll
 0002:00000078       __imp_GetOEMCP             0000000180054078     kernel32:KERNEL32.dll
 0002:00000080       __imp_IsValidCodePage      0000000180054080     kernel32:KERNEL32.dll
 0002:00000088       __imp_FindNextFileA        0000000180054088     kernel32:KERNEL32.dll
 0002:00000090       __imp_FindFirstFileExA     0000000180054090     kernel32:KERNEL32.dll
 0002:00000098       __imp_FindClose            0000000180054098     kernel32:KERNEL32.dll
 0002:000000a0       __imp_GetProcessHeap       00000001800540a0     kernel32:KERNEL32.dll
 0002:000000a8       __imp_EnumSystemLocalesW   00000001800540a8     kernel32:KERNEL32.dll
 0002:000000b0       __imp_GetUserDefaultLCID   00000001800540b0     kernel32:KERNEL32.dll
 0002:000000b8       __imp_IsValidLocale        00000001800540b8     kernel32:KERNEL32.dll
 0002:000000c0       __imp_CreateThread         00000001800540c0     kernel32:KERNEL32.dll
 0002:000000c8       __imp_OutputDebugStringW   00000001800540c8     kernel32:KERNEL32.dll
 0002:000000d0       __imp_WriteFile            00000001800540d0     kernel32:KERNEL32.dll
 0002:000000d8       __imp_GetACP               00000001800540d8     kernel32:KERNEL32.dll
 0002:000000e0       __imp_ExitProcess          00000001800540e0     kernel32:KERNEL32.dll
 0002:000000e8       __imp_HeapFree             00000001800540e8     kernel32:KERNEL32.dll
 0002:000000f0       __imp_HeapReAlloc          00000001800540f0     kernel32:KERNEL32.dll
 0002:000000f8       __imp_HeapAlloc            00000001800540f8     kernel32:KERNEL32.dll
 0002:00000100       __imp_WriteConsoleW        0000000180054100     kernel32:KERNEL32.dll
 0002:00000108       __imp_GetModuleHandleExW   0000000180054108     kernel32:KERNEL32.dll
 0002:00000110       __imp_GetModuleFileNameW   0000000180054110     kernel32:KERNEL32.dll
 0002:00000118       __imp_GetModuleFileNameA   0000000180054118     kernel32:KERNEL32.dll
 0002:00000120       __imp_GetFileType          0000000180054120     kernel32:KERNEL32.dll
 0002:00000128       __imp_GetStdHandle         0000000180054128     kernel32:KERNEL32.dll
 0002:00000130       __imp_InterlockedFlushSList 0000000180054130     kernel32:KERNEL32.dll
 0002:00000138       __imp_LoadLibraryExW       0000000180054138     kernel32:KERNEL32.dll
 0002:00000140       __imp_FreeLibrary          0000000180054140     kernel32:KERNEL32.dll
 0002:00000148       __imp_GetLastError         0000000180054148     kernel32:KERNEL32.dll
 0002:00000150       __imp_RtlUnwindEx          0000000180054150     kernel32:KERNEL32.dll
 0002:00000158       __imp_RaiseException       0000000180054158     kernel32:KERNEL32.dll
 0002:00000160       __imp_RtlPcToFileHeader    0000000180054160     kernel32:KERNEL32.dll
 0002:00000168       __imp_InitializeSListHead  0000000180054168     kernel32:KERNEL32.dll
 0002:00000170       __imp_GetCurrentThreadId   0000000180054170     kernel32:KERNEL32.dll
 0002:00000178       __imp_GetCurrentProcessId  0000000180054178     kernel32:KERNEL32.dll
 0002:00000180       __imp_QueryPerformanceCounter 0000000180054180     kernel32:KERNEL32.dll
 0002:00000188       __imp_GetStartupInfoW      0000000180054188     kernel32:KERNEL32.dll
 0002:00000190       __imp_IsDebuggerPresent    0000000180054190     kernel32:KERNEL32.dll
 0002:00000198       __imp_IsProcessorFeaturePresent 0000000180054198     kernel32:KERNEL32.dll
 0002:000001a0       __imp_TerminateProcess     00000001800541a0     kernel32:KERNEL32.dll
 0002:000001a8       __imp_GetCurrentProcess    00000001800541a8     kernel32:KERNEL32.dll
 0002:000001b0       __imp_SetUnhandledExceptionFilter 00000001800541b0     kernel32:KERNEL32.dll
 0002:000001b8       __imp_UnhandledExceptionFilter 00000001800541b8     kernel32:KERNEL32.dll
 0002:000001c0       __imp_RtlVirtualUnwind     00000001800541c0     kernel32:KERNEL32.dll
 0002:000001c8       __imp_RtlLookupFunctionEntry 00000001800541c8     kernel32:KERNEL32.dll
 0002:000001d0       __imp_RtlCaptureContext    00000001800541d0     kernel32:KERNEL32.dll
 0002:000001d8       __imp_WaitForSingleObjectEx 00000001800541d8     kernel32:KERNEL32.dll
 0002:000001e0       __imp_ResetEvent           00000001800541e0     kernel32:KERNEL32.dll
 0002:000001e8       __imp_SetEvent             00000001800541e8     kernel32:KERNEL32.dll
 0002:000001f0       __imp_CloseHandle          00000001800541f0     kernel32:KERNEL32.dll
 0002:000001f8       __imp_GetCPInfo            00000001800541f8     kernel32:KERNEL32.dll
 0002:00000200       __imp_GetStringTypeW       0000000180054200     kernel32:KERNEL32.dll
 0002:00000208       __imp_GetLocaleInfoW       0000000180054208     kernel32:KERNEL32.dll
 0002:00000210       __imp_LCMapStringW         0000000180054210     kernel32:KERNEL32.dll
 0002:00000218       __imp_GetProcAddress       0000000180054218     kernel32:KERNEL32.dll
 0002:00000220       __imp_GetModuleHandleW     0000000180054220     kernel32:KERNEL32.dll
 0002:00000228       __imp_GetSystemTimeAsFileTime 0000000180054228     kernel32:KERNEL32.dll
 0002:00000230       __imp_TlsFree              0000000180054230     kernel32:KERNEL32.dll
 0002:00000238       __imp_TlsSetValue          0000000180054238     kernel32:KERNEL32.dll
 0002:00000240       __imp_TlsGetValue          0000000180054240     kernel32:KERNEL32.dll
 0002:00000248       __imp_TlsAlloc             0000000180054248     kernel32:KERNEL32.dll
 0002:00000250       __imp_CreateEventW         0000000180054250     kernel32:KERNEL32.dll
 0002:00000258       __imp_InitializeCriticalSectionAndSpinCount 0000000180054258     kernel32:KERNEL32.dll
 0002:00000260       __imp_SetLastError         0000000180054260     kernel32:KERNEL32.dll
 0002:00000268       __imp_MultiByteToWideChar  0000000180054268     kernel32:KERNEL32.dll
 0002:00000270       __imp_DecodePointer        0000000180054270     kernel32:KERNEL32.dll
 0002:00000278       __imp_EncodePointer        0000000180054278     kernel32:KERNEL32.dll
 0002:00000280       __imp_DeleteCriticalSection 0000000180054280     kernel32:KERNEL32.dll
 0002:00000288       __imp_LeaveCriticalSection 0000000180054288     kernel32:KERNEL32.dll
 0002:00000290       __imp_EnterCriticalSection 0000000180054290     kernel32:KERNEL32.dll
 0002:00000298       __imp_WideCharToMultiByte  0000000180054298     kernel32:KERNEL32.dll
 0002:000002a0       __imp_LoadLibraryExA       00000001800542a0     kernel32:KERNEL32.dll
 0002:000002a8       \177KERNEL32_NULL_THUNK_DATA 00000001800542a8     kernel32:KERNEL32.dll
 0002:000002b0       __imp_crypto_stream_xsalsa20_xor_ic 00000001800542b0     libsodium:libsodium.dll
 0002:000002b8       __imp_crypto_stream_salsa208_xor 00000001800542b8     libsodium:libsodium.dll
 0002:000002c0       __imp_crypto_stream_chacha20 00000001800542c0     libsodium:libsodium.dll
 0002:000002c8       __imp_crypto_stream_xsalsa20_xor 00000001800542c8     libsodium:libsodium.dll
 0002:000002d0       __imp_crypto_stream_salsa20_xor_ic 00000001800542d0     libsodium:libsodium.dll
 0002:000002d8       __imp_crypto_stream_salsa2012_xor 00000001800542d8     libsodium:libsodium.dll
 0002:000002e0       __imp_crypto_stream_xsalsa20 00000001800542e0     libsodium:libsodium.dll
 0002:000002e8       __imp_crypto_stream_salsa2012 00000001800542e8     libsodium:libsodium.dll
 0002:000002f0       __imp_crypto_stream_salsa208 00000001800542f0     libsodium:libsodium.dll
 0002:000002f8       __imp_crypto_stream_chacha20_xor 00000001800542f8     libsodium:libsodium.dll
 0002:00000300       __imp_crypto_stream_chacha20_ietf_xor_ic 0000000180054300     libsodium:libsodium.dll
 0002:00000308       __imp_crypto_stream_salsa20 0000000180054308     libsodium:libsodium.dll
 0002:00000310       __imp_crypto_stream_chacha20_ietf 0000000180054310     libsodium:libsodium.dll
 0002:00000318       __imp_crypto_stream_chacha20_xor_ic 0000000180054318     libsodium:libsodium.dll
 0002:00000320       __imp_crypto_verify_32     0000000180054320     libsodium:libsodium.dll
 0002:00000328       __imp_sodium_compare       0000000180054328     libsodium:libsodium.dll
 0002:00000330       __imp_sodium_library_version_major 0000000180054330     libsodium:libsodium.dll
 0002:00000338       __imp_sodium_increment     0000000180054338     libsodium:libsodium.dll
 0002:00000340       __imp_sodium_version_string 0000000180054340     libsodium:libsodium.dll
 0002:00000348       __imp_sodium_memcmp        0000000180054348     libsodium:libsodium.dll
 0002:00000350       __imp_crypto_verify_16     0000000180054350     libsodium:libsodium.dll
 0002:00000358       __imp_sodium_library_version_minor 0000000180054358     libsodium:libsodium.dll
 0002:00000360       __imp_sodium_add           0000000180054360     libsodium:libsodium.dll
 0002:00000368       __imp_crypto_verify_64     0000000180054368     libsodium:libsodium.dll
 0002:00000370       __imp_sodium_is_zero       0000000180054370     libsodium:libsodium.dll
 0002:00000378       __imp_randombytes_close    0000000180054378     libsodium:libsodium.dll
 0002:00000380       __imp_randombytes_buf      0000000180054380     libsodium:libsodium.dll
 0002:00000388       __imp_randombytes_buf_deterministic 0000000180054388     libsodium:libsodium.dll
 0002:00000390       __imp_randombytes_random   0000000180054390     libsodium:libsodium.dll
 0002:00000398       __imp_randombytes_uniform  0000000180054398     libsodium:libsodium.dll
 0002:000003a0       __imp_crypto_pwhash_scryptsalsa208sha256_ll 00000001800543a0     libsodium:libsodium.dll
 0002:000003a8       __imp_crypto_pwhash_scryptsalsa208sha256_str 00000001800543a8     libsodium:libsodium.dll
 0002:000003b0       __imp_crypto_pwhash_argon2i_str 00000001800543b0     libsodium:libsodium.dll
 0002:000003b8       __imp_crypto_pwhash_str_verify 00000001800543b8     libsodium:libsodium.dll
 0002:000003c0       __imp_crypto_stream_salsa20_xor 00000001800543c0     libsodium:libsodium.dll
 0002:000003c8       __imp_crypto_pwhash        00000001800543c8     libsodium:libsodium.dll
 0002:000003d0       __imp_crypto_pwhash_argon2i 00000001800543d0     libsodium:libsodium.dll
 0002:000003d8       __imp_crypto_pwhash_scryptsalsa208sha256_str_verify 00000001800543d8     libsodium:libsodium.dll
 0002:000003e0       __imp_crypto_pwhash_scryptsalsa208sha256 00000001800543e0     libsodium:libsodium.dll
 0002:000003e8       __imp_crypto_pwhash_str    00000001800543e8     libsodium:libsodium.dll
 0002:000003f0       __imp_crypto_hash          00000001800543f0     libsodium:libsodium.dll
 0002:000003f8       __imp_crypto_hash_sha256_update 00000001800543f8     libsodium:libsodium.dll
 0002:00000400       __imp_crypto_hash_sha256_statebytes 0000000180054400     libsodium:libsodium.dll
 0002:00000408       __imp_crypto_hash_sha256_init 0000000180054408     libsodium:libsodium.dll
 0002:00000410       __imp_crypto_hash_sha256   0000000180054410     libsodium:libsodium.dll
 0002:00000418       __imp_crypto_hash_sha256_final 0000000180054418     libsodium:libsodium.dll
 0002:00000420       __imp_crypto_hash_sha512_final 0000000180054420     libsodium:libsodium.dll
 0002:00000428       __imp_crypto_hash_sha512_update 0000000180054428     libsodium:libsodium.dll
 0002:00000430       __imp_crypto_hash_sha512_statebytes 0000000180054430     libsodium:libsodium.dll
 0002:00000438       __imp_crypto_hash_sha512   0000000180054438     libsodium:libsodium.dll
 0002:00000440       __imp_crypto_hash_sha512_init 0000000180054440     libsodium:libsodium.dll
 0002:00000448       __imp_crypto_shorthash     0000000180054448     libsodium:libsodium.dll
 0002:00000450       __imp_crypto_shorthash_siphash24 0000000180054450     libsodium:libsodium.dll
 0002:00000458       __imp_crypto_generichash_init 0000000180054458     libsodium:libsodium.dll
 0002:00000460       __imp_crypto_generichash   0000000180054460     libsodium:libsodium.dll
 0002:00000468       __imp_crypto_generichash_statebytes 0000000180054468     libsodium:libsodium.dll
 0002:00000470       __imp_crypto_generichash_update 0000000180054470     libsodium:libsodium.dll
 0002:00000478       __imp_crypto_generichash_final 0000000180054478     libsodium:libsodium.dll
 0002:00000480       __imp_crypto_generichash_blake2b_init 0000000180054480     libsodium:libsodium.dll
 0002:00000488       __imp_crypto_generichash_blake2b_update 0000000180054488     libsodium:libsodium.dll
 0002:00000490       __imp_crypto_generichash_blake2b 0000000180054490     libsodium:libsodium.dll
 0002:00000498       __imp_crypto_generichash_blake2b_final 0000000180054498     libsodium:libsodium.dll
 0002:000004a0       __imp_crypto_generichash_blake2b_statebytes 00000001800544a0     libsodium:libsodium.dll
 0002:000004a8       __imp_crypto_generichash_blake2b_salt_personal 00000001800544a8     libsodium:libsodium.dll
 0002:000004b0       __imp_crypto_onetimeauth_poly1305_verify 00000001800544b0     libsodium:libsodium.dll
 0002:000004b8       __imp_crypto_onetimeauth_poly1305_update 00000001800544b8     libsodium:libsodium.dll
 0002:000004c0       __imp_crypto_onetimeauth_poly1305_final 00000001800544c0     libsodium:libsodium.dll
 0002:000004c8       __imp_crypto_onetimeauth_poly1305_init 00000001800544c8     libsodium:libsodium.dll
 0002:000004d0       __imp_crypto_onetimeauth_poly1305 00000001800544d0     libsodium:libsodium.dll
 0002:000004d8       __imp_crypto_stream_chacha20_ietf_xor 00000001800544d8     libsodium:libsodium.dll
 0002:000004e0       __imp_randombytes_stir     00000001800544e0     libsodium:libsodium.dll
 0002:000004e8       __imp_sodium_init          00000001800544e8     libsodium:libsodium.dll
 0002:000004f0       __imp_crypto_secretbox_detached 00000001800544f0     libsodium:libsodium.dll
 0002:000004f8       __imp_crypto_secretbox_open_easy 00000001800544f8     libsodium:libsodium.dll
 0002:00000500       __imp_crypto_secretbox_easy 0000000180054500     libsodium:libsodium.dll
 0002:00000508       __imp_crypto_secretbox     0000000180054508     libsodium:libsodium.dll
 0002:00000510       __imp_crypto_secretbox_open_detached 0000000180054510     libsodium:libsodium.dll
 0002:00000518       __imp_crypto_secretbox_open 0000000180054518     libsodium:libsodium.dll
 0002:00000520       __imp_crypto_secretbox_xsalsa20poly1305_open 0000000180054520     libsodium:libsodium.dll
 0002:00000528       __imp_crypto_secretbox_xsalsa20poly1305 0000000180054528     libsodium:libsodium.dll
 0002:00000530       __imp_crypto_scalarmult_curve25519 0000000180054530     libsodium:libsodium.dll
 0002:00000538       __imp_crypto_scalarmult_curve25519_base 0000000180054538     libsodium:libsodium.dll
 0002:00000540       __imp_crypto_core_salsa20  0000000180054540     libsodium:libsodium.dll
 0002:00000548       __imp_crypto_core_hchacha20 0000000180054548     libsodium:libsodium.dll
 0002:00000550       __imp_crypto_core_salsa208 0000000180054550     libsodium:libsodium.dll
 0002:00000558       __imp_crypto_core_hsalsa20 0000000180054558     libsodium:libsodium.dll
 0002:00000560       __imp_crypto_core_salsa2012 0000000180054560     libsodium:libsodium.dll
 0002:00000568       __imp_crypto_auth_hmacsha512256_init 0000000180054568     libsodium:libsodium.dll
 0002:00000570       __imp_crypto_auth_hmacsha512256_statebytes 0000000180054570     libsodium:libsodium.dll
 0002:00000578       __imp_crypto_auth_hmacsha512_verify 0000000180054578     libsodium:libsodium.dll
 0002:00000580       __imp_crypto_auth_hmacsha512256_final 0000000180054580     libsodium:libsodium.dll
 0002:00000588       __imp_crypto_auth_hmacsha256 0000000180054588     libsodium:libsodium.dll
 0002:00000590       __imp_crypto_auth_hmacsha512_update 0000000180054590     libsodium:libsodium.dll
 0002:00000598       __imp_crypto_auth_hmacsha512256 0000000180054598     libsodium:libsodium.dll
 0002:000005a0       __imp_crypto_auth_hmacsha512256_verify 00000001800545a0     libsodium:libsodium.dll
 0002:000005a8       __imp_crypto_auth_hmacsha256_verify 00000001800545a8     libsodium:libsodium.dll
 0002:000005b0       __imp_crypto_auth_hmacsha512256_update 00000001800545b0     libsodium:libsodium.dll
 0002:000005b8       __imp_crypto_auth_hmacsha256_init 00000001800545b8     libsodium:libsodium.dll
 0002:000005c0       __imp_crypto_auth_hmacsha256_final 00000001800545c0     libsodium:libsodium.dll
 0002:000005c8       __imp_crypto_auth_hmacsha256_update 00000001800545c8     libsodium:libsodium.dll
 0002:000005d0       __imp_crypto_auth_hmacsha256_statebytes 00000001800545d0     libsodium:libsodium.dll
 0002:000005d8       __imp_crypto_auth_hmacsha512_statebytes 00000001800545d8     libsodium:libsodium.dll
 0002:000005e0       __imp_crypto_auth_hmacsha512_final 00000001800545e0     libsodium:libsodium.dll
 0002:000005e8       __imp_crypto_auth_hmacsha512 00000001800545e8     libsodium:libsodium.dll
 0002:000005f0       __imp_crypto_auth_hmacsha512_init 00000001800545f0     libsodium:libsodium.dll
 0002:000005f8       __imp_sodium_runtime_has_pclmul 00000001800545f8     libsodium:libsodium.dll
 0002:00000600       __imp_sodium_runtime_has_avx2 0000000180054600     libsodium:libsodium.dll
 0002:00000608       __imp_sodium_runtime_has_avx 0000000180054608     libsodium:libsodium.dll
 0002:00000610       __imp_sodium_runtime_has_sse2 0000000180054610     libsodium:libsodium.dll
 0002:00000618       __imp_sodium_runtime_has_sse41 0000000180054618     libsodium:libsodium.dll
 0002:00000620       __imp_sodium_runtime_has_sse3 0000000180054620     libsodium:libsodium.dll
 0002:00000628       __imp_sodium_runtime_has_ssse3 0000000180054628     libsodium:libsodium.dll
 0002:00000630       __imp_sodium_runtime_has_neon 0000000180054630     libsodium:libsodium.dll
 0002:00000638       __imp_sodium_runtime_has_aesni 0000000180054638     libsodium:libsodium.dll
 0002:00000640       __imp_crypto_box_curve25519xsalsa20poly1305_beforenm 0000000180054640     libsodium:libsodium.dll
 0002:00000648       __imp_crypto_box_curve25519xsalsa20poly1305_afternm 0000000180054648     libsodium:libsodium.dll
 0002:00000650       __imp_crypto_box_curve25519xsalsa20poly1305 0000000180054650     libsodium:libsodium.dll
 0002:00000658       __imp_crypto_box_curve25519xsalsa20poly1305_keypair 0000000180054658     libsodium:libsodium.dll
 0002:00000660       __imp_crypto_box_curve25519xsalsa20poly1305_open 0000000180054660     libsodium:libsodium.dll
 0002:00000668       __imp_crypto_box_curve25519xsalsa20poly1305_open_afternm 0000000180054668     libsodium:libsodium.dll
 0002:00000670       __imp_crypto_box_open_detached_afternm 0000000180054670     libsodium:libsodium.dll
 0002:00000678       __imp_crypto_box           0000000180054678     libsodium:libsodium.dll
 0002:00000680       __imp_crypto_box_afternm   0000000180054680     libsodium:libsodium.dll
 0002:00000688       __imp_crypto_box_keypair   0000000180054688     libsodium:libsodium.dll
 0002:00000690       __imp_crypto_box_open_afternm 0000000180054690     libsodium:libsodium.dll
 0002:00000698       __imp_crypto_box_easy      0000000180054698     libsodium:libsodium.dll
 0002:000006a0       __imp_crypto_box_seed_keypair 00000001800546a0     libsodium:libsodium.dll
 0002:000006a8       __imp_crypto_box_detached  00000001800546a8     libsodium:libsodium.dll
 0002:000006b0       __imp_crypto_box_seal      00000001800546b0     libsodium:libsodium.dll
 0002:000006b8       __imp_crypto_box_open_easy 00000001800546b8     libsodium:libsodium.dll
 0002:000006c0       __imp_crypto_box_open      00000001800546c0     libsodium:libsodium.dll
 0002:000006c8       __imp_crypto_box_easy_afternm 00000001800546c8     libsodium:libsodium.dll
 0002:000006d0       __imp_crypto_box_open_detached 00000001800546d0     libsodium:libsodium.dll
 0002:000006d8       __imp_crypto_box_seal_open 00000001800546d8     libsodium:libsodium.dll
 0002:000006e0       __imp_crypto_box_detached_afternm 00000001800546e0     libsodium:libsodium.dll
 0002:000006e8       __imp_crypto_box_open_easy_afternm 00000001800546e8     libsodium:libsodium.dll
 0002:000006f0       __imp_crypto_box_beforenm  00000001800546f0     libsodium:libsodium.dll
 0002:000006f8       __imp_crypto_sign_ed25519_pk_to_curve25519 00000001800546f8     libsodium:libsodium.dll
 0002:00000700       __imp_crypto_sign_ed25519_open 0000000180054700     libsodium:libsodium.dll
 0002:00000708       __imp_crypto_sign_ed25519  0000000180054708     libsodium:libsodium.dll
 0002:00000710       __imp_crypto_sign_ed25519_keypair 0000000180054710     libsodium:libsodium.dll
 0002:00000718       __imp_crypto_sign_ed25519_sk_to_curve25519 0000000180054718     libsodium:libsodium.dll
 0002:00000720       __imp_crypto_sign_ed25519_detached 0000000180054720     libsodium:libsodium.dll
 0002:00000728       __imp_crypto_sign_ed25519_verify_detached 0000000180054728     libsodium:libsodium.dll
 0002:00000730       __imp_crypto_sign_ed25519_sk_to_pk 0000000180054730     libsodium:libsodium.dll
 0002:00000738       __imp_crypto_sign_ed25519_seed_keypair 0000000180054738     libsodium:libsodium.dll
 0002:00000740       __imp_crypto_sign_ed25519_sk_to_seed 0000000180054740     libsodium:libsodium.dll
 0002:00000748       __imp_crypto_aead_chacha20poly1305_decrypt_detached 0000000180054748     libsodium:libsodium.dll
 0002:00000750       __imp_crypto_aead_aes256gcm_statebytes 0000000180054750     libsodium:libsodium.dll
 0002:00000758       __imp_crypto_aead_chacha20poly1305_ietf_decrypt_detached 0000000180054758     libsodium:libsodium.dll
 0002:00000760       __imp_crypto_aead_chacha20poly1305_encrypt_detached 0000000180054760     libsodium:libsodium.dll
 0002:00000768       __imp_crypto_aead_aes256gcm_encrypt_detached_afternm 0000000180054768     libsodium:libsodium.dll
 0002:00000770       __imp_crypto_aead_aes256gcm_is_available 0000000180054770     libsodium:libsodium.dll
 0002:00000778       __imp_crypto_aead_chacha20poly1305_encrypt 0000000180054778     libsodium:libsodium.dll
 0002:00000780       __imp_crypto_aead_chacha20poly1305_decrypt 0000000180054780     libsodium:libsodium.dll
 0002:00000788       __imp_crypto_aead_aes256gcm_encrypt 0000000180054788     libsodium:libsodium.dll
 0002:00000790       __imp_crypto_aead_aes256gcm_beforenm 0000000180054790     libsodium:libsodium.dll
 0002:00000798       __imp_crypto_aead_aes256gcm_decrypt 0000000180054798     libsodium:libsodium.dll
 0002:000007a0       __imp_crypto_aead_chacha20poly1305_ietf_decrypt 00000001800547a0     libsodium:libsodium.dll
 0002:000007a8       __imp_crypto_aead_chacha20poly1305_ietf_encrypt 00000001800547a8     libsodium:libsodium.dll
 0002:000007b0       __imp_crypto_aead_aes256gcm_encrypt_afternm 00000001800547b0     libsodium:libsodium.dll
 0002:000007b8       __imp_crypto_aead_aes256gcm_encrypt_detached 00000001800547b8     libsodium:libsodium.dll
 0002:000007c0       __imp_crypto_aead_chacha20poly1305_ietf_encrypt_detached 00000001800547c0     libsodium:libsodium.dll
 0002:000007c8       __imp_crypto_aead_aes256gcm_decrypt_detached_afternm 00000001800547c8     libsodium:libsodium.dll
 0002:000007d0       __imp_sodium_memzero       00000001800547d0     libsodium:libsodium.dll
 0002:000007d8       __imp_crypto_aead_aes256gcm_decrypt_afternm 00000001800547d8     libsodium:libsodium.dll
 0002:000007e0       __imp_crypto_aead_aes256gcm_decrypt_detached 00000001800547e0     libsodium:libsodium.dll
 0002:000007e8       __imp_crypto_pwhash_argon2i_str_verify 00000001800547e8     libsodium:libsodium.dll
 0002:000007f0       \177libsodium_NULL_THUNK_DATA 00000001800547f0     libsodium:libsodium.dll
 0002:000007f8       __guard_check_icall_fptr   00000001800547f8     LIBCMT:guard_support.obj
 0002:00000800       __guard_dispatch_icall_fptr 0000000180054800     LIBCMT:guard_support.obj
 0002:00000808       __xc_a                     0000000180054808     LIBCMT:initializers.obj
 0002:00000838       _register_sodium_          0000000180054838     sodium.obj
 0002:00000840       __xc_z                     0000000180054840     LIBCMT:initializers.obj
 0002:00000848       __xi_a                     0000000180054848     LIBCMT:initializers.obj
 0002:00000860       __acrt_stdio_initializer   0000000180054860     libucrt:stdio_initializer.obj
 0002:00000868       __acrt_tran_fma3_initializer 0000000180054868     libucrt:fma3_initializer.obj
 0002:00000870       __acrt_timeset_initializer 0000000180054870     libucrt:timeset_initializer.obj
 0002:00000878       __acrt_multibyte_initializer 0000000180054878     libucrt:multibyte_initializer.obj
 0002:00000880       __xi_z                     0000000180054880     LIBCMT:initializers.obj
 0002:00000888       __xl_a                     0000000180054888     LIBCMT:tlssup.obj
 0002:00000890       __xl_z                     0000000180054890     LIBCMT:tlssup.obj
 0002:00000898       __xp_a                     0000000180054898     LIBCMT:initializers.obj
 0002:000008a0       __acrt_locale_terminator   00000001800548a0     libucrt:locale_initializer.obj
 0002:000008a8       __dcrt_console_output_terminator 00000001800548a8     libucrt:console_output_initializer.obj
 0002:000008b0       __acrt_stdio_terminator    00000001800548b0     libucrt:stdio_initializer.obj
 0002:000008b8       __xp_z                     00000001800548b8     LIBCMT:initializers.obj
 0002:000008c0       __xt_a                     00000001800548c0     LIBCMT:initializers.obj
 0002:000008c8       __xt_z                     00000001800548c8     LIBCMT:initializers.obj
 0002:000008d0       __sz_node_exe              00000001800548d0     node:node.exe
 0002:000009b0       ??_7_Facet_base@std@@6B@   00000001800549b0     libcpmt:locale0.obj
 0002:000009d0       ??_7_Locimp@locale@std@@6B@ 00000001800549d0     libcpmt:locale0.obj
 0002:000009e8       ??_C@_01NBENCBCI@?$CK?$AA@ 00000001800549e8     libcpmt:locale0.obj
 0002:000009ec       ??_C@_01GFHCPBMG@C?$AA@    00000001800549ec     libcpmt:locale0.obj
 0002:000009f8       ??_7exception@std@@6B@     00000001800549f8     libcpmt:xthrow.obj
 0002:00000a08       ??_C@_0BC@EOODALEL@Unknown?5exception?$AA@ 0000000180054a08     libcpmt:xthrow.obj
 0002:00000a28       ??_7bad_alloc@std@@6B@     0000000180054a28     libcpmt:xthrow.obj
 0002:00000a38       ??_C@_0P@GHFPNOJB@bad?5allocation?$AA@ 0000000180054a38     libcpmt:xthrow.obj
 0002:00000a50       ??_7logic_error@std@@6B@   0000000180054a50     libcpmt:xthrow.obj
 0002:00000a68       ??_7length_error@std@@6B@  0000000180054a68     libcpmt:xthrow.obj
 0002:00000a80       ??_7out_of_range@std@@6B@  0000000180054a80     libcpmt:xthrow.obj
 0002:00000a98       ??_7runtime_error@std@@6B@ 0000000180054a98     libcpmt:xthrow.obj
 0002:00000aa8       ?_BADOFF@std@@3_JB         0000000180054aa8     libcpmt:ios.obj
 0002:000011e0       ??_C@_0BN@LKKBCCDB@address?5family?5not?5supported?$AA@ 00000001800551e0     libcpmt:syserror.obj
 0002:00001200       ??_C@_0P@LDMLAFHI@address?5in?5use?$AA@ 0000000180055200     libcpmt:syserror.obj
 0002:00001210       ??_C@_0BG@DHPCNBJB@address?5not?5available?$AA@ 0000000180055210     libcpmt:syserror.obj
 0002:00001228       ??_C@_0BC@DFIBIBIL@already?5connected?$AA@ 0000000180055228     libcpmt:syserror.obj
 0002:00001240       ??_C@_0BH@CAKOHOMI@argument?5list?5too?5long?$AA@ 0000000180055240     libcpmt:syserror.obj
 0002:00001258       ??_C@_0BH@CGIMPKIM@argument?5out?5of?5domain?$AA@ 0000000180055258     libcpmt:syserror.obj
 0002:00001270       ??_C@_0M@KGHGGJGL@bad?5address?$AA@ 0000000180055270     libcpmt:syserror.obj
 0002:00001280       ??_C@_0BE@MPJPGCEO@bad?5file?5descriptor?$AA@ 0000000180055280     libcpmt:syserror.obj
 0002:00001298       ??_C@_0M@PMMIEFCP@bad?5message?$AA@ 0000000180055298     libcpmt:syserror.obj
 0002:000012a8       ??_C@_0M@KPHOFDBE@broken?5pipe?$AA@ 00000001800552a8     libcpmt:syserror.obj
 0002:000012b8       ??_C@_0BD@MGNDDEGM@connection?5aborted?$AA@ 00000001800552b8     libcpmt:syserror.obj
 0002:000012d0       ??_C@_0BP@KAIHPOGN@connection?5already?5in?5progress?$AA@ 00000001800552d0     libcpmt:syserror.obj
 0002:000012f0       ??_C@_0BD@PJLIIJEL@connection?5refused?$AA@ 00000001800552f0     libcpmt:syserror.obj
 0002:00001308       ??_C@_0BB@IECNJNOI@connection?5reset?$AA@ 0000000180055308     libcpmt:syserror.obj
 0002:00001320       ??_C@_0BC@PPHBOELF@cross?5device?5link?$AA@ 0000000180055320     libcpmt:syserror.obj
 0002:00001338       ??_C@_0BN@KDMIFEIP@destination?5address?5required?$AA@ 0000000180055338     libcpmt:syserror.obj
 0002:00001358       ??_C@_0BI@NGCEHDD@device?5or?5resource?5busy?$AA@ 0000000180055358     libcpmt:syserror.obj
 0002:00001370       ??_C@_0BE@JIDOCPHM@directory?5not?5empty?$AA@ 0000000180055370     libcpmt:syserror.obj
 0002:00001388       ??_C@_0BI@BNCLIGPB@executable?5format?5error?$AA@ 0000000180055388     libcpmt:syserror.obj
 0002:000013a0       ??_C@_0M@MIDIAGJP@file?5exists?$AA@ 00000001800553a0     libcpmt:syserror.obj
 0002:000013b0       ??_C@_0P@DNAJLBJK@file?5too?5large?$AA@ 00000001800553b0     libcpmt:syserror.obj
 0002:000013c0       ??_C@_0BC@EJHOMAAK@filename?5too?5long?$AA@ 00000001800553c0     libcpmt:syserror.obj
 0002:000013d8       ??_C@_0BH@KEFGLDAF@function?5not?5supported?$AA@ 00000001800553d8     libcpmt:syserror.obj
 0002:000013f0       ??_C@_0BB@DHFDFGDM@host?5unreachable?$AA@ 00000001800553f0     libcpmt:syserror.obj
 0002:00001408       ??_C@_0BD@JPHBMONG@identifier?5removed?$AA@ 0000000180055408     libcpmt:syserror.obj
 0002:00001420       ??_C@_0BG@CDNPAGJK@illegal?5byte?5sequence?$AA@ 0000000180055420     libcpmt:syserror.obj
 0002:00001438       ??_C@_0CD@BNPLBMNA@inappropriate?5io?5control?5operati@ 0000000180055438     libcpmt:syserror.obj
 0002:00001460       ??_C@_0M@EGEKIIMP@interrupted?$AA@ 0000000180055460     libcpmt:syserror.obj
 0002:00001470       ??_C@_0BB@FCMFBGOM@invalid?5argument?$AA@ 0000000180055470     libcpmt:syserror.obj
 0002:00001488       ??_C@_0N@OHAFKDEK@invalid?5seek?$AA@ 0000000180055488     libcpmt:syserror.obj
 0002:00001498       ??_C@_08GLNPIFBN@io?5error?$AA@ 0000000180055498     libcpmt:syserror.obj
 0002:000014a8       ??_C@_0P@FLLDBIDK@is?5a?5directory?$AA@ 00000001800554a8     libcpmt:syserror.obj
 0002:000014b8       ??_C@_0N@IFLPBIOP@message?5size?$AA@ 00000001800554b8     libcpmt:syserror.obj
 0002:000014c8       ??_C@_0N@KIIEAAIO@network?5down?$AA@ 00000001800554c8     libcpmt:syserror.obj
 0002:000014d8       ??_C@_0O@FNPDBHEE@network?5reset?$AA@ 00000001800554d8     libcpmt:syserror.obj
 0002:000014e8       ??_C@_0BE@IFNCKGE@network?5unreachable?$AA@ 00000001800554e8     libcpmt:syserror.obj
 0002:00001500       ??_C@_0BA@PFFCAOFK@no?5buffer?5space?$AA@ 0000000180055500     libcpmt:syserror.obj
 0002:00001510       ??_C@_0BB@IEPBLJHK@no?5child?5process?$AA@ 0000000180055510     libcpmt:syserror.obj
 0002:00001528       ??_C@_07PLECNNKG@no?5link?$AA@ 0000000180055528     libcpmt:syserror.obj
 0002:00001530       ??_C@_0BC@NJECKMKE@no?5lock?5available?$AA@ 0000000180055530     libcpmt:syserror.obj
 0002:00001548       ??_C@_0BF@PBGGPKKE@no?5message?5available?$AA@ 0000000180055548     libcpmt:syserror.obj
 0002:00001560       ??_C@_0L@EDOLMPAK@no?5message?$AA@ 0000000180055560     libcpmt:syserror.obj
 0002:00001570       ??_C@_0BD@EAMBFIDF@no?5protocol?5option?$AA@ 0000000180055570     libcpmt:syserror.obj
 0002:00001588       ??_C@_0BD@IJDJKDEA@no?5space?5on?5device?$AA@ 0000000180055588     libcpmt:syserror.obj
 0002:000015a0       ??_C@_0BE@MKFDAFMP@no?5stream?5resources?$AA@ 00000001800555a0     libcpmt:syserror.obj
 0002:000015b8       ??_C@_0BK@IMCPHCBI@no?5such?5device?5or?5address?$AA@ 00000001800555b8     libcpmt:syserror.obj
 0002:000015d8       ??_C@_0P@FDINDDOK@no?5such?5device?$AA@ 00000001800555d8     libcpmt:syserror.obj
 0002:000015e8       ??_C@_0BK@NDOCBPGE@no?5such?5file?5or?5directory?$AA@ 00000001800555e8     libcpmt:syserror.obj
 0002:00001608       ??_C@_0BA@ENLPPKBN@no?5such?5process?$AA@ 0000000180055608     libcpmt:syserror.obj
 0002:00001618       ??_C@_0BA@DOCPFFJG@not?5a?5directory?$AA@ 0000000180055618     libcpmt:syserror.obj
 0002:00001628       ??_C@_0N@POEIPGGF@not?5a?5socket?$AA@ 0000000180055628     libcpmt:syserror.obj
 0002:00001638       ??_C@_0N@LGAPMMPI@not?5a?5stream?$AA@ 0000000180055638     libcpmt:syserror.obj
 0002:00001648       ??_C@_0O@GLMIBBEG@not?5connected?$AA@ 0000000180055648     libcpmt:syserror.obj
 0002:00001658       ??_C@_0BC@ENOOLCNF@not?5enough?5memory?$AA@ 0000000180055658     libcpmt:syserror.obj
 0002:00001670       ??_C@_0O@NHEDABJP@not?5supported?$AA@ 0000000180055670     libcpmt:syserror.obj
 0002:00001680       ??_C@_0BD@MOLBPMEA@operation?5canceled?$AA@ 0000000180055680     libcpmt:syserror.obj
 0002:00001698       ??_C@_0BG@KDKHOPCO@operation?5in?5progress?$AA@ 0000000180055698     libcpmt:syserror.obj
 0002:000016b0       ??_C@_0BI@OHIEJAAB@operation?5not?5permitted?$AA@ 00000001800556b0     libcpmt:syserror.obj
 0002:000016c8       ??_C@_0BI@LNEGIFLN@operation?5not?5supported?$AA@ 00000001800556c8     libcpmt:syserror.obj
 0002:000016e0       ??_C@_0BG@OEMDKMEE@operation?5would?5block?$AA@ 00000001800556e0     libcpmt:syserror.obj
 0002:000016f8       ??_C@_0L@BLPOFLNJ@owner?5dead?$AA@ 00000001800556f8     libcpmt:syserror.obj
 0002:00001708       ??_C@_0BC@CIJDGCDI@permission?5denied?$AA@ 0000000180055708     libcpmt:syserror.obj
 0002:00001720       ??_C@_0P@FNPOCJBE@protocol?5error?$AA@ 0000000180055720     libcpmt:syserror.obj
 0002:00001730       ??_C@_0BH@JPPPLHJB@protocol?5not?5supported?$AA@ 0000000180055730     libcpmt:syserror.obj
 0002:00001748       ??_C@_0BG@EICBIHDP@read?5only?5file?5system?$AA@ 0000000180055748     libcpmt:syserror.obj
 0002:00001760       ??_C@_0BO@BJBOMOEJ@resource?5deadlock?5would?5occur?$AA@ 0000000180055760     libcpmt:syserror.obj
 0002:00001780       ??_C@_0BP@LKNGHENJ@resource?5unavailable?5try?5again?$AA@ 0000000180055780     libcpmt:syserror.obj
 0002:000017a0       ??_C@_0BE@GOIPJJHG@result?5out?5of?5range?$AA@ 00000001800557a0     libcpmt:syserror.obj
 0002:000017b8       ??_C@_0BG@MPLKFPAE@state?5not?5recoverable?$AA@ 00000001800557b8     libcpmt:syserror.obj
 0002:000017d0       ??_C@_0P@DIIFGFCG@stream?5timeout?$AA@ 00000001800557d0     libcpmt:syserror.obj
 0002:000017e0       ??_C@_0P@IPFDMIFL@text?5file?5busy?$AA@ 00000001800557e0     libcpmt:syserror.obj
 0002:000017f0       ??_C@_09KJPPMAOI@timed?5out?$AA@ 00000001800557f0     libcpmt:syserror.obj
 0002:00001800       ??_C@_0BO@HACHBEKI@too?5many?5files?5open?5in?5system?$AA@ 0000000180055800     libcpmt:syserror.obj
 0002:00001820       ??_C@_0BE@GHAFMPAH@too?5many?5files?5open?$AA@ 0000000180055820     libcpmt:syserror.obj
 0002:00001838       ??_C@_0P@HCOMKFCC@too?5many?5links?$AA@ 0000000180055838     libcpmt:syserror.obj
 0002:00001848       ??_C@_0BO@EFGOJEF@too?5many?5symbolic?5link?5levels?$AA@ 0000000180055848     libcpmt:syserror.obj
 0002:00001868       ??_C@_0BA@KGKGOOJA@value?5too?5large?$AA@ 0000000180055868     libcpmt:syserror.obj
 0002:00001878       ??_C@_0BE@MIEJDDNH@wrong?5protocol?5type?$AA@ 0000000180055878     libcpmt:syserror.obj
 0002:00001890       ??_C@_0O@BFJCFAAK@unknown?5error?$AA@ 0000000180055890     libcpmt:syserror.obj
 0002:000018d0       ??_7?$ctype@D@std@@6B@     00000001800558d0     libcpmt:locale.obj
 0002:00001930       ??_7?$num_put@DV?$ostreambuf_iterator@DU?$char_traits@D@std@@@std@@@std@@6B@ 0000000180055930     libcpmt:locale.obj
 0002:00001990       ??_7?$numpunct@D@std@@6B@  0000000180055990     libcpmt:locale.obj
 0002:000019d0       ??_C@_1BK@MGMFAEKH@?$AAk?$AAe?$AAr?$AAn?$AAe?$AAl?$AA3?$AA2?$AA?4?$AAd?$AAl?$AAl?$AA?$AA@ 00000001800559d0     libcpmt:winapisupp.obj
 0002:000019f0       ??_C@_08KNHFBNJ@FlsAlloc?$AA@ 00000001800559f0     libcpmt:winapisupp.obj
 0002:00001a00       ??_C@_07PEJMOBNF@FlsFree?$AA@ 0000000180055a00     libcpmt:winapisupp.obj
 0002:00001a08       ??_C@_0M@GDNOONDI@FlsGetValue?$AA@ 0000000180055a08     libcpmt:winapisupp.obj
 0002:00001a18       ??_C@_0M@JCPCPOEF@FlsSetValue?$AA@ 0000000180055a18     libcpmt:winapisupp.obj
 0002:00001a28       ??_C@_0BM@HCFOFFN@InitializeCriticalSectionEx?$AA@ 0000000180055a28     libcpmt:winapisupp.obj
 0002:00001a48       ??_C@_0BE@GPLMMCMH@InitOnceExecuteOnce?$AA@ 0000000180055a48     libcpmt:winapisupp.obj
 0002:00001a60       ??_C@_0P@DLHPPCNH@CreateEventExW?$AA@ 0000000180055a60     libcpmt:winapisupp.obj
 0002:00001a70       ??_C@_0BB@MEFPJLHN@CreateSemaphoreW?$AA@ 0000000180055a70     libcpmt:winapisupp.obj
 0002:00001a88       ??_C@_0BD@KIEEOEEH@CreateSemaphoreExW?$AA@ 0000000180055a88     libcpmt:winapisupp.obj
 0002:00001aa0       ??_C@_0BG@OGFAJCKC@CreateThreadpoolTimer?$AA@ 0000000180055aa0     libcpmt:winapisupp.obj
 0002:00001ab8       ??_C@_0BD@LPLEMMDI@SetThreadpoolTimer?$AA@ 0000000180055ab8     libcpmt:winapisupp.obj
 0002:00001ad0       ??_C@_0CA@FMNJENH@WaitForThreadpoolTimerCallbacks?$AA@ 0000000180055ad0     libcpmt:winapisupp.obj
 0002:00001af0       ??_C@_0BF@DCFCCNOC@CloseThreadpoolTimer?$AA@ 0000000180055af0     libcpmt:winapisupp.obj
 0002:00001b08       ??_C@_0BF@FLABGKKM@CreateThreadpoolWait?$AA@ 0000000180055b08     libcpmt:winapisupp.obj
 0002:00001b20       ??_C@_0BC@MGCOHNA@SetThreadpoolWait?$AA@ 0000000180055b20     libcpmt:winapisupp.obj
 0002:00001b38       ??_C@_0BE@OCIOMIMP@CloseThreadpoolWait?$AA@ 0000000180055b38     libcpmt:winapisupp.obj
 0002:00001b50       ??_C@_0BJ@LKGHFHBO@FlushProcessWriteBuffers?$AA@ 0000000180055b50     libcpmt:winapisupp.obj
 0002:00001b70       ??_C@_0BP@KALKKPMO@FreeLibraryWhenCallbackReturns?$AA@ 0000000180055b70     libcpmt:winapisupp.obj
 0002:00001b90       ??_C@_0BK@DFNBACLA@GetCurrentProcessorNumber?$AA@ 0000000180055b90     libcpmt:winapisupp.obj
 0002:00001bb0       ??_C@_0BE@FKKLLFLM@CreateSymbolicLinkW?$AA@ 0000000180055bb0     libcpmt:winapisupp.obj
 0002:00001bc8       ??_C@_0BE@JOGNEJCI@GetCurrentPackageId?$AA@ 0000000180055bc8     libcpmt:winapisupp.obj
 0002:00001be0       ??_C@_0P@CDHHOHKP@GetTickCount64?$AA@ 0000000180055be0     libcpmt:winapisupp.obj
 0002:00001bf0       ??_C@_0BN@NEEHBBPO@GetFileInformationByHandleEx?$AA@ 0000000180055bf0     libcpmt:winapisupp.obj
 0002:00001c10       ??_C@_0BL@KBBHGKCM@SetFileInformationByHandle?$AA@ 0000000180055c10     libcpmt:winapisupp.obj
 0002:00001c30       ??_C@_0BP@FPNJPEJC@GetSystemTimePreciseAsFileTime?$AA@ 0000000180055c30     libcpmt:winapisupp.obj
 0002:00001c50       ??_C@_0BM@HLJJNPAH@InitializeConditionVariable?$AA@ 0000000180055c50     libcpmt:winapisupp.obj
 0002:00001c70       ??_C@_0BG@BFNILBLN@WakeConditionVariable?$AA@ 0000000180055c70     libcpmt:winapisupp.obj
 0002:00001c88       ??_C@_0BJ@PGPPEPCC@WakeAllConditionVariable?$AA@ 0000000180055c88     libcpmt:winapisupp.obj
 0002:00001ca8       ??_C@_0BJ@JEBJOJFJ@SleepConditionVariableCS?$AA@ 0000000180055ca8     libcpmt:winapisupp.obj
 0002:00001cc8       ??_C@_0BC@MMLHEBPB@InitializeSRWLock?$AA@ 0000000180055cc8     libcpmt:winapisupp.obj
 0002:00001ce0       ??_C@_0BI@OMNLIJDB@AcquireSRWLockExclusive?$AA@ 0000000180055ce0     libcpmt:winapisupp.obj
 0002:00001cf8       ??_C@_0BL@OGHFEMNA@TryAcquireSRWLockExclusive?$AA@ 0000000180055cf8     libcpmt:winapisupp.obj
 0002:00001d18       ??_C@_0BI@HMIEPCNJ@ReleaseSRWLockExclusive?$AA@ 0000000180055d18     libcpmt:winapisupp.obj
 0002:00001d30       ??_C@_0BK@LGACAGIC@SleepConditionVariableSRW?$AA@ 0000000180055d30     libcpmt:winapisupp.obj
 0002:00001d50       ??_C@_0BF@GGPHFPJA@CreateThreadpoolWork?$AA@ 0000000180055d50     libcpmt:winapisupp.obj
 0002:00001d68       ??_C@_0BF@NHDAIMMO@SubmitThreadpoolWork?$AA@ 0000000180055d68     libcpmt:winapisupp.obj
 0002:00001d80       ??_C@_0BE@NPHIPNPD@CloseThreadpoolWork?$AA@ 0000000180055d80     libcpmt:winapisupp.obj
 0002:00001d98       ??_C@_0BA@IHGNDAEB@CompareStringEx?$AA@ 0000000180055d98     libcpmt:winapisupp.obj
 0002:00001da8       ??_C@_0BA@ONOKGCMP@GetLocaleInfoEx?$AA@ 0000000180055da8     libcpmt:winapisupp.obj
 0002:00001db8       ??_C@_0O@KKBNKAPF@LCMapStringEx?$AA@ 0000000180055db8     libcpmt:winapisupp.obj
 0002:00001dc8       ??_C@_11LOCGONAA@?$AA?$AA@ 0000000180055dc8     libcpmt:wlocale.obj
 0002:00001dcc       ??_C@_01JOAMLHOP@?9?$AA@   0000000180055dcc     libcpmt:wlocale.obj
 0002:00001dd0       __xmm@80000000000000008000000000000000 0000000180055dd0     libcpmt:wlocale.obj
 0002:00001e80       ??_C@_1M@JKFFICHJ@?$AAe?$AAs?$AA?9?$AAv?$AAe?$AA?$AA@ 0000000180055e80     libcpmt:winapinls.obj
 0002:00001e90       ??_C@_1M@PNMLOJDF@?$AAe?$AAt?$AA?9?$AAe?$AAe?$AA?$AA@ 0000000180055e90     libcpmt:winapinls.obj
 0002:00001ea0       ??_C@_1M@GHHLIKEI@?$AAe?$AAu?$AA?9?$AAe?$AAs?$AA?$AA@ 0000000180055ea0     libcpmt:winapinls.obj
 0002:00001eb0       ??_C@_1M@PBNONODE@?$AAf?$AAa?$AA?9?$AAi?$AAr?$AA?$AA@ 0000000180055eb0     libcpmt:winapinls.obj
 0002:00001ec0       ??_C@_1M@JEEHPMIL@?$AAf?$AAi?$AA?9?$AAf?$AAi?$AA?$AA@ 0000000180055ec0     libcpmt:winapinls.obj
 0002:00001ed0       ??_C@_1M@LMDCNDBA@?$AAf?$AAo?$AA?9?$AAf?$AAo?$AA?$AA@ 0000000180055ed0     libcpmt:winapinls.obj
 0002:00001ee0       ??_C@_1M@JKEOHLDK@?$AAf?$AAr?$AA?9?$AAb?$AAe?$AA?$AA@ 0000000180055ee0     libcpmt:winapinls.obj
 0002:00001ef0       ??_C@_1M@NOHADPMI@?$AAf?$AAr?$AA?9?$AAc?$AAa?$AA?$AA@ 0000000180055ef0     libcpmt:winapinls.obj
 0002:00001f00       ??_C@_1M@KDHIHAEC@?$AAf?$AAr?$AA?9?$AAc?$AAh?$AA?$AA@ 0000000180055f00     libcpmt:winapinls.obj
 0002:00001f10       ??_C@_1M@MMBBFGAK@?$AAf?$AAr?$AA?9?$AAf?$AAr?$AA?$AA@ 0000000180055f10     libcpmt:winapinls.obj
 0002:00001f20       ??_C@_1M@PAFNENNF@?$AAf?$AAr?$AA?9?$AAl?$AAu?$AA?$AA@ 0000000180055f20     libcpmt:winapinls.obj
 0002:00001f30       ??_C@_1M@EOHDJGDD@?$AAf?$AAr?$AA?9?$AAm?$AAc?$AA?$AA@ 0000000180055f30     libcpmt:winapinls.obj
 0002:00001f40       ??_C@_1M@FAPLLOPF@?$AAg?$AAl?$AA?9?$AAe?$AAs?$AA?$AA@ 0000000180055f40     libcpmt:winapinls.obj
 0002:00001f50       ??_C@_1M@FOPBFLOO@?$AAg?$AAu?$AA?9?$AAi?$AAn?$AA?$AA@ 0000000180055f50     libcpmt:winapinls.obj
 0002:00001f60       ??_C@_1M@KBMCINPM@?$AAh?$AAe?$AA?9?$AAi?$AAl?$AA?$AA@ 0000000180055f60     libcpmt:winapinls.obj
 0002:00001f70       ??_C@_1M@BBPHKFPJ@?$AAh?$AAi?$AA?9?$AAi?$AAn?$AA?$AA@ 0000000180055f70     libcpmt:winapinls.obj
 0002:00001f80       ??_C@_1M@PMBNDPHD@?$AAh?$AAr?$AA?9?$AAb?$AAa?$AA?$AA@ 0000000180055f80     libcpmt:winapinls.obj
 0002:00001f90       ??_C@_1M@BPCKOEGE@?$AAh?$AAr?$AA?9?$AAh?$AAr?$AA?$AA@ 0000000180055f90     libcpmt:winapinls.obj
 0002:00001fa0       ??_C@_1M@GACBMHKE@?$AAh?$AAu?$AA?9?$AAh?$AAu?$AA?$AA@ 0000000180055fa0     libcpmt:winapinls.obj
 0002:00001fb0       ??_C@_1M@MILPAJJC@?$AAh?$AAy?$AA?9?$AAa?$AAm?$AA?$AA@ 0000000180055fb0     libcpmt:winapinls.obj
 0002:00001fc0       ??_C@_1M@BABBICEC@?$AAi?$AAd?$AA?9?$AAi?$AAd?$AA?$AA@ 0000000180055fc0     libcpmt:winapinls.obj
 0002:00001fd0       ??_C@_1M@BIKNHHPF@?$AAi?$AAs?$AA?9?$AAi?$AAs?$AA?$AA@ 0000000180055fd0     libcpmt:winapinls.obj
 0002:00001fe0       ??_C@_1M@NMPCJPHE@?$AAi?$AAt?$AA?9?$AAc?$AAh?$AA?$AA@ 0000000180055fe0     libcpmt:winapinls.obj
 0002:00001ff0       ??_C@_1M@GHKGFEDF@?$AAi?$AAt?$AA?9?$AAi?$AAt?$AA?$AA@ 0000000180055ff0     libcpmt:winapinls.obj
 0002:00002000       ??_C@_1M@NIEJCJJA@?$AAj?$AAa?$AA?9?$AAj?$AAp?$AA?$AA@ 0000000180056000     libcpmt:winapinls.obj
 0002:00002010       ??_C@_1M@JILFNBIM@?$AAk?$AAa?$AA?9?$AAg?$AAe?$AA?$AA@ 0000000180056010     libcpmt:winapinls.obj
 0002:00002020       ??_C@_1M@PACPMGPH@?$AAk?$AAk?$AA?9?$AAk?$AAz?$AA?$AA@ 0000000180056020     libcpmt:winapinls.obj
 0002:00002030       ??_C@_1M@IELFGMHA@?$AAk?$AAn?$AA?9?$AAi?$AAn?$AA?$AA@ 0000000180056030     libcpmt:winapinls.obj
 0002:00002040       ??_C@_1M@DMHAEOGC@?$AAk?$AAo?$AA?9?$AAk?$AAr?$AA?$AA@ 0000000180056040     libcpmt:winapinls.obj
 0002:00002050       ??_C@_1O@IBBJHCH@?$AAk?$AAo?$AAk?$AA?9?$AAi?$AAn?$AA?$AA@ 0000000180056050     libcpmt:winapinls.obj
 0002:00002060       ??_C@_1M@HBAHBIGA@?$AAk?$AAy?$AA?9?$AAk?$AAg?$AA?$AA@ 0000000180056060     libcpmt:winapinls.obj
 0002:00002070       ??_C@_1M@KPMILCJG@?$AAl?$AAt?$AA?9?$AAl?$AAt?$AA?$AA@ 0000000180056070     libcpmt:winapinls.obj
 0002:00002080       ??_C@_1M@BDEKKCA@?$AAl?$AAv?$AA?9?$AAl?$AAv?$AA?$AA@ 0000000180056080     libcpmt:winapinls.obj
 0002:00002090       ??_C@_1M@ELCKCCJJ@?$AAm?$AAi?$AA?9?$AAn?$AAz?$AA?$AA@ 0000000180056090     libcpmt:winapinls.obj
 0002:000020a0       ??_C@_1M@CBOOLAPA@?$AAm?$AAk?$AA?9?$AAm?$AAk?$AA?$AA@ 00000001800560a0     libcpmt:winapinls.obj
 0002:000020b0       ??_C@_1M@GPHNBJKN@?$AAm?$AAl?$AA?9?$AAi?$AAn?$AA?$AA@ 00000001800560b0     libcpmt:winapinls.obj
 0002:000020c0       ??_C@_1M@PABJILIG@?$AAm?$AAn?$AA?9?$AAm?$AAn?$AA?$AA@ 00000001800560c0     libcpmt:winapinls.obj
 0002:000020d0       ??_C@_1M@FGBKKIPG@?$AAm?$AAr?$AA?9?$AAi?$AAn?$AA?$AA@ 00000001800560d0     libcpmt:winapinls.obj
 0002:000020e0       ??_C@_1M@NDBPDDAL@?$AAm?$AAs?$AA?9?$AAb?$AAn?$AA?$AA@ 00000001800560e0     libcpmt:winapinls.obj
 0002:000020f0       ??_C@_1M@OPIHOOPI@?$AAm?$AAs?$AA?9?$AAm?$AAy?$AA?$AA@ 00000001800560f0     libcpmt:winapinls.obj
 0002:00002100       ??_C@_1M@PPDBCNFM@?$AAm?$AAt?$AA?9?$AAm?$AAt?$AA?$AA@ 0000000180056100     libcpmt:winapinls.obj
 0002:00002110       ??_C@_1M@KDJDKMDD@?$AAn?$AAb?$AA?9?$AAn?$AAo?$AA?$AA@ 0000000180056110     libcpmt:winapinls.obj
 0002:00002120       ??_C@_1M@KFCFLMJP@?$AAn?$AAl?$AA?9?$AAb?$AAe?$AA?$AA@ 0000000180056120     libcpmt:winapinls.obj
 0002:00002130       ??_C@_1M@KPOPDDGO@?$AAn?$AAl?$AA?9?$AAn?$AAl?$AA?$AA@ 0000000180056130     libcpmt:winapinls.obj
 0002:00002140       ??_C@_1M@LJKPEMLN@?$AAn?$AAn?$AA?9?$AAn?$AAo?$AA?$AA@ 0000000180056140     libcpmt:winapinls.obj
 0002:00002150       ??_C@_1M@BDGHHBFL@?$AAn?$AAs?$AA?9?$AAz?$AAa?$AA?$AA@ 0000000180056150     libcpmt:winapinls.obj
 0002:00002160       ??_C@_1M@IDEHOAP@?$AAp?$AAa?$AA?9?$AAi?$AAn?$AA?$AA@ 0000000180056160     libcpmt:winapinls.obj
 0002:00002170       ??_C@_1M@HDBKGOGH@?$AAp?$AAl?$AA?9?$AAp?$AAl?$AA?$AA@ 0000000180056170     libcpmt:winapinls.obj
 0002:00002180       ??_C@_1M@LJLLCMEH@?$AAp?$AAt?$AA?9?$AAb?$AAr?$AA?$AA@ 0000000180056180     libcpmt:winapinls.obj
 0002:00002190       ??_C@_1M@NCMONAAL@?$AAp?$AAt?$AA?9?$AAp?$AAt?$AA?$AA@ 0000000180056190     libcpmt:winapinls.obj
 0002:000021a0       ??_C@_1O@EAKMAJDN@?$AAq?$AAu?$AAz?$AA?9?$AAb?$AAo?$AA?$AA@ 00000001800561a0     libcpmt:winapinls.obj
 0002:000021b0       ??_C@_1O@BHHPIGDN@?$AAq?$AAu?$AAz?$AA?9?$AAe?$AAc?$AA?$AA@ 00000001800561b0     libcpmt:winapinls.obj
 0002:000021c0       ??_C@_1O@GBAPEKMJ@?$AAq?$AAu?$AAz?$AA?9?$AAp?$AAe?$AA?$AA@ 00000001800561c0     libcpmt:winapinls.obj
 0002:000021d0       ??_C@_1M@CLGLEFBO@?$AAr?$AAo?$AA?9?$AAr?$AAo?$AA?$AA@ 00000001800561d0     libcpmt:winapinls.obj
 0002:000021e0       ??_C@_1M@CEEDODME@?$AAr?$AAu?$AA?9?$AAr?$AAu?$AA?$AA@ 00000001800561e0     libcpmt:winapinls.obj
 0002:000021f0       ??_C@_1M@HPKKKMPP@?$AAs?$AAa?$AA?9?$AAi?$AAn?$AA?$AA@ 00000001800561f0     libcpmt:winapinls.obj
 0002:00002200       ??_C@_1M@BKMAIGOJ@?$AAs?$AAe?$AA?9?$AAf?$AAi?$AA?$AA@ 0000000180056200     libcpmt:winapinls.obj
 0002:00002210       ??_C@_1M@NDPIFLFI@?$AAs?$AAe?$AA?9?$AAn?$AAo?$AA?$AA@ 0000000180056210     libcpmt:winapinls.obj
 0002:00002220       ??_C@_1M@DANKKHJ@?$AAs?$AAe?$AA?9?$AAs?$AAe?$AA?$AA@ 0000000180056220     libcpmt:winapinls.obj
 0002:00002230       ??_C@_1M@PNBLONPJ@?$AAs?$AAk?$AA?9?$AAs?$AAk?$AA?$AA@ 0000000180056230     libcpmt:winapinls.obj
 0002:00002240       ??_C@_1M@LFMODOAL@?$AAs?$AAl?$AA?9?$AAs?$AAi?$AA?$AA@ 0000000180056240     libcpmt:winapinls.obj
 0002:00002250       ??_C@_1O@DFKOMPG@?$AAs?$AAm?$AAa?$AA?9?$AAn?$AAo?$AA?$AA@ 0000000180056250     libcpmt:winapinls.obj
 0002:00002260       ??_C@_1O@NDKPBNNH@?$AAs?$AAm?$AAa?$AA?9?$AAs?$AAe?$AA?$AA@ 0000000180056260     libcpmt:winapinls.obj
 0002:00002270       ??_C@_1O@PLLKBHAB@?$AAs?$AAm?$AAj?$AA?9?$AAn?$AAo?$AA?$AA@ 0000000180056270     libcpmt:winapinls.obj
 0002:00002280       ??_C@_1O@CLEPOGCA@?$AAs?$AAm?$AAj?$AA?9?$AAs?$AAe?$AA?$AA@ 0000000180056280     libcpmt:winapinls.obj
 0002:00002290       ??_C@_1O@DLGJGKMK@?$AAs?$AAm?$AAn?$AA?9?$AAf?$AAi?$AA?$AA@ 0000000180056290     libcpmt:winapinls.obj
 0002:000022a0       ??_C@_1O@OJDJGAJC@?$AAs?$AAm?$AAs?$AA?9?$AAf?$AAi?$AA?$AA@ 00000001800562a0     libcpmt:winapinls.obj
 0002:000022b0       ??_C@_1M@BOFOGHPB@?$AAs?$AAq?$AA?9?$AAa?$AAl?$AA?$AA@ 00000001800562b0     libcpmt:winapinls.obj
 0002:000022c0       ??_C@_1BG@LJBBIPGB@?$AAs?$AAr?$AA?9?$AAb?$AAa?$AA?9?$AAc?$AAy?$AAr?$AAl?$AA?$AA@ 00000001800562c0     libcpmt:winapinls.obj
 0002:000022d8       ??_C@_1BG@JLBENFOE@?$AAs?$AAr?$AA?9?$AAb?$AAa?$AA?9?$AAl?$AAa?$AAt?$AAn?$AA?$AA@ 00000001800562d8     libcpmt:winapinls.obj
 0002:000022f0       ??_C@_1BG@KODPNHE@?$AAs?$AAr?$AA?9?$AAs?$AAp?$AA?9?$AAc?$AAy?$AAr?$AAl?$AA?$AA@ 00000001800562f0     libcpmt:winapinls.obj
 0002:00002308       ??_C@_1BG@CIOGKHPB@?$AAs?$AAr?$AA?9?$AAs?$AAp?$AA?9?$AAl?$AAa?$AAt?$AAn?$AA?$AA@ 0000000180056308     libcpmt:winapinls.obj
 0002:00002320       ??_C@_1M@NGFJLMAC@?$AAs?$AAv?$AA?9?$AAf?$AAi?$AA?$AA@ 0000000180056320     libcpmt:winapinls.obj
 0002:00002330       ??_C@_1M@MPJEJAJC@?$AAs?$AAv?$AA?9?$AAs?$AAe?$AA?$AA@ 0000000180056330     libcpmt:winapinls.obj
 0002:00002340       ??_C@_1M@MPNDHLFK@?$AAs?$AAw?$AA?9?$AAk?$AAe?$AA?$AA@ 0000000180056340     libcpmt:winapinls.obj
 0002:00002350       ??_C@_1O@KOHBJJI@?$AAs?$AAy?$AAr?$AA?9?$AAs?$AAy?$AA?$AA@ 0000000180056350     libcpmt:winapinls.obj
 0002:00002360       ??_C@_1M@LDCEFHA@?$AAt?$AAa?$AA?9?$AAi?$AAn?$AA?$AA@ 0000000180056360     libcpmt:winapinls.obj
 0002:00002370       ??_C@_1M@CNJOFAK@?$AAt?$AAe?$AA?9?$AAi?$AAn?$AA?$AA@ 0000000180056370     libcpmt:winapinls.obj
 0002:00002380       ??_C@_1M@GNAECACD@?$AAt?$AAh?$AA?9?$AAt?$AAh?$AA?$AA@ 0000000180056380     libcpmt:winapinls.obj
 0002:00002390       ??_C@_1M@CHBIHOJO@?$AAt?$AAn?$AA?9?$AAz?$AAa?$AA?$AA@ 0000000180056390     libcpmt:winapinls.obj
 0002:000023a0       ??_C@_1M@GCCMIGPJ@?$AAt?$AAr?$AA?9?$AAt?$AAr?$AA?$AA@ 00000001800563a0     libcpmt:winapinls.obj
 0002:000023b0       ??_C@_1M@CELMCNBK@?$AAt?$AAt?$AA?9?$AAr?$AAu?$AA?$AA@ 00000001800563b0     libcpmt:winapinls.obj
 0002:000023c0       ??_C@_1M@KLMCELGA@?$AAu?$AAk?$AA?9?$AAu?$AAa?$AA?$AA@ 00000001800563c0     libcpmt:winapinls.obj
 0002:000023d0       ??_C@_1M@EPAJJAJF@?$AAu?$AAr?$AA?9?$AAp?$AAk?$AA?$AA@ 00000001800563d0     libcpmt:winapinls.obj
 0002:000023e0       ??_C@_1BG@GEGPMCDJ@?$AAu?$AAz?$AA?9?$AAu?$AAz?$AA?9?$AAc?$AAy?$AAr?$AAl?$AA?$AA@ 00000001800563e0     libcpmt:winapinls.obj
 0002:000023f8       ??_C@_1BG@EGGKJILM@?$AAu?$AAz?$AA?9?$AAu?$AAz?$AA?9?$AAl?$AAa?$AAt?$AAn?$AA?$AA@ 00000001800563f8     libcpmt:winapinls.obj
 0002:00002410       ??_C@_1M@GFOCLFF@?$AAv?$AAi?$AA?9?$AAv?$AAn?$AA?$AA@ 0000000180056410     libcpmt:winapinls.obj
 0002:00002420       ??_C@_1M@CPAMEDFI@?$AAx?$AAh?$AA?9?$AAz?$AAa?$AA?$AA@ 0000000180056420     libcpmt:winapinls.obj
 0002:00002430       ??_C@_1O@EBKIFIGN@?$AAz?$AAh?$AA?9?$AAc?$AAh?$AAs?$AA?$AA@ 0000000180056430     libcpmt:winapinls.obj
 0002:00002440       ??_C@_1O@NMHPGANE@?$AAz?$AAh?$AA?9?$AAc?$AAh?$AAt?$AA?$AA@ 0000000180056440     libcpmt:winapinls.obj
 0002:00002450       ??_C@_1M@LPINJOMC@?$AAz?$AAh?$AA?9?$AAc?$AAn?$AA?$AA@ 0000000180056450     libcpmt:winapinls.obj
 0002:00002460       ??_C@_1M@OCJEJODD@?$AAz?$AAh?$AA?9?$AAh?$AAk?$AA?$AA@ 0000000180056460     libcpmt:winapinls.obj
 0002:00002470       ??_C@_1M@DNDLJINH@?$AAz?$AAh?$AA?9?$AAm?$AAo?$AA?$AA@ 0000000180056470     libcpmt:winapinls.obj
 0002:00002480       ??_C@_1M@MBFDNDND@?$AAz?$AAh?$AA?9?$AAs?$AAg?$AA?$AA@ 0000000180056480     libcpmt:winapinls.obj
 0002:00002490       ??_C@_1M@IMEPLEPE@?$AAz?$AAh?$AA?9?$AAt?$AAw?$AA?$AA@ 0000000180056490     libcpmt:winapinls.obj
 0002:000024a0       ??_C@_1M@BBGHNHJP@?$AAz?$AAu?$AA?9?$AAz?$AAa?$AA?$AA@ 00000001800564a0     libcpmt:winapinls.obj
 0002:00004130       ??_C@_15EMKDOKLE@?$AAa?$AAr?$AA?$AA@ 0000000180058130     libcpmt:winapinls.obj
 0002:00004138       ??_C@_15KNPADPLH@?$AAb?$AAg?$AA?$AA@ 0000000180058138     libcpmt:winapinls.obj
 0002:00004140       ??_C@_15EDMHLDMO@?$AAc?$AAa?$AA?$AA@ 0000000180058140     libcpmt:winapinls.obj
 0002:00004148       ??_C@_1O@BPEAJADD@?$AAz?$AAh?$AA?9?$AAC?$AAH?$AAS?$AA?$AA@ 0000000180058148     libcpmt:winapinls.obj
 0002:00004158       ??_C@_15LJNHCMNK@?$AAc?$AAs?$AA?$AA@ 0000000180058158     libcpmt:winapinls.obj
 0002:00004160       ??_C@_15FOMCIDHG@?$AAd?$AAa?$AA?$AA@ 0000000180058160     libcpmt:winapinls.obj
 0002:00004168       ??_C@_15NBKABECB@?$AAd?$AAe?$AA?$AA@ 0000000180058168     libcpmt:winapinls.obj
 0002:00004170       ??_C@_15GHPEIIAO@?$AAe?$AAl?$AA?$AA@ 0000000180058170     libcpmt:winapinls.obj
 0002:00004178       ??_C@_15MNPNEAIF@?$AAe?$AAn?$AA?$AA@ 0000000180058178     libcpmt:winapinls.obj
 0002:00004180       ??_C@_15GPIOMPMH@?$AAe?$AAs?$AA?$AA@ 0000000180058180     libcpmt:winapinls.obj
 0002:00004188       ??_C@_15NGLOAKJC@?$AAf?$AAi?$AA?$AA@ 0000000180058188     libcpmt:winapinls.obj
 0002:00004190       ??_C@_15FBKGNKAM@?$AAf?$AAr?$AA?$AA@ 0000000180058190     libcpmt:winapinls.obj
 0002:00004198       ??_C@_15KGGCNEFK@?$AAh?$AAe?$AA?$AA@ 0000000180058198     libcpmt:winapinls.obj
 0002:000041a0       ??_C@_15PGHLIDMF@?$AAh?$AAu?$AA?$AA@ 00000001800581a0     libcpmt:winapinls.obj
 0002:000041a8       ??_C@_15BIEMAPLM@?$AAi?$AAs?$AA?$AA@ 00000001800581a8     libcpmt:winapinls.obj
 0002:000041b0       ??_C@_15IFJLDHAF@?$AAi?$AAt?$AA?$AA@ 00000001800581b0     libcpmt:winapinls.obj
 0002:000041b8       ??_C@_15GEMIOCAG@?$AAj?$AAa?$AA?$AA@ 00000001800581b8     libcpmt:winapinls.obj
 0002:000041c0       ??_C@_15EPELEGJA@?$AAk?$AAo?$AA?$AA@ 00000001800581c0     libcpmt:winapinls.obj
 0002:000041c8       ??_C@_15NDDHIMN@?$AAn?$AAl?$AA?$AA@ 00000001800581c8     libcpmt:winapinls.obj
 0002:000041d0       ??_C@_15BPIGNHCD@?$AAn?$AAo?$AA?$AA@ 00000001800581d0     libcpmt:winapinls.obj
 0002:000041d8       ??_C@_15DEOPBLCG@?$AAp?$AAl?$AA?$AA@ 00000001800581d8     libcpmt:winapinls.obj
 0002:000041e0       ??_C@_15KBECGEFG@?$AAp?$AAt?$AA?$AA@ 00000001800581e0     libcpmt:winapinls.obj
 0002:000041e8       ??_C@_15GLJCBFMD@?$AAr?$AAo?$AA?$AA@ 00000001800581e8     libcpmt:winapinls.obj
 0002:000041f0       ??_C@_15FEDGKCDI@?$AAr?$AAu?$AA?$AA@ 00000001800581f0     libcpmt:winapinls.obj
 0002:000041f8       ??_C@_15GLKMLLHM@?$AAh?$AAr?$AA?$AA@ 00000001800581f8     libcpmt:winapinls.obj
 0002:00004200       ??_C@_15CPKMFBDB@?$AAs?$AAk?$AA?$AA@ 0000000180058200     libcpmt:winapinls.obj
 0002:00004208       ??_C@_15BAAIOGMK@?$AAs?$AAq?$AA?$AA@ 0000000180058208     libcpmt:winapinls.obj
 0002:00004210       ??_C@_15INNPNOHD@?$AAs?$AAv?$AA?$AA@ 0000000180058210     libcpmt:winapinls.obj
 0002:00004218       ??_C@_15CABMMOGH@?$AAt?$AAh?$AA?$AA@ 0000000180058218     libcpmt:winapinls.obj
 0002:00004220       ??_C@_15BPLIHJJM@?$AAt?$AAr?$AA?$AA@ 0000000180058220     libcpmt:winapinls.obj
 0002:00004228       ??_C@_15NEOEKKDJ@?$AAu?$AAr?$AA?$AA@ 0000000180058228     libcpmt:winapinls.obj
 0002:00004230       ??_C@_15NFICGAJK@?$AAi?$AAd?$AA?$AA@ 0000000180058230     libcpmt:winapinls.obj
 0002:00004238       ??_C@_15PJPFLCCM@?$AAu?$AAk?$AA?$AA@ 0000000180058238     libcpmt:winapinls.obj
 0002:00004240       ??_C@_15HPJPHDM@?$AAb?$AAe?$AA?$AA@ 0000000180058240     libcpmt:winapinls.obj
 0002:00004248       ??_C@_15LCHLGJII@?$AAs?$AAl?$AA?$AA@ 0000000180058248     libcpmt:winapinls.obj
 0002:00004250       ??_C@_15PCFJPHHO@?$AAe?$AAt?$AA?$AA@ 0000000180058250     libcpmt:winapinls.obj
 0002:00004258       ??_C@_15HPFPGODN@?$AAl?$AAv?$AA?$AA@ 0000000180058258     libcpmt:winapinls.obj
 0002:00004260       ??_C@_15NFFGKGLG@?$AAl?$AAt?$AA?$AA@ 0000000180058260     libcpmt:winapinls.obj
 0002:00004268       ??_C@_15BDAKCCHN@?$AAf?$AAa?$AA?$AA@ 0000000180058268     libcpmt:winapinls.obj
 0002:00004270       ??_C@_15NFGIAIAJ@?$AAv?$AAi?$AA?$AA@ 0000000180058270     libcpmt:winapinls.obj
 0002:00004278       ??_C@_15LMKNDMHN@?$AAh?$AAy?$AA?$AA@ 0000000180058278     libcpmt:winapinls.obj
 0002:00004280       ??_C@_15IJBHMCFL@?$AAa?$AAz?$AA?$AA@ 0000000180058280     libcpmt:winapinls.obj
 0002:00004288       ??_C@_15EKOFJABL@?$AAe?$AAu?$AA?$AA@ 0000000180058288     libcpmt:winapinls.obj
 0002:00004290       ??_C@_15BGHADCNK@?$AAm?$AAk?$AA?$AA@ 0000000180058290     libcpmt:winapinls.obj
 0002:00004298       ??_C@_15JDNICKHM@?$AAa?$AAf?$AA?$AA@ 0000000180058298     libcpmt:winapinls.obj
 0002:000042a0       ??_C@_15KPJEDBKD@?$AAk?$AAa?$AA?$AA@ 00000001800582a0     libcpmt:winapinls.obj
 0002:000042a8       ??_C@_15PDNFFFEO@?$AAf?$AAo?$AA?$AA@ 00000001800582a8     libcpmt:winapinls.obj
 0002:000042b0       ??_C@_15OMLEGLOC@?$AAh?$AAi?$AA?$AA@ 00000001800582b0     libcpmt:winapinls.obj
 0002:000042b8       ??_C@_15IDNNENKK@?$AAm?$AAs?$AA?$AA@ 00000001800582b8     libcpmt:winapinls.obj
 0002:000042c0       ??_C@_15MACJNBMH@?$AAk?$AAk?$AA?$AA@ 00000001800582c0     libcpmt:winapinls.obj
 0002:000042c8       ??_C@_15DKDJEOND@?$AAk?$AAy?$AA?$AA@ 00000001800582c8     libcpmt:winapinls.obj
 0002:000042d0       ??_C@_15DFGDLJBG@?$AAs?$AAw?$AA?$AA@ 00000001800582d0     libcpmt:winapinls.obj
 0002:000042d8       ??_C@_15BBFAICNG@?$AAu?$AAz?$AA?$AA@ 00000001800582d8     libcpmt:winapinls.obj
 0002:000042e0       ??_C@_15DKNDCGEA@?$AAt?$AAt?$AA?$AA@ 00000001800582e0     libcpmt:winapinls.obj
 0002:000042e8       ??_C@_15MGIFMDPL@?$AAp?$AAa?$AA?$AA@ 00000001800582e8     libcpmt:winapinls.obj
 0002:000042f0       ??_C@_15HCNDBBA@?$AAg?$AAu?$AA?$AA@ 00000001800582f0     libcpmt:winapinls.obj
 0002:000042f8       ??_C@_15FNBEIBON@?$AAt?$AAa?$AA?$AA@ 00000001800582f8     libcpmt:winapinls.obj
 0002:00004300       ??_C@_15NCHGBGLK@?$AAt?$AAe?$AA?$AA@ 0000000180058300     libcpmt:winapinls.obj
 0002:00004308       ??_C@_15PHPHCBPF@?$AAk?$AAn?$AA?$AA@ 0000000180058308     libcpmt:winapinls.obj
 0002:00004310       ??_C@_15DLGBCKMP@?$AAm?$AAr?$AA?$AA@ 0000000180058310     libcpmt:winapinls.obj
 0002:00004318       ??_C@_15EABBLBFF@?$AAs?$AAa?$AA?$AA@ 0000000180058318     libcpmt:winapinls.obj
 0002:00004320       ??_C@_15CBKOMCOI@?$AAm?$AAn?$AA?$AA@ 0000000180058320     libcpmt:winapinls.obj
 0002:00004328       ??_C@_15CKDMCJAF@?$AAg?$AAl?$AA?$AA@ 0000000180058328     libcpmt:winapinls.obj
 0002:00004330       ??_C@_17CNJFBPG@?$AAk?$AAo?$AAk?$AA?$AA@ 0000000180058330     libcpmt:winapinls.obj
 0002:00004338       ??_C@_17FFBJICPL@?$AAs?$AAy?$AAr?$AA?$AA@ 0000000180058338     libcpmt:winapinls.obj
 0002:00004340       ??_C@_17KPNDCPAF@?$AAd?$AAi?$AAv?$AA?$AA@ 0000000180058340     libcpmt:winapinls.obj
 0002:00004348       ??_C@_1M@OKAHONE@?$AAa?$AAr?$AA?9?$AAS?$AAA?$AA?$AA@ 0000000180058348     libcpmt:winapinls.obj
 0002:00004358       ??_C@_1M@FFFIGIGK@?$AAb?$AAg?$AA?9?$AAB?$AAG?$AA?$AA@ 0000000180058358     libcpmt:winapinls.obj
 0002:00004368       ??_C@_1M@BJNKEDC@?$AAc?$AAa?$AA?9?$AAE?$AAS?$AA?$AA@ 0000000180058368     libcpmt:winapinls.obj
 0002:00004378       ??_C@_1M@CLNBBOPM@?$AAz?$AAh?$AA?9?$AAT?$AAW?$AA?$AA@ 0000000180058378     libcpmt:winapinls.obj
 0002:00004388       ??_C@_1M@IJJHFJHA@?$AAc?$AAs?$AA?9?$AAC?$AAZ?$AA?$AA@ 0000000180058388     libcpmt:winapinls.obj
 0002:00004398       ??_C@_1M@CLPEOBGI@?$AAd?$AAa?$AA?9?$AAD?$AAK?$AA?$AA@ 0000000180058398     libcpmt:winapinls.obj
 0002:000043a8       ??_C@_1M@MCMADGCB@?$AAd?$AAe?$AA?9?$AAD?$AAE?$AA?$AA@ 00000001800583a8     libcpmt:winapinls.obj
 0002:000043b8       ??_C@_1M@OOCKEMAM@?$AAe?$AAl?$AA?9?$AAG?$AAR?$AA?$AA@ 00000001800583b8     libcpmt:winapinls.obj
 0002:000043c8       ??_C@_1M@BMHNFIME@?$AAe?$AAn?$AA?9?$AAU?$AAS?$AA?$AA@ 00000001800583c8     libcpmt:winapinls.obj
 0002:000043d8       ??_C@_1M@DDNJFGID@?$AAf?$AAi?$AA?9?$AAF?$AAI?$AA?$AA@ 00000001800583d8     libcpmt:winapinls.obj
 0002:000043e8       ??_C@_1M@GLIPPMAC@?$AAf?$AAr?$AA?9?$AAF?$AAR?$AA?$AA@ 00000001800583e8     libcpmt:winapinls.obj
 0002:000043f8       ??_C@_1M@GFMCHPE@?$AAh?$AAe?$AA?9?$AAI?$AAL?$AA?$AA@ 00000001800583f8     libcpmt:winapinls.obj
 0002:00004408       ??_C@_1M@MHLPGNKM@?$AAh?$AAu?$AA?9?$AAH?$AAU?$AA?$AA@ 0000000180058408     libcpmt:winapinls.obj
 0002:00004418       ??_C@_1M@LPDDNNPN@?$AAi?$AAs?$AA?9?$AAI?$AAS?$AA?$AA@ 0000000180058418     libcpmt:winapinls.obj
 0002:00004428       ??_C@_1M@MADIPODN@?$AAi?$AAt?$AA?9?$AAI?$AAT?$AA?$AA@ 0000000180058428     libcpmt:winapinls.obj
 0002:00004438       ??_C@_1M@HPNHIDJI@?$AAj?$AAa?$AA?9?$AAJ?$AAP?$AA?$AA@ 0000000180058438     libcpmt:winapinls.obj
 0002:00004448       ??_C@_1M@JLOOOEGK@?$AAk?$AAo?$AA?9?$AAK?$AAR?$AA?$AA@ 0000000180058448     libcpmt:winapinls.obj
 0002:00004458       ??_C@_1M@IHBJJGG@?$AAn?$AAl?$AA?9?$AAN?$AAL?$AA?$AA@ 0000000180058458     libcpmt:winapinls.obj
 0002:00004468       ??_C@_1M@EANAGDL@?$AAn?$AAb?$AA?9?$AAN?$AAO?$AA?$AA@ 0000000180058468     libcpmt:winapinls.obj
 0002:00004478       ??_C@_1M@NEIEMEGP@?$AAp?$AAl?$AA?9?$AAP?$AAL?$AA?$AA@ 0000000180058478     libcpmt:winapinls.obj
 0002:00004488       ??_C@_1M@BOCFIGEP@?$AAp?$AAt?$AA?9?$AAB?$AAR?$AA?$AA@ 0000000180058488     libcpmt:winapinls.obj
 0002:00004498       ??_C@_1M@IMPFOPBG@?$AAr?$AAo?$AA?9?$AAR?$AAO?$AA?$AA@ 0000000180058498     libcpmt:winapinls.obj
 0002:000044a8       ??_C@_1M@IDNNEJMM@?$AAr?$AAu?$AA?9?$AAR?$AAU?$AA?$AA@ 00000001800584a8     libcpmt:winapinls.obj
 0002:000044b8       ??_C@_1M@LILEEOGM@?$AAh?$AAr?$AA?9?$AAH?$AAR?$AA?$AA@ 00000001800584b8     libcpmt:winapinls.obj
 0002:000044c8       ??_C@_1M@FKIFEHPB@?$AAs?$AAk?$AA?9?$AAS?$AAK?$AA?$AA@ 00000001800584c8     libcpmt:winapinls.obj
 0002:000044d8       ??_C@_1M@LJMAMNPJ@?$AAs?$AAq?$AA?9?$AAA?$AAL?$AA?$AA@ 00000001800584d8     libcpmt:winapinls.obj
 0002:000044e8       ??_C@_1M@GIAKDKJK@?$AAs?$AAv?$AA?9?$AAS?$AAE?$AA?$AA@ 00000001800584e8     libcpmt:winapinls.obj
 0002:000044f8       ??_C@_1M@MKJKIKCL@?$AAt?$AAh?$AA?9?$AAT?$AAH?$AA?$AA@ 00000001800584f8     libcpmt:winapinls.obj
 0002:00004508       ??_C@_1M@MFLCCMPB@?$AAt?$AAr?$AA?9?$AAT?$AAR?$AA?$AA@ 0000000180058508     libcpmt:winapinls.obj
 0002:00004518       ??_C@_1M@OIJHDKJN@?$AAu?$AAr?$AA?9?$AAP?$AAK?$AA?$AA@ 0000000180058518     libcpmt:winapinls.obj
 0002:00004528       ??_C@_1M@LHIPCIEK@?$AAi?$AAd?$AA?9?$AAI?$AAD?$AA?$AA@ 0000000180058528     libcpmt:winapinls.obj
 0002:00004538       ??_C@_1M@MFMOBGI@?$AAu?$AAk?$AA?9?$AAU?$AAA?$AA?$AA@ 0000000180058538     libcpmt:winapinls.obj
 0002:00004548       ??_C@_1M@OBGLJIPL@?$AAb?$AAe?$AA?9?$AAB?$AAY?$AA?$AA@ 0000000180058548     libcpmt:winapinls.obj
 0002:00004558       ??_C@_1M@BCFAJEAD@?$AAs?$AAl?$AA?9?$AAS?$AAI?$AA?$AA@ 0000000180058558     libcpmt:winapinls.obj
 0002:00004568       ??_C@_1M@FKFFEDDN@?$AAe?$AAt?$AA?9?$AAE?$AAE?$AA?$AA@ 0000000180058568     libcpmt:winapinls.obj
 0002:00004578       ??_C@_1M@KGKKAACI@?$AAl?$AAv?$AA?9?$AAL?$AAV?$AA?$AA@ 0000000180058578     libcpmt:winapinls.obj
 0002:00004588       ??_C@_1M@IFGBIJO@?$AAl?$AAt?$AA?9?$AAL?$AAT?$AA?$AA@ 0000000180058588     libcpmt:winapinls.obj
 0002:00004598       ??_C@_1M@FGEAHEDM@?$AAf?$AAa?$AA?9?$AAI?$AAR?$AA?$AA@ 0000000180058598     libcpmt:winapinls.obj
 0002:000045a8       ??_C@_1M@KBMAIBFN@?$AAv?$AAi?$AA?9?$AAV?$AAN?$AA?$AA@ 00000001800585a8     libcpmt:winapinls.obj
 0002:000045b8       ??_C@_1M@GPCBKDJK@?$AAh?$AAy?$AA?9?$AAA?$AAM?$AA?$AA@ 00000001800585b8     libcpmt:winapinls.obj
 0002:000045c8       ??_C@_1BG@BECMDDJB@?$AAa?$AAz?$AA?9?$AAA?$AAZ?$AA?9?$AAL?$AAa?$AAt?$AAn?$AA?$AA@ 00000001800585c8     libcpmt:winapinls.obj
 0002:000045e0       ??_C@_1M@MAOFCAEA@?$AAe?$AAu?$AA?9?$AAE?$AAS?$AA?$AA@ 00000001800585e0     libcpmt:winapinls.obj
 0002:000045f0       ??_C@_1M@IGHABKPI@?$AAm?$AAk?$AA?9?$AAM?$AAK?$AA?$AA@ 00000001800585f0     libcpmt:winapinls.obj
 0002:00004600       ??_C@_1M@IAIGNEJG@?$AAt?$AAn?$AA?9?$AAZ?$AAA?$AA?$AA@ 0000000180058600     libcpmt:winapinls.obj
 0002:00004610       ??_C@_1M@IIJCOJFA@?$AAx?$AAh?$AA?9?$AAZ?$AAA?$AA?$AA@ 0000000180058610     libcpmt:winapinls.obj
 0002:00004620       ??_C@_1M@LGPJHNJH@?$AAz?$AAu?$AA?9?$AAZ?$AAA?$AA?$AA@ 0000000180058620     libcpmt:winapinls.obj
 0002:00004630       ??_C@_1M@HOKAOIO@?$AAa?$AAf?$AA?9?$AAZ?$AAA?$AA?$AA@ 0000000180058630     libcpmt:winapinls.obj
 0002:00004640       ??_C@_1M@DPCLHLIE@?$AAk?$AAa?$AA?9?$AAG?$AAE?$AA?$AA@ 0000000180058640     libcpmt:winapinls.obj
 0002:00004650       ??_C@_1M@BLKMHJBI@?$AAf?$AAo?$AA?9?$AAF?$AAO?$AA?$AA@ 0000000180058650     libcpmt:winapinls.obj
 0002:00004660       ??_C@_1M@LGGJAPPB@?$AAh?$AAi?$AA?9?$AAI?$AAN?$AA?$AA@ 0000000180058660     libcpmt:winapinls.obj
 0002:00004670       ??_C@_1M@FIKPIHFE@?$AAm?$AAt?$AA?9?$AAM?$AAT?$AA?$AA@ 0000000180058670     libcpmt:winapinls.obj
 0002:00004680       ??_C@_1M@HEGGPBFA@?$AAs?$AAe?$AA?9?$AAN?$AAO?$AA?$AA@ 0000000180058680     libcpmt:winapinls.obj
 0002:00004690       ??_C@_1M@EIBJEEPA@?$AAm?$AAs?$AA?9?$AAM?$AAY?$AA?$AA@ 0000000180058690     libcpmt:winapinls.obj
 0002:000046a0       ??_C@_1M@FHLBGMPP@?$AAk?$AAk?$AA?9?$AAK?$AAZ?$AA?$AA@ 00000001800586a0     libcpmt:winapinls.obj
 0002:000046b0       ??_C@_1M@NGJJLCGI@?$AAk?$AAy?$AA?9?$AAK?$AAG?$AA?$AA@ 00000001800586b0     libcpmt:winapinls.obj
 0002:000046c0       ??_C@_1M@GIENNBFC@?$AAs?$AAw?$AA?9?$AAK?$AAE?$AA?$AA@ 00000001800586c0     libcpmt:winapinls.obj
 0002:000046d0       ??_C@_1BG@NDGMJIMJ@?$AAu?$AAz?$AA?9?$AAU?$AAZ?$AA?9?$AAL?$AAa?$AAt?$AAn?$AA?$AA@ 00000001800586d0     libcpmt:winapinls.obj
 0002:000046e8       ??_C@_1M@IDCCIHBC@?$AAt?$AAt?$AA?9?$AAR?$AAU?$AA?$AA@ 00000001800586e8     libcpmt:winapinls.obj
 0002:000046f8       ??_C@_1M@LOICPMOJ@?$AAb?$AAn?$AA?9?$AAI?$AAN?$AA?$AA@ 00000001800586f8     libcpmt:winapinls.obj
 0002:00004708       ??_C@_1M@KPKKNEAH@?$AAp?$AAa?$AA?9?$AAI?$AAN?$AA?$AA@ 0000000180058708     libcpmt:winapinls.obj
 0002:00004718       ??_C@_1M@PJGPPBOG@?$AAg?$AAu?$AA?9?$AAI?$AAN?$AA?$AA@ 0000000180058718     libcpmt:winapinls.obj
 0002:00004728       ??_C@_1M@KMKMOPHI@?$AAt?$AAa?$AA?9?$AAI?$AAN?$AA?$AA@ 0000000180058728     libcpmt:winapinls.obj
 0002:00004738       ??_C@_1M@KFEHEPAC@?$AAt?$AAe?$AA?9?$AAI?$AAN?$AA?$AA@ 0000000180058738     libcpmt:winapinls.obj
 0002:00004748       ??_C@_1M@CDCLMGHI@?$AAk?$AAn?$AA?9?$AAI?$AAN?$AA?$AA@ 0000000180058748     libcpmt:winapinls.obj
 0002:00004758       ??_C@_1M@MIODLDKF@?$AAm?$AAl?$AA?9?$AAI?$AAN?$AA?$AA@ 0000000180058758     libcpmt:winapinls.obj
 0002:00004768       ??_C@_1M@PBIEACPO@?$AAm?$AAr?$AA?9?$AAI?$AAN?$AA?$AA@ 0000000180058768     libcpmt:winapinls.obj
 0002:00004778       ??_C@_1M@NIDEAGPH@?$AAs?$AAa?$AA?9?$AAI?$AAN?$AA?$AA@ 0000000180058778     libcpmt:winapinls.obj
 0002:00004788       ??_C@_1M@FHIHCBIO@?$AAm?$AAn?$AA?9?$AAM?$AAN?$AA?$AA@ 0000000180058788     libcpmt:winapinls.obj
 0002:00004798       ??_C@_1M@JAIJPENP@?$AAc?$AAy?$AA?9?$AAG?$AAB?$AA?$AA@ 0000000180058798     libcpmt:winapinls.obj
 0002:000047a8       ??_C@_1M@PHGFBEPN@?$AAg?$AAl?$AA?9?$AAE?$AAS?$AA?$AA@ 00000001800587a8     libcpmt:winapinls.obj
 0002:000047b8       ??_C@_1O@KPIPDNCP@?$AAk?$AAo?$AAk?$AA?9?$AAI?$AAN?$AA?$AA@ 00000001800587b8     libcpmt:winapinls.obj
 0002:000047c8       ??_C@_1O@KNHJLDJA@?$AAs?$AAy?$AAr?$AA?9?$AAS?$AAY?$AA?$AA@ 00000001800587c8     libcpmt:winapinls.obj
 0002:000047d8       ??_C@_1O@MKEKBLAH@?$AAd?$AAi?$AAv?$AA?9?$AAM?$AAV?$AA?$AA@ 00000001800587d8     libcpmt:winapinls.obj
 0002:000047e8       ??_C@_1O@OHDCKDDF@?$AAq?$AAu?$AAz?$AA?9?$AAB?$AAO?$AA?$AA@ 00000001800587e8     libcpmt:winapinls.obj
 0002:000047f8       ??_C@_1M@LEPJNLFD@?$AAn?$AAs?$AA?9?$AAZ?$AAA?$AA?$AA@ 00000001800587f8     libcpmt:winapinls.obj
 0002:00004808       ??_C@_1M@OMLEIIJB@?$AAm?$AAi?$AA?9?$AAN?$AAZ?$AA?$AA@ 0000000180058808     libcpmt:winapinls.obj
 0002:00004818       ??_C@_1M@PMPEAILG@?$AAa?$AAr?$AA?9?$AAI?$AAQ?$AA?$AA@ 0000000180058818     libcpmt:winapinls.obj
 0002:00004828       ??_C@_1M@BIBDDEMK@?$AAz?$AAh?$AA?9?$AAC?$AAN?$AA?$AA@ 0000000180058828     libcpmt:winapinls.obj
 0002:00004838       ??_C@_1M@CNKPNOEE@?$AAd?$AAe?$AA?9?$AAC?$AAH?$AA?$AA@ 0000000180058838     libcpmt:winapinls.obj
 0002:00004848       ??_C@_1M@LKMGMLKO@?$AAe?$AAn?$AA?9?$AAG?$AAB?$AA?$AA@ 0000000180058848     libcpmt:winapinls.obj
 0002:00004858       ??_C@_1M@PGKJFFGL@?$AAe?$AAs?$AA?9?$AAM?$AAX?$AA?$AA@ 0000000180058858     libcpmt:winapinls.obj
 0002:00004868       ??_C@_1M@DNNANBDC@?$AAf?$AAr?$AA?9?$AAB?$AAE?$AA?$AA@ 0000000180058868     libcpmt:winapinls.obj
 0002:00004878       ??_C@_1M@HLGMDFHM@?$AAi?$AAt?$AA?9?$AAC?$AAH?$AA?$AA@ 0000000180058878     libcpmt:winapinls.obj
 0002:00004888       ??_C@_1M@CLLBGJH@?$AAn?$AAl?$AA?9?$AAB?$AAE?$AA?$AA@ 0000000180058888     libcpmt:winapinls.obj
 0002:00004898       ??_C@_1M@BODBOGLF@?$AAn?$AAn?$AA?9?$AAN?$AAO?$AA?$AA@ 0000000180058898     libcpmt:winapinls.obj
 0002:000048a8       ??_C@_1M@HFFAHKAD@?$AAp?$AAt?$AA?9?$AAP?$AAT?$AA?$AA@ 00000001800588a8     libcpmt:winapinls.obj
 0002:000048b8       ??_C@_1BG@LNOAKHIE@?$AAs?$AAr?$AA?9?$AAS?$AAP?$AA?9?$AAL?$AAa?$AAt?$AAn?$AA?$AA@ 00000001800588b8     libcpmt:winapinls.obj
 0002:000048d0       ??_C@_1M@HBMHBGAK@?$AAs?$AAv?$AA?9?$AAF?$AAI?$AA?$AA@ 00000001800588d0     libcpmt:winapinls.obj
 0002:000048e0       ??_C@_1BG@DGCJGJBE@?$AAa?$AAz?$AA?9?$AAA?$AAZ?$AA?9?$AAC?$AAy?$AAr?$AAl?$AA?$AA@ 00000001800588e0     libcpmt:winapinls.obj
 0002:000048f8       ??_C@_1M@KEJDAAHB@?$AAs?$AAe?$AA?9?$AAS?$AAE?$AA?$AA@ 00000001800588f8     libcpmt:winapinls.obj
 0002:00004908       ??_C@_1M@HEIBJJAD@?$AAm?$AAs?$AA?9?$AAB?$AAN?$AA?$AA@ 0000000180058908     libcpmt:winapinls.obj
 0002:00004918       ??_C@_1BG@PBGJMCEM@?$AAu?$AAz?$AA?9?$AAU?$AAZ?$AA?9?$AAC?$AAy?$AAr?$AAl?$AA?$AA@ 0000000180058918     libcpmt:winapinls.obj
 0002:00004930       ??_C@_1O@LAOBCMDF@?$AAq?$AAu?$AAz?$AA?9?$AAE?$AAC?$AA?$AA@ 0000000180058930     libcpmt:winapinls.obj
 0002:00004940       ??_C@_1M@POEEMAIO@?$AAa?$AAr?$AA?9?$AAE?$AAG?$AA?$AA@ 0000000180058940     libcpmt:winapinls.obj
 0002:00004950       ??_C@_1M@EFAKDEDL@?$AAz?$AAh?$AA?9?$AAH?$AAK?$AA?$AA@ 0000000180058950     libcpmt:winapinls.obj
 0002:00004960       ??_C@_1M@HKKIJHGI@?$AAd?$AAe?$AA?9?$AAA?$AAT?$AA?$AA@ 0000000180058960     libcpmt:winapinls.obj
 0002:00004970       ??_C@_1M@KBFBEHJF@?$AAe?$AAn?$AA?9?$AAA?$AAU?$AA?$AA@ 0000000180058970     libcpmt:winapinls.obj
 0002:00004980       ??_C@_1M@MNPLFAAH@?$AAe?$AAs?$AA?9?$AAE?$AAS?$AA?$AA@ 0000000180058980     libcpmt:winapinls.obj
 0002:00004990       ??_C@_1M@HJOOJFMA@?$AAf?$AAr?$AA?9?$AAC?$AAA?$AA?$AA@ 0000000180058990     libcpmt:winapinls.obj
 0002:000049a0       ??_C@_1BG@JPOFPNAB@?$AAs?$AAr?$AA?9?$AAS?$AAP?$AA?9?$AAC?$AAy?$AAr?$AAl?$AA?$AA@ 00000001800589a0     libcpmt:winapinls.obj
 0002:000049b8       ??_C@_1M@LNFOCMOB@?$AAs?$AAe?$AA?9?$AAF?$AAI?$AA?$AA@ 00000001800589b8     libcpmt:winapinls.obj
 0002:000049c8       ??_C@_1O@MGJBOAMB@?$AAq?$AAu?$AAz?$AA?9?$AAP?$AAE?$AA?$AA@ 00000001800589c8     libcpmt:winapinls.obj
 0002:000049d8       ??_C@_1M@GJINLBOK@?$AAa?$AAr?$AA?9?$AAL?$AAY?$AA?$AA@ 00000001800589d8     libcpmt:winapinls.obj
 0002:000049e8       ??_C@_1M@GGMNHJNL@?$AAz?$AAh?$AA?9?$AAS?$AAG?$AA?$AA@ 00000001800589e8     libcpmt:winapinls.obj
 0002:000049f8       ??_C@_1M@HOIKODND@?$AAd?$AAe?$AA?9?$AAL?$AAU?$AA?$AA@ 00000001800589f8     libcpmt:winapinls.obj
 0002:00004a08       ??_C@_1M@DDOCCGFG@?$AAe?$AAn?$AA?9?$AAC?$AAA?$AA?$AA@ 0000000180058a08     libcpmt:winapinls.obj
 0002:00004a18       ??_C@_1M@BNOEMJLF@?$AAe?$AAs?$AA?9?$AAG?$AAT?$AA?$AA@ 0000000180058a18     libcpmt:winapinls.obj
 0002:00004a28       ??_C@_1M@EOGNKEK@?$AAf?$AAr?$AA?9?$AAC?$AAH?$AA?$AA@ 0000000180058a28     libcpmt:winapinls.obj
 0002:00004a38       ??_C@_1M@FLIDJFHL@?$AAh?$AAr?$AA?9?$AAB?$AAA?$AA?$AA@ 0000000180058a38     libcpmt:winapinls.obj
 0002:00004a48       ??_C@_1O@FMCELNAJ@?$AAs?$AAm?$AAj?$AA?9?$AAN?$AAO?$AA?$AA@ 0000000180058a48     libcpmt:winapinls.obj
 0002:00004a58       ??_C@_1M@JHGLJMGJ@?$AAa?$AAr?$AA?9?$AAD?$AAZ?$AA?$AA@ 0000000180058a58     libcpmt:winapinls.obj
 0002:00004a68       ??_C@_1M@JKKFDCNP@?$AAz?$AAh?$AA?9?$AAM?$AAO?$AA?$AA@ 0000000180058a68     libcpmt:winapinls.obj
 0002:00004a78       ??_C@_1M@GEEFALPE@?$AAd?$AAe?$AA?9?$AAL?$AAI?$AA?$AA@ 0000000180058a78     libcpmt:winapinls.obj
 0002:00004a88       ??_C@_1M@IGEOFBG@?$AAe?$AAn?$AA?9?$AAN?$AAZ?$AA?$AA@ 0000000180058a88     libcpmt:winapinls.obj
 0002:00004a98       ??_C@_1M@KDBONEHP@?$AAe?$AAs?$AA?9?$AAC?$AAR?$AA?$AA@ 0000000180058a98     libcpmt:winapinls.obj
 0002:00004aa8       ??_C@_1M@FHMDOHNN@?$AAf?$AAr?$AA?9?$AAL?$AAU?$AA?$AA@ 0000000180058aa8     libcpmt:winapinls.obj
 0002:00004ab8       ??_C@_1BG@NFKKMAFG@?$AAb?$AAs?$AA?9?$AAB?$AAA?$AA?9?$AAL?$AAa?$AAt?$AAn?$AA?$AA@ 0000000180058ab8     libcpmt:winapinls.obj
 0002:00004ad0       ??_C@_1O@IMNBEMCI@?$AAs?$AAm?$AAj?$AA?9?$AAS?$AAE?$AA?$AA@ 0000000180058ad0     libcpmt:winapinls.obj
 0002:00004ae0       ??_C@_1M@DHHMBNDP@?$AAa?$AAr?$AA?9?$AAM?$AAA?$AA?$AA@ 0000000180058ae0     libcpmt:winapinls.obj
 0002:00004af0       ??_C@_1M@BNBLJCGH@?$AAe?$AAn?$AA?9?$AAI?$AAE?$AA?$AA@ 0000000180058af0     libcpmt:winapinls.obj
 0002:00004b00       ??_C@_1M@GEPAFMDL@?$AAe?$AAs?$AA?9?$AAP?$AAA?$AA?$AA@ 0000000180058b00     libcpmt:winapinls.obj
 0002:00004b10       ??_C@_1M@OJONDMDL@?$AAf?$AAr?$AA?9?$AAM?$AAC?$AA?$AA@ 0000000180058b10     libcpmt:winapinls.obj
 0002:00004b20       ??_C@_1BG@OBCNFJB@?$AAs?$AAr?$AA?9?$AAB?$AAA?$AA?9?$AAL?$AAa?$AAt?$AAn?$AA?$AA@ 0000000180058b20     libcpmt:winapinls.obj
 0002:00004b38       ??_C@_1O@KEMEEGPO@?$AAs?$AAm?$AAa?$AA?9?$AAN?$AAO?$AA?$AA@ 0000000180058b38     libcpmt:winapinls.obj
 0002:00004b48       ??_C@_1M@ELMGFODK@?$AAa?$AAr?$AA?9?$AAT?$AAN?$AA?$AA@ 0000000180058b48     libcpmt:winapinls.obj
 0002:00004b58       ??_C@_1M@BHDLHFAF@?$AAe?$AAn?$AA?9?$AAZ?$AAA?$AA?$AA@ 0000000180058b58     libcpmt:winapinls.obj
 0002:00004b68       ??_C@_1M@BMGIGLIF@?$AAe?$AAs?$AA?9?$AAD?$AAO?$AA?$AA@ 0000000180058b68     libcpmt:winapinls.obj
 0002:00004b78       ??_C@_1BG@CMBHIPBE@?$AAs?$AAr?$AA?9?$AAB?$AAA?$AA?9?$AAC?$AAy?$AAr?$AAl?$AA?$AA@ 0000000180058b78     libcpmt:winapinls.obj
 0002:00004b90       ??_C@_1O@HEDBLHNP@?$AAs?$AAm?$AAa?$AA?9?$AAS?$AAE?$AA?$AA@ 0000000180058b90     libcpmt:winapinls.obj
 0002:00004ba0       ??_C@_1M@DAGCADIM@?$AAa?$AAr?$AA?9?$AAO?$AAM?$AA?$AA@ 0000000180058ba0     libcpmt:winapinls.obj
 0002:00004bb0       ??_C@_1M@FODLMICG@?$AAe?$AAn?$AA?9?$AAJ?$AAM?$AA?$AA@ 0000000180058bb0     libcpmt:winapinls.obj
 0002:00004bc0       ??_C@_1M@DNMLCIHB@?$AAe?$AAs?$AA?9?$AAV?$AAE?$AA?$AA@ 0000000180058bc0     libcpmt:winapinls.obj
 0002:00004bd0       ??_C@_1O@EOKHMKJK@?$AAs?$AAm?$AAs?$AA?9?$AAF?$AAI?$AA?$AA@ 0000000180058bd0     libcpmt:winapinls.obj
 0002:00004be0       ??_C@_1M@CAFJMKOF@?$AAa?$AAr?$AA?9?$AAY?$AAE?$AA?$AA@ 0000000180058be0     libcpmt:winapinls.obj
 0002:00004bf0       ??_C@_1M@CBFHIJLI@?$AAe?$AAn?$AA?9?$AAC?$AAB?$AA?$AA@ 0000000180058bf0     libcpmt:winapinls.obj
 0002:00004c00       ??_C@_1M@BGNFLDN@?$AAe?$AAs?$AA?9?$AAC?$AAO?$AA?$AA@ 0000000180058c00     libcpmt:winapinls.obj
 0002:00004c10       ??_C@_1O@JMPHMAMC@?$AAs?$AAm?$AAn?$AA?9?$AAF?$AAI?$AA?$AA@ 0000000180058c10     libcpmt:winapinls.obj
 0002:00004c20       ??_C@_1M@JLANABKE@?$AAa?$AAr?$AA?9?$AAS?$AAY?$AA?$AA@ 0000000180058c20     libcpmt:winapinls.obj
 0002:00004c30       ??_C@_1M@HPKGCFGN@?$AAe?$AAn?$AA?9?$AAB?$AAZ?$AA?$AA@ 0000000180058c30     libcpmt:winapinls.obj
 0002:00004c40       ??_C@_1M@OLJCMLGM@?$AAe?$AAs?$AA?9?$AAP?$AAE?$AA?$AA@ 0000000180058c40     libcpmt:winapinls.obj
 0002:00004c50       ??_C@_1M@MKKGFKLE@?$AAa?$AAr?$AA?9?$AAJ?$AAO?$AA?$AA@ 0000000180058c50     libcpmt:winapinls.obj
 0002:00004c60       ??_C@_1M@EKPGLDNI@?$AAe?$AAn?$AA?9?$AAT?$AAT?$AA?$AA@ 0000000180058c60     libcpmt:winapinls.obj
 0002:00004c70       ??_C@_1M@OONGHFHE@?$AAe?$AAs?$AA?9?$AAA?$AAR?$AA?$AA@ 0000000180058c70     libcpmt:winapinls.obj
 0002:00004c80       ??_C@_1M@OOJFGBHE@?$AAa?$AAr?$AA?9?$AAL?$AAB?$AA?$AA@ 0000000180058c80     libcpmt:winapinls.obj
 0002:00004c90       ??_C@_1M@GCEJHNEG@?$AAe?$AAn?$AA?9?$AAZ?$AAW?$AA?$AA@ 0000000180058c90     libcpmt:winapinls.obj
 0002:00004ca0       ??_C@_1M@JNOCAHJI@?$AAe?$AAs?$AA?9?$AAE?$AAC?$AA?$AA@ 0000000180058ca0     libcpmt:winapinls.obj
 0002:00004cb0       ??_C@_1M@JEFHPGGB@?$AAa?$AAr?$AA?9?$AAK?$AAW?$AA?$AA@ 0000000180058cb0     libcpmt:winapinls.obj
 0002:00004cc0       ??_C@_1M@MLKIBJOJ@?$AAe?$AAn?$AA?9?$AAP?$AAH?$AA?$AA@ 0000000180058cc0     libcpmt:winapinls.obj
 0002:00004cd0       ??_C@_1M@BDNIPEND@?$AAe?$AAs?$AA?9?$AAC?$AAL?$AA?$AA@ 0000000180058cd0     libcpmt:winapinls.obj
 0002:00004ce0       ??_C@_1M@MPNMEKBD@?$AAa?$AAr?$AA?9?$AAA?$AAE?$AA?$AA@ 0000000180058ce0     libcpmt:winapinls.obj
 0002:00004cf0       ??_C@_1M@KBJALCPI@?$AAe?$AAs?$AA?9?$AAU?$AAY?$AA?$AA@ 0000000180058cf0     libcpmt:winapinls.obj
 0002:00004d00       ??_C@_1M@LLCCOAGA@?$AAa?$AAr?$AA?9?$AAB?$AAH?$AA?$AA@ 0000000180058d00     libcpmt:winapinls.obj
 0002:00004d10       ??_C@_1M@PBFNCDEL@?$AAe?$AAs?$AA?9?$AAP?$AAY?$AA?$AA@ 0000000180058d10     libcpmt:winapinls.obj
 0002:00004d20       ??_C@_1M@EDGINPNP@?$AAa?$AAr?$AA?9?$AAQ?$AAA?$AA?$AA@ 0000000180058d20     libcpmt:winapinls.obj
 0002:00004d30       ??_C@_1M@MKDBIIJI@?$AAe?$AAs?$AA?9?$AAB?$AAO?$AA?$AA@ 0000000180058d30     libcpmt:winapinls.obj
 0002:00004d40       ??_C@_1M@CPKKEBLD@?$AAe?$AAs?$AA?9?$AAS?$AAV?$AA?$AA@ 0000000180058d40     libcpmt:winapinls.obj
 0002:00004d50       ??_C@_1M@NDBGMMJL@?$AAe?$AAs?$AA?9?$AAH?$AAN?$AA?$AA@ 0000000180058d50     libcpmt:winapinls.obj
 0002:00004d60       ??_C@_1M@JIJIBHDP@?$AAe?$AAs?$AA?9?$AAN?$AAI?$AA?$AA@ 0000000180058d60     libcpmt:winapinls.obj
 0002:00004d70       ??_C@_1M@CGFMKEEK@?$AAe?$AAs?$AA?9?$AAP?$AAR?$AA?$AA@ 0000000180058d70     libcpmt:winapinls.obj
 0002:00004d80       ??_C@_1O@ICJHKIIK@?$AAz?$AAh?$AA?9?$AAC?$AAH?$AAT?$AA?$AA@ 0000000180058d80     libcpmt:winapinls.obj
 0002:00004d90       ??_C@_15CLNEJCE@?$AAs?$AAr?$AA?$AA@ 0000000180058d90     libcpmt:winapinls.obj
 0002:00004d98       ??_C@_1M@KAHEKEIG@?$AAa?$AAf?$AA?9?$AAz?$AAa?$AA?$AA@ 0000000180058d98     libcpmt:winapinls.obj
 0002:00004da8       ??_C@_1M@GIECOABL@?$AAa?$AAr?$AA?9?$AAa?$AAe?$AA?$AA@ 0000000180058da8     libcpmt:winapinls.obj
 0002:00004db8       ??_C@_1M@BMLMEKGI@?$AAa?$AAr?$AA?9?$AAb?$AAh?$AA?$AA@ 0000000180058db8     libcpmt:winapinls.obj
 0002:00004dc8       ??_C@_1M@DAPFDGGB@?$AAa?$AAr?$AA?9?$AAd?$AAz?$AA?$AA@ 0000000180058dc8     libcpmt:winapinls.obj
 0002:00004dd8       ??_C@_1M@FJNKGKIG@?$AAa?$AAr?$AA?9?$AAe?$AAg?$AA?$AA@ 0000000180058dd8     libcpmt:winapinls.obj
 0002:00004de8       ??_C@_1M@FLGKKCLO@?$AAa?$AAr?$AA?9?$AAi?$AAq?$AA?$AA@ 0000000180058de8     libcpmt:winapinls.obj
 0002:00004df8       ??_C@_1M@GNDIPALM@?$AAa?$AAr?$AA?9?$AAj?$AAo?$AA?$AA@ 0000000180058df8     libcpmt:winapinls.obj
 0002:00004e08       ??_C@_1M@DDMJFMGJ@?$AAa?$AAr?$AA?9?$AAk?$AAw?$AA?$AA@ 0000000180058e08     libcpmt:winapinls.obj
 0002:00004e18       ??_C@_1M@EJALMLHM@?$AAa?$AAr?$AA?9?$AAl?$AAb?$AA?$AA@ 0000000180058e18     libcpmt:winapinls.obj
 0002:00004e28       ??_C@_1M@MOBDBLOC@?$AAa?$AAr?$AA?9?$AAl?$AAy?$AA?$AA@ 0000000180058e28     libcpmt:winapinls.obj
 0002:00004e38       ??_C@_1M@JAOCLHDH@?$AAa?$AAr?$AA?9?$AAm?$AAa?$AA?$AA@ 0000000180058e38     libcpmt:winapinls.obj
 0002:00004e48       ??_C@_1M@JHPMKJIE@?$AAa?$AAr?$AA?9?$AAo?$AAm?$AA?$AA@ 0000000180058e48     libcpmt:winapinls.obj
 0002:00004e58       ??_C@_1M@OEPGHFNH@?$AAa?$AAr?$AA?9?$AAq?$AAa?$AA?$AA@ 0000000180058e58     libcpmt:winapinls.obj
 0002:00004e68       ??_C@_1M@KJDONENM@?$AAa?$AAr?$AA?9?$AAs?$AAa?$AA?$AA@ 0000000180058e68     libcpmt:winapinls.obj
 0002:00004e78       ??_C@_1M@DMJDKLKM@?$AAa?$AAr?$AA?9?$AAs?$AAy?$AA?$AA@ 0000000180058e78     libcpmt:winapinls.obj
 0002:00004e88       ??_C@_1M@OMFIPEDC@?$AAa?$AAr?$AA?9?$AAt?$AAn?$AA?$AA@ 0000000180058e88     libcpmt:winapinls.obj
 0002:00004e98       ??_C@_1M@IHMHGAON@?$AAa?$AAr?$AA?9?$AAy?$AAe?$AA?$AA@ 0000000180058e98     libcpmt:winapinls.obj
 0002:00004ea8       ??_C@_1BG@KDCPGJGB@?$AAa?$AAz?$AA?9?$AAa?$AAz?$AA?9?$AAc?$AAy?$AAr?$AAl?$AA?$AA@ 0000000180058ea8     libcpmt:winapinls.obj
 0002:00004ec0       ??_C@_1BG@IBCKDDOE@?$AAa?$AAz?$AA?9?$AAa?$AAz?$AA?9?$AAl?$AAa?$AAt?$AAn?$AA?$AA@ 0000000180058ec0     libcpmt:winapinls.obj
 0002:00004ed8       ??_C@_1M@EGPFDCPD@?$AAb?$AAe?$AA?9?$AAb?$AAy?$AA?$AA@ 0000000180058ed8     libcpmt:winapinls.obj
 0002:00004ee8       ??_C@_1M@PCMGMCGC@?$AAb?$AAg?$AA?9?$AAb?$AAg?$AA?$AA@ 0000000180058ee8     libcpmt:winapinls.obj
 0002:00004ef8       ??_C@_1M@BJBMFGOB@?$AAb?$AAn?$AA?9?$AAi?$AAn?$AA?$AA@ 0000000180058ef8     libcpmt:winapinls.obj
 0002:00004f08       ??_C@_1BG@EAKMMACD@?$AAb?$AAs?$AA?9?$AAb?$AAa?$AA?9?$AAl?$AAa?$AAt?$AAn?$AA?$AA@ 0000000180058f08     libcpmt:winapinls.obj
 0002:00004f20       ??_C@_1M@KGADAODK@?$AAc?$AAa?$AA?9?$AAe?$AAs?$AA?$AA@ 0000000180058f20     libcpmt:winapinls.obj
 0002:00004f30       ??_C@_1M@COAJPDHI@?$AAc?$AAs?$AA?9?$AAc?$AAz?$AA?$AA@ 0000000180058f30     libcpmt:winapinls.obj
 0002:00004f40       ??_C@_1M@DHBHFONH@?$AAc?$AAy?$AA?9?$AAg?$AAb?$AA?$AA@ 0000000180058f40     libcpmt:winapinls.obj
 0002:00004f50       ??_C@_1M@IMGKELGA@?$AAd?$AAa?$AA?9?$AAd?$AAk?$AA?$AA@ 0000000180058f50     libcpmt:winapinls.obj
 0002:00004f60       ??_C@_1M@NNDGDNGA@?$AAd?$AAe?$AA?9?$AAa?$AAt?$AA?$AA@ 0000000180058f60     libcpmt:winapinls.obj
 0002:00004f70       ??_C@_1M@IKDBHEEM@?$AAd?$AAe?$AA?9?$AAc?$AAh?$AA?$AA@ 0000000180058f70     libcpmt:winapinls.obj
 0002:00004f80       ??_C@_1M@GFFOJMCJ@?$AAd?$AAe?$AA?9?$AAd?$AAe?$AA?$AA@ 0000000180058f80     libcpmt:winapinls.obj
 0002:00004f90       ??_C@_1M@MDNLKBPM@?$AAd?$AAe?$AA?9?$AAl?$AAi?$AA?$AA@ 0000000180058f90     libcpmt:winapinls.obj
 0002:00004fa0       ??_C@_1M@NJBEEJNL@?$AAd?$AAe?$AA?9?$AAl?$AAu?$AA?$AA@ 0000000180058fa0     libcpmt:winapinls.obj
 0002:00004fb0       ??_C@_1O@GNNELBAP@?$AAd?$AAi?$AAv?$AA?9?$AAm?$AAv?$AA?$AA@ 0000000180058fb0     libcpmt:winapinls.obj
 0002:00004fc0       ??_C@_1M@EJLEOGAE@?$AAe?$AAl?$AA?9?$AAg?$AAr?$AA?$AA@ 0000000180058fc0     libcpmt:winapinls.obj
 0002:00004fd0       ??_C@_1M@GMPONJN@?$AAe?$AAn?$AA?9?$AAa?$AAu?$AA?$AA@ 0000000180058fd0     libcpmt:winapinls.obj
 0002:00004fe0       ??_C@_1M@NIDIIPGF@?$AAe?$AAn?$AA?9?$AAb?$AAz?$AA?$AA@ 0000000180058fe0     libcpmt:winapinls.obj
 0002:00004ff0       ??_C@_1M@JEHMIMFO@?$AAe?$AAn?$AA?9?$AAc?$AAa?$AA?$AA@ 0000000180058ff0     libcpmt:winapinls.obj
 0002:00005000       ??_C@_1M@IGMJCDLA@?$AAe?$AAn?$AA?9?$AAc?$AAb?$AA?$AA@ 0000000180059000     libcpmt:winapinls.obj
 0002:00005010       ??_C@_1M@BNFIGBKG@?$AAe?$AAn?$AA?9?$AAg?$AAb?$AA?$AA@ 0000000180059010     libcpmt:winapinls.obj
 0002:00005020       ??_C@_1M@LKIFDIGP@?$AAe?$AAn?$AA?9?$AAi?$AAe?$AA?$AA@ 0000000180059020     libcpmt:winapinls.obj
 0002:00005030       ??_C@_1M@PJKFGCCO@?$AAe?$AAn?$AA?9?$AAj?$AAm?$AA?$AA@ 0000000180059030     libcpmt:winapinls.obj
 0002:00005040       ??_C@_1M@KPPKEPBO@?$AAe?$AAn?$AA?9?$AAn?$AAz?$AA?$AA@ 0000000180059040     libcpmt:winapinls.obj
 0002:00005050       ??_C@_1M@GMDGLDOB@?$AAe?$AAn?$AA?9?$AAp?$AAh?$AA?$AA@ 0000000180059050     libcpmt:winapinls.obj
 0002:00005060       ??_C@_1M@ONGIBJNA@?$AAe?$AAn?$AA?9?$AAt?$AAt?$AA?$AA@ 0000000180059060     libcpmt:winapinls.obj
 0002:00005070       ??_C@_1M@LLODPCMM@?$AAe?$AAn?$AA?9?$AAu?$AAs?$AA?$AA@ 0000000180059070     libcpmt:winapinls.obj
 0002:00005080       ??_C@_1M@LAKFNPAN@?$AAe?$AAn?$AA?9?$AAz?$AAa?$AA?$AA@ 0000000180059080     libcpmt:winapinls.obj
 0002:00005090       ??_C@_1M@MFNHNHEO@?$AAe?$AAn?$AA?9?$AAz?$AAw?$AA?$AA@ 0000000180059090     libcpmt:winapinls.obj
 0002:000050a0       ??_C@_1M@EJEINPHM@?$AAe?$AAs?$AA?9?$AAa?$AAr?$AA?$AA@ 00000001800590a0     libcpmt:winapinls.obj
 0002:000050b0       ??_C@_1M@GNKPCCJA@?$AAe?$AAs?$AA?9?$AAb?$AAo?$AA?$AA@ 00000001800590b0     libcpmt:winapinls.obj
 0002:000050c0       ??_C@_1M@LEEGFONL@?$AAe?$AAs?$AA?9?$AAc?$AAl?$AA?$AA@ 00000001800590c0     libcpmt:winapinls.obj
 0002:000050d0       ??_C@_1M@KGPDPBDF@?$AAe?$AAs?$AA?9?$AAc?$AAo?$AA?$AA@ 00000001800590d0     libcpmt:winapinls.obj
 0002:000050e0       ??_C@_1M@EIAHOHH@?$AAe?$AAs?$AA?9?$AAc?$AAr?$AA?$AA@ 00000001800590e0     libcpmt:winapinls.obj
 0002:000050f0       ??_C@_1M@LLPGMBIN@?$AAe?$AAs?$AA?9?$AAd?$AAo?$AA?$AA@ 00000001800590f0     libcpmt:winapinls.obj
 0002:00005100       ??_C@_1M@DKHMKNJA@?$AAe?$AAs?$AA?9?$AAe?$AAc?$AA?$AA@ 0000000180059100     libcpmt:winapinls.obj
 0002:00005110       ??_C@_1M@GKGFPKAP@?$AAe?$AAs?$AA?9?$AAe?$AAs?$AA?$AA@ 0000000180059110     libcpmt:winapinls.obj
 0002:00005120       ??_C@_1M@LKHKGDLN@?$AAe?$AAs?$AA?9?$AAg?$AAt?$AA?$AA@ 0000000180059120     libcpmt:winapinls.obj
 0002:00005130       ??_C@_1M@HEIIGGJD@?$AAe?$AAs?$AA?9?$AAh?$AAn?$AA?$AA@ 0000000180059130     libcpmt:winapinls.obj
 0002:00005140       ??_C@_1M@FBDHPPGD@?$AAe?$AAs?$AA?9?$AAm?$AAx?$AA?$AA@ 0000000180059140     libcpmt:winapinls.obj
 0002:00005150       ??_C@_1M@DPAGLNDH@?$AAe?$AAs?$AA?9?$AAn?$AAi?$AA?$AA@ 0000000180059150     libcpmt:winapinls.obj
 0002:00005160       ??_C@_1M@MDGOPGDD@?$AAe?$AAs?$AA?9?$AAp?$AAa?$AA?$AA@ 0000000180059160     libcpmt:winapinls.obj
 0002:00005170       ??_C@_1M@EMAMGBGE@?$AAe?$AAs?$AA?9?$AAp?$AAe?$AA?$AA@ 0000000180059170     libcpmt:winapinls.obj
 0002:00005180       ??_C@_1M@IBMCAOEC@?$AAe?$AAs?$AA?9?$AAp?$AAr?$AA?$AA@ 0000000180059180     libcpmt:winapinls.obj
 0002:00005190       ??_C@_1M@FGMDIJED@?$AAe?$AAs?$AA?9?$AAp?$AAy?$AA?$AA@ 0000000180059190     libcpmt:winapinls.obj
 0002:000051a0       ??_C@_1M@IIDEOLLL@?$AAe?$AAs?$AA?9?$AAs?$AAv?$AA?$AA@ 00000001800591a0     libcpmt:winapinls.obj
 0002:000051b0       ??_C@_1M@GAOBIPA@?$AAe?$AAs?$AA?9?$AAu?$AAy?$AA?$AA@ 00000001800591b0     libcpmt:winapinls.obj
 0002:000051c0       _pDefaultRawDllMain        00000001800591c0     LIBCMT:dll_dllmain.obj
 0002:000051c0       _pRawDllMain               00000001800591c0     LIBCMT:dll_dllmain.obj
 0002:000051d0       ??_7type_info@@6B@         00000001800591d0     LIBCMT:std_type_info_static.obj
 0002:000051f0       ??_7bad_array_new_length@std@@6B@ 00000001800591f0     LIBCMT:throw_bad_alloc.obj
 0002:00005200       ??_C@_0BF@KINCDENJ@bad?5array?5new?5length?$AA@ 0000000180059200     LIBCMT:throw_bad_alloc.obj
 0002:00005218       _pDestructExceptionObject  0000000180059218     libvcruntime:frame.obj
 0002:00005228       ??_7bad_exception@std@@6B@ 0000000180059228     libvcruntime:frame.obj
 0002:00005238       ??_C@_0O@DPKOEFFH@bad?5exception?$AA@ 0000000180059238     libvcruntime:frame.obj
 0002:00005350       ??_C@_1BC@DNHGCMLG@?$AAa?$AAd?$AAv?$AAa?$AAp?$AAi?$AA3?$AA2?$AA?$AA@ 0000000180059350     libvcruntime:winapi_downlevel.obj
 0002:00005368       ??_C@_1DM@KHCHBNEB@?$AAa?$AAp?$AAi?$AA?9?$AAm?$AAs?$AA?9?$AAw?$AAi?$AAn?$AA?9?$AAc?$AAo?$AAr?$AAe?$AA?9?$AAf?$AAi?$AAb?$AAe?$AAr?$AAs?$AA?9?$AAl?$AA1?$AA?9?$AA1?$AA?9?$AA1?$AA?$AA@ 0000000180059368     libvcruntime:winapi_downlevel.obj
 0002:000053a8       ??_C@_1DK@LPPGFMPP@?$AAa?$AAp?$AAi?$AA?9?$AAm?$AAs?$AA?9?$AAw?$AAi?$AAn?$AA?9?$AAc?$AAo?$AAr?$AAe?$AA?9?$AAs?$AAy?$AAn?$AAc?$AAh?$AA?9?$AAl?$AA1?$AA?9?$AA2?$AA?9?$AA0?$AA?$AA@ 00000001800593a8     libvcruntime:winapi_downlevel.obj
 0002:000053e8       ??_C@_1BC@GDMECMAK@?$AAk?$AAe?$AAr?$AAn?$AAe?$AAl?$AA3?$AA2?$AA?$AA@ 00000001800593e8     libvcruntime:winapi_downlevel.obj
 0002:00005750       ??_C@_08EHJDFFNH@__based?$CI?$AA@ 0000000180059750     libvcruntime:undname.obj
 0002:00005760       ??_C@_07KOLFKCDI@__cdecl?$AA@ 0000000180059760     libvcruntime:undname.obj
 0002:00005768       ??_C@_08GHMPAG@__pascal?$AA@ 0000000180059768     libvcruntime:undname.obj
 0002:00005778       ??_C@_09IFJBGAPI@__stdcall?$AA@ 0000000180059778     libvcruntime:undname.obj
 0002:00005788       ??_C@_0L@NPHFGOKO@__thiscall?$AA@ 0000000180059788     libvcruntime:undname.obj
 0002:00005798       ??_C@_0L@JMKHOMEK@__fastcall?$AA@ 0000000180059798     libvcruntime:undname.obj
 0002:000057a8       ??_C@_0N@BCKKPABJ@__vectorcall?$AA@ 00000001800597a8     libvcruntime:undname.obj
 0002:000057b8       ??_C@_09HIJEGCPM@__clrcall?$AA@ 00000001800597b8     libvcruntime:undname.obj
 0002:000057c4       ??_C@_06GHPCKEAG@__eabi?$AA@ 00000001800597c4     libvcruntime:undname.obj
 0002:000057d0       ??_C@_07JOMMBBKO@__ptr64?$AA@ 00000001800597d0     libvcruntime:undname.obj
 0002:000057d8       ??_C@_0L@PILCLIHE@__restrict?$AA@ 00000001800597d8     libvcruntime:undname.obj
 0002:000057e8       ??_C@_0M@GFIIJFMG@__unaligned?$AA@ 00000001800597e8     libvcruntime:undname.obj
 0002:000057f8       ??_C@_09DHDLOLLB@restrict?$CI?$AA@ 00000001800597f8     libvcruntime:undname.obj
 0002:00005804       ??_C@_04NIHEBCM@?5new?$AA@ 0000000180059804     libvcruntime:undname.obj
 0002:00005810       ??_C@_07FPCDHGMM@?5delete?$AA@ 0000000180059810     libvcruntime:undname.obj
 0002:00005818       ??_C@_01NEMOKFLO@?$DN?$AA@ 0000000180059818     libvcruntime:undname.obj
 0002:0000581c       ??_C@_02GPIOPFAK@?$DO?$DO?$AA@ 000000018005981c     libvcruntime:undname.obj
 0002:00005820       ??_C@_02FODMEDOG@?$DM?$DM?$AA@ 0000000180059820     libvcruntime:undname.obj
 0002:00005824       ??_C@_01DCLJPIOD@?$CB?$AA@ 0000000180059824     libvcruntime:undname.obj
 0002:00005828       ??_C@_02EGOFBIJA@?$DN?$DN?$AA@ 0000000180059828     libvcruntime:undname.obj
 0002:0000582c       ??_C@_02FDNJECIE@?$CB?$DN?$AA@ 000000018005982c     libvcruntime:undname.obj
 0002:00005830       ??_C@_02GPECMEKF@?$FL?$FN?$AA@ 0000000180059830     libvcruntime:undname.obj
 0002:00005838       ??_C@_08LHJFAFGD@operator?$AA@ 0000000180059838     libvcruntime:undname.obj
 0002:00005844       ??_C@_02HBOOOICD@?9?$DO?$AA@ 0000000180059844     libvcruntime:undname.obj
 0002:00005848       ??_C@_02ECNGHCIF@?$CL?$CL?$AA@ 0000000180059848     libvcruntime:undname.obj
 0002:0000584c       ??_C@_02BAABKJLB@?9?9?$AA@ 000000018005984c     libvcruntime:undname.obj
 0002:00005850       ??_C@_01MIFGBAGJ@?$CL?$AA@ 0000000180059850     libvcruntime:undname.obj
 0002:00005854       ??_C@_01HNPIGOCE@?$CG?$AA@ 0000000180059854     libvcruntime:undname.obj
 0002:00005858       ??_C@_03MNHNFDLC@?9?$DO?$CK?$AA@ 0000000180059858     libvcruntime:undname.obj
 0002:0000585c       ??_C@_01KMDKNFGN@?1?$AA@   000000018005985c     libvcruntime:undname.obj
 0002:00005860       ??_C@_01FGNFDNOH@?$CF?$AA@ 0000000180059860     libvcruntime:undname.obj
 0002:00005864       ??_C@_01MNNFJEPP@?$DM?$AA@ 0000000180059864     libvcruntime:undname.obj
 0002:00005868       ??_C@_02EHCHHCKH@?$DM?$DN?$AA@ 0000000180059868     libvcruntime:undname.obj
 0002:0000586c       ??_C@_01PPODPGHN@?$DO?$AA@ 000000018005986c     libvcruntime:undname.obj
 0002:00005870       ??_C@_02EEKDKGMJ@?$DO?$DN?$AA@ 0000000180059870     libvcruntime:undname.obj
 0002:00005874       ??_C@_01IHBHIGKO@?0?$AA@   0000000180059874     libvcruntime:undname.obj
 0002:00005878       ??_C@_02HCKGKOFO@?$CI?$CJ?$AA@ 0000000180059878     libvcruntime:undname.obj
 0002:0000587c       ??_C@_01PJKLJHI@?$HO?$AA@  000000018005987c     libvcruntime:undname.obj
 0002:00005880       ??_C@_01JKBOJNNK@?$FO?$AA@ 0000000180059880     libvcruntime:undname.obj
 0002:00005884       ??_C@_01DNKMNLPK@?$HM?$AA@ 0000000180059884     libvcruntime:undname.obj
 0002:00005888       ??_C@_02PPKAJPJL@?$CG?$CG?$AA@ 0000000180059888     libvcruntime:undname.obj
 0002:0000588c       ??_C@_02NONPIBCD@?$HM?$HM?$AA@ 000000018005988c     libvcruntime:undname.obj
 0002:00005890       ??_C@_02FPIMKNGF@?$CK?$DN?$AA@ 0000000180059890     libvcruntime:undname.obj
 0002:00005894       ??_C@_02FOEOMHFC@?$CL?$DN?$AA@ 0000000180059894     libvcruntime:undname.obj
 0002:00005898       ??_C@_02FKMDLLOA@?9?$DN?$AA@ 0000000180059898     libvcruntime:undname.obj
 0002:0000589c       ??_C@_02FJEHGPIO@?1?$DN?$AA@ 000000018005989c     libvcruntime:undname.obj
 0002:000058a0       ??_C@_02FENAOKFI@?$CF?$DN?$AA@ 00000001800598a0     libvcruntime:undname.obj
 0002:000058a4       ??_C@_03IKFCCPFF@?$DO?$DO?$DN?$AA@ 00000001800598a4     libvcruntime:undname.obj
 0002:000058a8       ??_C@_03CDNPDDLA@?$DM?$DM?$DN?$AA@ 00000001800598a8     libvcruntime:undname.obj
 0002:000058ac       ??_C@_02FGJGFEAB@?$CG?$DN?$AA@ 00000001800598ac     libvcruntime:undname.obj
 0002:000058b0       ??_C@_02DHLNPPGH@?$HM?$DN?$AA@ 00000001800598b0     libvcruntime:undname.obj
 0002:000058b4       ??_C@_02MHEGNOJ@?$FO?$DN?$AA@ 00000001800598b4     libvcruntime:undname.obj
 0002:000058b8       ??_C@_09IFPLHPGF@?$GAvftable?8?$AA@ 00000001800598b8     libvcruntime:undname.obj
 0002:000058c8       ??_C@_09BLBHBJP@?$GAvbtable?8?$AA@ 00000001800598c8     libvcruntime:undname.obj
 0002:000058d8       ??_C@_07FEEIOKP@?$GAvcall?8?$AA@ 00000001800598d8     libvcruntime:undname.obj
 0002:000058e0       ??_C@_08LLFFHHDJ@?$GAtypeof?8?$AA@ 00000001800598e0     libvcruntime:undname.obj
 0002:000058f0       ??_C@_0BF@KDPPACIK@?$GAlocal?5static?5guard?8?$AA@ 00000001800598f0     libvcruntime:undname.obj
 0002:00005908       ??_C@_08OBABFOLI@?$GAstring?8?$AA@ 0000000180059908     libvcruntime:undname.obj
 0002:00005918       ??_C@_0BD@JDLKDPAB@?$GAvbase?5destructor?8?$AA@ 0000000180059918     libvcruntime:undname.obj
 0002:00005930       ??_C@_0BN@DEGPLNFK@?$GAvector?5deleting?5destructor?8?$AA@ 0000000180059930     libvcruntime:undname.obj
 0002:00005950       ??_C@_0BO@OBMKPJIG@?$GAdefault?5constructor?5closure?8?$AA@ 0000000180059950     libvcruntime:undname.obj
 0002:00005970       ??_C@_0BN@IMDCHIKM@?$GAscalar?5deleting?5destructor?8?$AA@ 0000000180059970     libvcruntime:undname.obj
 0002:00005990       ??_C@_0BO@PFGOCPJJ@?$GAvector?5constructor?5iterator?8?$AA@ 0000000180059990     libvcruntime:undname.obj
 0002:000059b0       ??_C@_0BN@LFPFMEDL@?$GAvector?5destructor?5iterator?8?$AA@ 00000001800599b0     libvcruntime:undname.obj
 0002:000059d0       ??_C@_0CE@IKBNEHA@?$GAvector?5vbase?5constructor?5iterat@ 00000001800599d0     libvcruntime:undname.obj
 0002:000059f8       ??_C@_0BL@NILFHHPC@?$GAvirtual?5displacement?5map?8?$AA@ 00000001800599f8     libvcruntime:undname.obj
 0002:00005a18       ??_C@_0CB@JONCMFFK@?$GAeh?5vector?5constructor?5iterator?8@ 0000000180059a18     libvcruntime:undname.obj
 0002:00005a40       ??_C@_0CA@GCEOPDGL@?$GAeh?5vector?5destructor?5iterator?8?$AA@ 0000000180059a40     libvcruntime:undname.obj
 0002:00005a60       ??_C@_0CH@OOJPLCPH@?$GAeh?5vector?5vbase?5constructor?5ite@ 0000000180059a60     libvcruntime:undname.obj
 0002:00005a88       ??_C@_0BL@LLKPOHJI@?$GAcopy?5constructor?5closure?8?$AA@ 0000000180059a88     libvcruntime:undname.obj
 0002:00005aa8       ??_C@_0BA@KBCDOMBN@?$GAudt?5returning?8?$AA@ 0000000180059aa8     libvcruntime:undname.obj
 0002:00005ab8       ??_C@_03KLGMFNMG@?$GAEH?$AA@ 0000000180059ab8     libvcruntime:undname.obj
 0002:00005abc       ??_C@_05KHLCHHI@?$GARTTI?$AA@ 0000000180059abc     libvcruntime:undname.obj
 0002:00005ac8       ??_C@_0BA@KKLDJDLB@?$GAlocal?5vftable?8?$AA@ 0000000180059ac8     libvcruntime:undname.obj
 0002:00005ad8       ??_C@_0CE@IIHCMGGL@?$GAlocal?5vftable?5constructor?5closu@ 0000000180059ad8     libvcruntime:undname.obj
 0002:00005afc       ??_C@_06FHBGPFGH@?5new?$FL?$FN?$AA@ 0000000180059afc     libvcruntime:undname.obj
 0002:00005b08       ??_C@_09LBNFPBCA@?5delete?$FL?$FN?$AA@ 0000000180059b08     libvcruntime:undname.obj
 0002:00005b18       ??_C@_0P@HJKNJFNN@?$GAomni?5callsig?8?$AA@ 0000000180059b18     libvcruntime:undname.obj
 0002:00005b28       ??_C@_0BL@CNOONJFP@?$GAplacement?5delete?5closure?8?$AA@ 0000000180059b28     libvcruntime:undname.obj
 0002:00005b48       ??_C@_0BN@CKNJLHMB@?$GAplacement?5delete?$FL?$FN?5closure?8?$AA@ 0000000180059b48     libvcruntime:undname.obj
 0002:00005b68       ??_C@_0CG@CFDHKGGD@?$GAmanaged?5vector?5constructor?5iter@ 0000000180059b68     libvcruntime:undname.obj
 0002:00005b90       ??_C@_0CF@IMGKMJNO@?$GAmanaged?5vector?5destructor?5itera@ 0000000180059b90     libvcruntime:undname.obj
 0002:00005bb8       ??_C@_0CG@HLDDJMAG@?$GAeh?5vector?5copy?5constructor?5iter@ 0000000180059bb8     libvcruntime:undname.obj
 0002:00005be0       ??_C@_0CM@FCBBDIGB@?$GAeh?5vector?5vbase?5copy?5constructo@ 0000000180059be0     libvcruntime:undname.obj
 0002:00005c10       ??_C@_0BL@CLIPGLGB@?$GAdynamic?5initializer?5for?5?8?$AA@ 0000000180059c10     libvcruntime:undname.obj
 0002:00005c30       ??_C@_0CB@PDBIFEP@?$GAdynamic?5atexit?5destructor?5for?5?8@ 0000000180059c30     libvcruntime:undname.obj
 0002:00005c58       ??_C@_0CD@CGAJBKEJ@?$GAvector?5copy?5constructor?5iterato@ 0000000180059c58     libvcruntime:undname.obj
 0002:00005c80       ??_C@_0CJ@GJELGAMM@?$GAvector?5vbase?5copy?5constructor?5i@ 0000000180059c80     libvcruntime:undname.obj
 0002:00005cb0       ??_C@_0CL@FGIJHLCE@?$GAmanaged?5vector?5copy?5constructor@ 0000000180059cb0     libvcruntime:undname.obj
 0002:00005ce0       ??_C@_0BM@PMGGMLDN@?$GAlocal?5static?5thread?5guard?8?$AA@ 0000000180059ce0     libvcruntime:undname.obj
 0002:00005d00       ??_C@_0N@BDNMDMOL@operator?5?$CC?$CC?5?$AA@ 0000000180059d00     libvcruntime:undname.obj
 0002:00005d10       ??_C@_0BC@DAFEJGAK@?5Type?5Descriptor?8?$AA@ 0000000180059d10     libvcruntime:undname.obj
 0002:00005d28       ??_C@_0BM@LDKODKLH@?5Base?5Class?5Descriptor?5at?5?$CI?$AA@ 0000000180059d28     libvcruntime:undname.obj
 0002:00005d48       ??_C@_0BD@LGICGFMM@?5Base?5Class?5Array?8?$AA@ 0000000180059d48     libvcruntime:undname.obj
 0002:00005d60       ??_C@_0BN@MECKDCOJ@?5Class?5Hierarchy?5Descriptor?8?$AA@ 0000000180059d60     libvcruntime:undname.obj
 0002:00005d80       ??_C@_0BK@CFCOFLF@?5Complete?5Object?5Locator?8?$AA@ 0000000180059d80     libvcruntime:undname.obj
 0002:00005da0       standard_lookup_table      0000000180059da0     libucrt:output.obj
 0002:00005e00       format_validation_lookup_table 0000000180059e00     libucrt:output.obj
 0002:00005e5c       ??_C@_06OJHGLDPL@?$CInull?$CJ?$AA@ 0000000180059e5c     libucrt:output.obj
 0002:00005e68       ??_C@_1O@CEDCILHN@?$AA?$CI?$AAn?$AAu?$AAl?$AAl?$AA?$CJ?$AA?$AA@ 0000000180059e68     libucrt:output.obj
 0002:00005e78       __real@0000000000000000    0000000180059e78     libucrt:frexp.obj
 0002:00005e80       __real@3ff0000000000000    0000000180059e80     libucrt:frexp.obj
 0002:00005e88       __real@8000000000000000    0000000180059e88     libucrt:frexp.obj
 0002:00005e90       ??_C@_1EK@MBDPDCGA@?$AAM?$AAi?$AAc?$AAr?$AAo?$AAs?$AAo?$AAf?$AAt?$AA?5?$AAV?$AAi?$AAs?$AAu?$AAa?$AAl?$AA?5?$AAC?$AA?$CL?$AA?$CL?$AA?5?$AAR?$AAu?$AAn?$AAt?$AAi?$AAm?$AAe?$AA?5?$AAL?$AAi?$AAb@ 0000000180059e90     libucrt:assert.obj
 0002:00005ee0       ??_C@_1FE@LHBLIKM@?$AAA?$AAs?$AAs?$AAe?$AAr?$AAt?$AAi?$AAo?$AAn?$AA?5?$AAf?$AAa?$AAi?$AAl?$AAe?$AAd?$AA?3?$AA?5?$AA?$CF?$AAT?$AAs?$AA?0?$AA?5?$AAf?$AAi?$AAl?$AAe?$AA?5?$AA?$CF?$AAT?$AAs?$AA?0@ 0000000180059ee0     libucrt:assert.obj
 0002:00005f38       ??_C@_1CE@OJBNHDMO@?$AAA?$AAs?$AAs?$AAe?$AAr?$AAt?$AAi?$AAo?$AAn?$AA?5?$AAf?$AAa?$AAi?$AAl?$AAe?$AAd?$AA?$CB?$AA?$AA@ 0000000180059f38     libucrt:assert.obj
 0002:00005f60       ??_C@_1BE@PHKBBGE@?$AAP?$AAr?$AAo?$AAg?$AAr?$AAa?$AAm?$AA?3?$AA?5?$AA?$AA@ 0000000180059f60     libucrt:assert.obj
 0002:00005f78       ??_C@_1O@HEMHKNDC@?$AAF?$AAi?$AAl?$AAe?$AA?3?$AA?5?$AA?$AA@ 0000000180059f78     libucrt:assert.obj
 0002:00005f88       ??_C@_1O@KCAFKHJE@?$AAL?$AAi?$AAn?$AAe?$AA?3?$AA?5?$AA?$AA@ 0000000180059f88     libucrt:assert.obj
 0002:00005f98       ??_C@_1BK@PEDCIPMA@?$AAE?$AAx?$AAp?$AAr?$AAe?$AAs?$AAs?$AAi?$AAo?$AAn?$AA?3?$AA?5?$AA?$AA@ 0000000180059f98     libucrt:assert.obj
 0002:00005fc0       ??_C@_1OA@EGMLFBHJ@?$AAF?$AAo?$AAr?$AA?5?$AAi?$AAn?$AAf?$AAo?$AAr?$AAm?$AAa?$AAt?$AAi?$AAo?$AAn?$AA?5?$AAo?$AAn?$AA?5?$AAh?$AAo?$AAw?$AA?5?$AAy?$AAo?$AAu?$AAr?$AA?5?$AAp?$AAr?$AAo?$AAg@ 0000000180059fc0     libucrt:assert.obj
 0002:000060a0       ??_C@_1HK@POCJMFGK@?$AA?$CI?$AAP?$AAr?$AAe?$AAs?$AAs?$AA?5?$AAR?$AAe?$AAt?$AAr?$AAy?$AA?5?$AAt?$AAo?$AA?5?$AAd?$AAe?$AAb?$AAu?$AAg?$AA?5?$AAt?$AAh?$AAe?$AA?5?$AAa?$AAp?$AAp?$AAl?$AAi?$AAc@ 000000018005a0a0     libucrt:assert.obj
 0002:00006120       ??_C@_17LGKOMLJ@?$AA?4?$AA?4?$AA?4?$AA?$AA@ 000000018005a120     libucrt:assert.obj
 0002:00006128       ??_C@_13LBAGMAIH@?$AA?6?$AA?$AA@ 000000018005a128     libucrt:assert.obj
 0002:0000612c       ??_C@_15IABLJNFO@?$AA?6?$AA?6?$AA?$AA@ 000000018005a12c     libucrt:assert.obj
 0002:00006138       ??_C@_1CO@EAEJAADC@?$AA?$DM?$AAp?$AAr?$AAo?$AAg?$AAr?$AAa?$AAm?$AA?5?$AAn?$AAa?$AAm?$AAe?$AA?5?$AAu?$AAn?$AAk?$AAn?$AAo?$AAw?$AAn?$AA?$DO?$AA?$AA@ 000000018005a138     libucrt:assert.obj
 0002:00006170       __newctype                 000000018005a170     libucrt:ctype.obj
 0002:00006470       __newclmap                 000000018005a470     libucrt:ctype.obj
 0002:000065f0       __newcumap                 000000018005a5f0     libucrt:ctype.obj
 0002:00006770       _wctype                    000000018005a770     libucrt:ctype.obj
 0002:00006af0       ?large_power_data@?1??multiply_by_power_of_ten@__crt_strtox@@YA_NAEAUbig_integer@2@I@Z@4QBIB 000000018005aaf0     libucrt:strtod.obj
 0002:00007400       ?large_power_indices@?1??multiply_by_power_of_ten@__crt_strtox@@YA_NAEAUbig_integer@2@I@Z@4QBUunpack_index@?1??12@YA_N0I@Z@B 000000018005b400     libucrt:strtod.obj
 0002:00007498       ?small_powers_of_ten@?6??multiply_by_power_of_ten@__crt_strtox@@YA_NAEAUbig_integer@2@I@Z@4QBIB 000000018005b498     libucrt:strtod.obj
 0002:00009170       __acrt_exception_action_table 000000018005d170     libucrt:exception_filter.obj
 0002:00009230       __acrt_signal_action_table_count 000000018005d230     libucrt:exception_filter.obj
 0002:00009238       __acrt_signal_action_first_fpe_index 000000018005d238     libucrt:exception_filter.obj
 0002:00009240       __acrt_signal_action_fpe_count 000000018005d240     libucrt:exception_filter.obj
 0002:00009248       ??_C@_1BI@BGOHAHKC@?$AAm?$AAs?$AAc?$AAo?$AAr?$AAe?$AAe?$AA?4?$AAd?$AAl?$AAl?$AA?$AA@ 000000018005d248     libucrt:exit.obj
 0002:00009260       ??_C@_0P@MIGLKIOC@CorExitProcess?$AA@ 000000018005d260     libucrt:exit.obj
 0002:00009360       ??_C@_03OEIAHPBN@INF?$AA@  000000018005d360     libucrt:cvt.obj
 0002:00009364       ??_C@_03OJHLLCGB@inf?$AA@  000000018005d364     libucrt:cvt.obj
 0002:00009368       ??_C@_03LKNCIKJB@NAN?$AA@  000000018005d368     libucrt:cvt.obj
 0002:0000936c       ??_C@_03LHCJEHON@nan?$AA@  000000018005d36c     libucrt:cvt.obj
 0002:00009370       ??_C@_09OFJJIMPC@NAN?$CISNAN?$CJ?$AA@ 000000018005d370     libucrt:cvt.obj
 0002:00009380       ??_C@_09IPFBKMDL@nan?$CIsnan?$CJ?$AA@ 000000018005d380     libucrt:cvt.obj
 0002:00009390       ??_C@_08IKHNHAJ@NAN?$CIIND?$CJ?$AA@ 000000018005d390     libucrt:cvt.obj
 0002:000093a0       ??_C@_08OFCDMILK@nan?$CIind?$CJ?$AA@ 000000018005d3a0     libucrt:cvt.obj
 0002:000093ac       ??_C@_05KLBDPFGC@e?$CL000?$AA@ 000000018005d3ac     libucrt:cvt.obj
 0002:000093c0       __lc_category              000000018005d3c0     libucrt:wsetlocale.obj
 0002:00009450       ??_C@_1O@GIFLHMA@?$AAL?$AAC?$AA_?$AAA?$AAL?$AAL?$AA?$AA@ 000000018005d450     libucrt:wsetlocale.obj
 0002:00009460       ??_C@_1BG@PPOMIBNJ@?$AAL?$AAC?$AA_?$AAC?$AAO?$AAL?$AAL?$AAA?$AAT?$AAE?$AA?$AA@ 000000018005d460     libucrt:wsetlocale.obj
 0002:00009478       ??_C@_1BC@FFJGAPJM@?$AAL?$AAC?$AA_?$AAC?$AAT?$AAY?$AAP?$AAE?$AA?$AA@ 000000018005d478     libucrt:wsetlocale.obj
 0002:00009490       ??_C@_1BI@PCKFNJFB@?$AAL?$AAC?$AA_?$AAM?$AAO?$AAN?$AAE?$AAT?$AAA?$AAR?$AAY?$AA?$AA@ 000000018005d490     libucrt:wsetlocale.obj
 0002:000094a8       ??_C@_1BG@ENIEDKID@?$AAL?$AAC?$AA_?$AAN?$AAU?$AAM?$AAE?$AAR?$AAI?$AAC?$AA?$AA@ 000000018005d4a8     libucrt:wsetlocale.obj
 0002:000094c0       ??_C@_1BA@HAAOMIIG@?$AAL?$AAC?$AA_?$AAT?$AAI?$AAM?$AAE?$AA?$AA@ 000000018005d4c0     libucrt:wsetlocale.obj
 0002:00009550       ??_C@_15NBPDDFIP@?$AA?$DN?$AA?$DL?$AA?$AA@ 000000018005d550     libucrt:wsetlocale.obj
 0002:00009558       ??_C@_13PJJBFPED@?$AA?$DL?$AA?$AA@ 000000018005d558     libucrt:wsetlocale.obj
 0002:0000955c       ??_C@_13NMPKAAJP@?$AA?$DN?$AA?$AA@ 000000018005d55c     libucrt:wsetlocale.obj
 0002:00009560       ??_C@_13FHBKNHDA@?$AAC?$AA?$AA@ 000000018005d560     libucrt:wsetlocale.obj
 0002:00009568       ??_C@_17MBJJLFDM@?$AA_?$AA?4?$AA?0?$AA?$AA@ 000000018005d568     libucrt:wsetlocale.obj
 0002:00009570       ??_C@_13ENNFDPBH@?$AA_?$AA?$AA@ 000000018005d570     libucrt:wsetlocale.obj
 0002:00009574       ??_C@_13JOFGPIOO@?$AA?4?$AA?$AA@ 000000018005d574     libucrt:wsetlocale.obj
 0002:00009580       __lc_time_c                000000018005d580     libucrt:nlsdata.obj
 0002:00009840       ??_C@_03KOEHGMDN@Sun?$AA@  000000018005d840     libucrt:nlsdata.obj
 0002:00009844       ??_C@_03PDAGKDH@Mon?$AA@   000000018005d844     libucrt:nlsdata.obj
 0002:00009848       ??_C@_03NAGEINEP@Tue?$AA@  000000018005d848     libucrt:nlsdata.obj
 0002:0000984c       ??_C@_03MHOMLAJA@Wed?$AA@  000000018005d84c     libucrt:nlsdata.obj
 0002:00009850       ??_C@_03IOFIKPDN@Thu?$AA@  000000018005d850     libucrt:nlsdata.obj
 0002:00009854       ??_C@_03IDIOELNC@Fri?$AA@  000000018005d854     libucrt:nlsdata.obj
 0002:00009858       ??_C@_03FEFJNEK@Sat?$AA@   000000018005d858     libucrt:nlsdata.obj
 0002:0000985c       ??_C@_06OOPIFAJ@Sunday?$AA@ 000000018005d85c     libucrt:nlsdata.obj
 0002:00009864       ??_C@_06JLEDEDGH@Monday?$AA@ 000000018005d864     libucrt:nlsdata.obj
 0002:00009870       ??_C@_07BAAGCFCM@Tuesday?$AA@ 000000018005d870     libucrt:nlsdata.obj
 0002:00009878       ??_C@_09DLIGFAKA@Wednesday?$AA@ 000000018005d878     libucrt:nlsdata.obj
 0002:00009888       ??_C@_08HACCIKIA@Thursday?$AA@ 000000018005d888     libucrt:nlsdata.obj
 0002:00009894       ??_C@_06JECMNKMI@Friday?$AA@ 000000018005d894     libucrt:nlsdata.obj
 0002:000098a0       ??_C@_08INBOOONO@Saturday?$AA@ 000000018005d8a0     libucrt:nlsdata.obj
 0002:000098ac       ??_C@_03JIHJHPIE@Jan?$AA@  000000018005d8ac     libucrt:nlsdata.obj
 0002:000098b0       ??_C@_03HJBDCHOM@Feb?$AA@  000000018005d8b0     libucrt:nlsdata.obj
 0002:000098b4       ??_C@_03ODNJBKGA@Mar?$AA@  000000018005d8b4     libucrt:nlsdata.obj
 0002:000098b8       ??_C@_03LEOLGMJP@Apr?$AA@  000000018005d8b8     libucrt:nlsdata.obj
 0002:000098bc       ??_C@_03CNMDKL@May?$AA@    000000018005d8bc     libucrt:nlsdata.obj
 0002:000098c0       ??_C@_03IDFGHECI@Jun?$AA@  000000018005d8c0     libucrt:nlsdata.obj
 0002:000098c4       ??_C@_03LBGABGKK@Jul?$AA@  000000018005d8c4     libucrt:nlsdata.obj
 0002:000098c8       ??_C@_03IFJFEIGA@Aug?$AA@  000000018005d8c8     libucrt:nlsdata.obj
 0002:000098cc       ??_C@_03GGCAPAJC@Sep?$AA@  000000018005d8cc     libucrt:nlsdata.obj
 0002:000098d0       ??_C@_03BMAOKBAD@Oct?$AA@  000000018005d8d0     libucrt:nlsdata.obj
 0002:000098d4       ??_C@_03JPJOFNIA@Nov?$AA@  000000018005d8d4     libucrt:nlsdata.obj
 0002:000098d8       ??_C@_03MKABNOCG@Dec?$AA@  000000018005d8d8     libucrt:nlsdata.obj
 0002:000098e0       ??_C@_07CGJPFGJA@January?$AA@ 000000018005d8e0     libucrt:nlsdata.obj
 0002:000098e8       ??_C@_08GNJGEPFN@February?$AA@ 000000018005d8e8     libucrt:nlsdata.obj
 0002:000098f4       ??_C@_05HPCKOFNC@March?$AA@ 000000018005d8f4     libucrt:nlsdata.obj
 0002:000098fc       ??_C@_05DMJDNLEJ@April?$AA@ 000000018005d8fc     libucrt:nlsdata.obj
 0002:00009904       ??_C@_04CNLMGBGM@June?$AA@ 000000018005d904     libucrt:nlsdata.obj
 0002:0000990c       ??_C@_04MIEPOIFP@July?$AA@ 000000018005d90c     libucrt:nlsdata.obj
 0002:00009914       ??_C@_06LBBHFDDG@August?$AA@ 000000018005d914     libucrt:nlsdata.obj
 0002:00009920       ??_C@_09BHHEALKD@September?$AA@ 000000018005d920     libucrt:nlsdata.obj
 0002:00009930       ??_C@_07JJNFCEND@October?$AA@ 000000018005d930     libucrt:nlsdata.obj
 0002:00009938       ??_C@_08HCHEGEOA@November?$AA@ 000000018005d938     libucrt:nlsdata.obj
 0002:00009948       ??_C@_08EDHMEBNP@December?$AA@ 000000018005d948     libucrt:nlsdata.obj
 0002:00009954       ??_C@_02DEDBPAFC@AM?$AA@   000000018005d954     libucrt:nlsdata.obj
 0002:00009958       ??_C@_02CJNFDJBF@PM?$AA@   000000018005d958     libucrt:nlsdata.obj
 0002:00009960       ??_C@_08BPBNCDIB@MM?1dd?1yy?$AA@ 000000018005d960     libucrt:nlsdata.obj
 0002:00009970       ??_C@_0BE@CKGJFCPC@dddd?0?5MMMM?5dd?0?5yyyy?$AA@ 000000018005d970     libucrt:nlsdata.obj
 0002:00009988       ??_C@_08JCCMCCIL@HH?3mm?3ss?$AA@ 000000018005d988     libucrt:nlsdata.obj
 0002:00009998       ??_C@_17MBGCMIPB@?$AAS?$AAu?$AAn?$AA?$AA@ 000000018005d998     libucrt:nlsdata.obj
 0002:000099a0       ??_C@_17KBOMKBF@?$AAM?$AAo?$AAn?$AA?$AA@ 000000018005d9a0     libucrt:nlsdata.obj
 0002:000099a8       ??_C@_17BMKGEGOJ@?$AAT?$AAu?$AAe?$AA?$AA@ 000000018005d9a8     libucrt:nlsdata.obj
 0002:000099b0       ??_C@_17CJEDCEPE@?$AAW?$AAe?$AAd?$AA?$AA@ 000000018005d9b0     libucrt:nlsdata.obj
 0002:000099b8       ??_C@_17PDPHAADD@?$AAT?$AAh?$AAu?$AA?$AA@ 000000018005d9b8     libucrt:nlsdata.obj
 0002:000099c0       ??_C@_17HFOLPPLP@?$AAF?$AAr?$AAi?$AA?$AA@ 000000018005d9c0     libucrt:nlsdata.obj
 0002:000099c8       ??_C@_17GGIBDPIH@?$AAS?$AAa?$AAt?$AA?$AA@ 000000018005d9c8     libucrt:nlsdata.obj
 0002:000099d0       ??_C@_1O@IHNHDHPB@?$AAS?$AAu?$AAn?$AAd?$AAa?$AAy?$AA?$AA@ 000000018005d9d0     libucrt:nlsdata.obj
 0002:000099e0       ??_C@_1O@MMNBFLIA@?$AAM?$AAo?$AAn?$AAd?$AAa?$AAy?$AA?$AA@ 000000018005d9e0     libucrt:nlsdata.obj
 0002:000099f0       ??_C@_1BA@ENFBFFEK@?$AAT?$AAu?$AAe?$AAs?$AAd?$AAa?$AAy?$AA?$AA@ 000000018005d9f0     libucrt:nlsdata.obj
 0002:00009a00       ??_C@_1BE@EBOGMDOH@?$AAW?$AAe?$AAd?$AAn?$AAe?$AAs?$AAd?$AAa?$AAy?$AA?$AA@ 000000018005da00     libucrt:nlsdata.obj
 0002:00009a18       ??_C@_1BC@HHMNLIHE@?$AAT?$AAh?$AAu?$AAr?$AAs?$AAd?$AAa?$AAy?$AA?$AA@ 000000018005da18     libucrt:nlsdata.obj
 0002:00009a30       ??_C@_1O@PDICJHAG@?$AAF?$AAr?$AAi?$AAd?$AAa?$AAy?$AA?$AA@ 000000018005da30     libucrt:nlsdata.obj
 0002:00009a40       ??_C@_1BC@ENMNNPAJ@?$AAS?$AAa?$AAt?$AAu?$AAr?$AAd?$AAa?$AAy?$AA?$AA@ 000000018005da40     libucrt:nlsdata.obj
 0002:00009a58       ??_C@_17DKNBKCHM@?$AAJ?$AAa?$AAn?$AA?$AA@ 000000018005da58     libucrt:nlsdata.obj
 0002:00009a60       ??_C@_17LMDJEKJN@?$AAF?$AAe?$AAb?$AA?$AA@ 000000018005da60     libucrt:nlsdata.obj
 0002:00009a68       ??_C@_17CKNLEDEC@?$AAM?$AAa?$AAr?$AA?$AA@ 000000018005da68     libucrt:nlsdata.obj
 0002:00009a70       ??_C@_17LFPOIHDD@?$AAA?$AAp?$AAr?$AA?$AA@ 000000018005da70     libucrt:nlsdata.obj
 0002:00009a78       ??_C@_17PNNKMEED@?$AAM?$AAa?$AAy?$AA?$AA@ 000000018005da78     libucrt:nlsdata.obj
 0002:00009a80       ??_C@_17KCJGOCPB@?$AAJ?$AAu?$AAn?$AA?$AA@ 000000018005da80     libucrt:nlsdata.obj
 0002:00009a88       ??_C@_17IJPCKHK@?$AAJ?$AAu?$AAl?$AA?$AA@ 000000018005da88     libucrt:nlsdata.obj
 0002:00009a90       ??_C@_17ICPELBCN@?$AAA?$AAu?$AAg?$AA?$AA@ 000000018005da90     libucrt:nlsdata.obj
 0002:00009a98       ??_C@_17HCHCOKMG@?$AAS?$AAe?$AAp?$AA?$AA@ 000000018005da98     libucrt:nlsdata.obj
 0002:00009aa0       ??_C@_17FNLKOI@?$AAO?$AAc?$AAt?$AA?$AA@ 000000018005daa0     libucrt:nlsdata.obj
 0002:00009aa8       ??_C@_17BBDMLCIG@?$AAN?$AAo?$AAv?$AA?$AA@ 000000018005daa8     libucrt:nlsdata.obj
 0002:00009ab0       ??_C@_17EGKACKIF@?$AAD?$AAe?$AAc?$AA?$AA@ 000000018005dab0     libucrt:nlsdata.obj
 0002:00009ab8       ??_C@_1BA@EFMEIEBA@?$AAJ?$AAa?$AAn?$AAu?$AAa?$AAr?$AAy?$AA?$AA@ 000000018005dab8     libucrt:nlsdata.obj
 0002:00009ac8       ??_C@_1BC@JGDDFFAM@?$AAF?$AAe?$AAb?$AAr?$AAu?$AAa?$AAr?$AAy?$AA?$AA@ 000000018005dac8     libucrt:nlsdata.obj
 0002:00009ae0       ??_C@_1M@IKEENEDF@?$AAM?$AAa?$AAr?$AAc?$AAh?$AA?$AA@ 000000018005dae0     libucrt:nlsdata.obj
 0002:00009af0       ??_C@_1M@GJNLMHFD@?$AAA?$AAp?$AAr?$AAi?$AAl?$AA?$AA@ 000000018005daf0     libucrt:nlsdata.obj
 0002:00009b00       ??_C@_19EPFLPGAP@?$AAJ?$AAu?$AAn?$AAe?$AA?$AA@ 000000018005db00     libucrt:nlsdata.obj
 0002:00009b10       ??_C@_19BIFMLPCD@?$AAJ?$AAu?$AAl?$AAy?$AA?$AA@ 000000018005db10     libucrt:nlsdata.obj
 0002:00009b20       ??_C@_1O@PAHLKOAC@?$AAA?$AAu?$AAg?$AAu?$AAs?$AAt?$AA?$AA@ 000000018005db20     libucrt:nlsdata.obj
 0002:00009b30       ??_C@_1BE@DKAAMBJL@?$AAS?$AAe?$AAp?$AAt?$AAe?$AAm?$AAb?$AAe?$AAr?$AA?$AA@ 000000018005db30     libucrt:nlsdata.obj
 0002:00009b48       ??_C@_1BA@EPANDLNG@?$AAO?$AAc?$AAt?$AAo?$AAb?$AAe?$AAr?$AA?$AA@ 000000018005db48     libucrt:nlsdata.obj
 0002:00009b58       ??_C@_1BC@BGLIFPF@?$AAN?$AAo?$AAv?$AAe?$AAm?$AAb?$AAe?$AAr?$AA?$AA@ 000000018005db58     libucrt:nlsdata.obj
 0002:00009b70       ??_C@_1BC@FEMKIFH@?$AAD?$AAe?$AAc?$AAe?$AAm?$AAb?$AAe?$AAr?$AA?$AA@ 000000018005db70     libucrt:nlsdata.obj
 0002:00009b84       ??_C@_15ODEHAHHF@?$AAA?$AAM?$AA?$AA@ 000000018005db84     libucrt:nlsdata.obj
 0002:00009b8c       ??_C@_15CLMNNGEL@?$AAP?$AAM?$AA?$AA@ 000000018005db8c     libucrt:nlsdata.obj
 0002:00009b98       ??_C@_1BC@IEBCMHCM@?$AAM?$AAM?$AA?1?$AAd?$AAd?$AA?1?$AAy?$AAy?$AA?$AA@ 000000018005db98     libucrt:nlsdata.obj
 0002:00009bb0       ??_C@_1CI@KNAKOEBC@?$AAd?$AAd?$AAd?$AAd?$AA?0?$AA?5?$AAM?$AAM?$AAM?$AAM?$AA?5?$AAd?$AAd?$AA?0?$AA?5?$AAy?$AAy?$AAy?$AAy?$AA?$AA@ 000000018005dbb0     libucrt:nlsdata.obj
 0002:00009bd8       ??_C@_1BC@GDGBMEMK@?$AAH?$AAH?$AA?3?$AAm?$AAm?$AA?3?$AAs?$AAs?$AA?$AA@ 000000018005dbd8     libucrt:nlsdata.obj
 0002:00009dc0       ??_C@_03KHJOGHMM@exp?$AA@  000000018005ddc0     libucrt:fpexcept.obj
 0002:00009dc4       ??_C@_03JGHBODFD@pow?$AA@  000000018005ddc4     libucrt:fpexcept.obj
 0002:00009dc8       ??_C@_03MGHMBJCF@log?$AA@  000000018005ddc8     libucrt:fpexcept.obj
 0002:00009dcc       ??_C@_05HGHHAHAP@log10?$AA@ 000000018005ddcc     libucrt:fpexcept.obj
 0002:00009dd4       ??_C@_04COOMCNPB@sinh?$AA@ 000000018005ddd4     libucrt:fpexcept.obj
 0002:00009ddc       ??_C@_04HPJJNFIM@cosh?$AA@ 000000018005dddc     libucrt:fpexcept.obj
 0002:00009de4       ??_C@_04FJHINJAO@tanh?$AA@ 000000018005dde4     libucrt:fpexcept.obj
 0002:00009dec       ??_C@_04FIHNOPOL@asin?$AA@ 000000018005ddec     libucrt:fpexcept.obj
 0002:00009df4       ??_C@_04PDIFKINK@acos?$AA@ 000000018005ddf4     libucrt:fpexcept.obj
 0002:00009dfc       ??_C@_04MLLJIGOK@atan?$AA@ 000000018005ddfc     libucrt:fpexcept.obj
 0002:00009e04       ??_C@_05KNGEOGJB@atan2?$AA@ 000000018005de04     libucrt:fpexcept.obj
 0002:00009e0c       ??_C@_04EIAKFFMI@sqrt?$AA@ 000000018005de0c     libucrt:fpexcept.obj
 0002:00009e14       ??_C@_03BLEJJJBH@sin?$AA@  000000018005de14     libucrt:fpexcept.obj
 0002:00009e18       ??_C@_03LALBNOCG@cos?$AA@  000000018005de18     libucrt:fpexcept.obj
 0002:00009e1c       ??_C@_03IIINPABG@tan?$AA@  000000018005de1c     libucrt:fpexcept.obj
 0002:00009e20       ??_C@_04GFPJNGEK@ceil?$AA@ 000000018005de20     libucrt:fpexcept.obj
 0002:00009e28       ??_C@_05PBJFFIGL@floor?$AA@ 000000018005de28     libucrt:fpexcept.obj
 0002:00009e30       ??_C@_04ODHECPBC@fabs?$AA@ 000000018005de30     libucrt:fpexcept.obj
 0002:00009e38       ??_C@_04EHEDPDJG@modf?$AA@ 000000018005de38     libucrt:fpexcept.obj
 0002:00009e40       ??_C@_05CEJMAHNP@ldexp?$AA@ 000000018005de40     libucrt:fpexcept.obj
 0002:00009e48       ??_C@_05KBKMEMPO@_cabs?$AA@ 000000018005de48     libucrt:fpexcept.obj
 0002:00009e50       ??_C@_06MEIMCGCF@_hypot?$AA@ 000000018005de50     libucrt:fpexcept.obj
 0002:00009e58       ??_C@_04KEPJIHGP@fmod?$AA@ 000000018005de58     libucrt:fpexcept.obj
 0002:00009e60       ??_C@_05GKKHEGJL@frexp?$AA@ 000000018005de60     libucrt:fpexcept.obj
 0002:00009e68       ??_C@_03MJLDFKDL@_y0?$AA@  000000018005de68     libucrt:fpexcept.obj
 0002:00009e6c       ??_C@_03NAKIGLHK@_y1?$AA@  000000018005de6c     libucrt:fpexcept.obj
 0002:00009e70       ??_C@_03ONILCKOB@_yn?$AA@  000000018005de70     libucrt:fpexcept.obj
 0002:00009e74       ??_C@_05JGDBENOH@_logb?$AA@ 000000018005de74     libucrt:fpexcept.obj
 0002:00009e80       ??_C@_0L@KDOEJCKC@_nextafter?$AA@ 000000018005de80     libucrt:fpexcept.obj
 0002:00009e90       _d_inf                     000000018005de90     libucrt:util.obj
 0002:00009e98       _d_max                     000000018005de98     libucrt:util.obj
 0002:00009f40       ??_C@_1EG@CNNIPFIM@?$AAa?$AAp?$AAi?$AA?9?$AAm?$AAs?$AA?9?$AAw?$AAi?$AAn?$AA?9?$AAa?$AAp?$AAp?$AAm?$AAo?$AAd?$AAe?$AAl?$AA?9?$AAr?$AAu?$AAn?$AAt?$AAi?$AAm?$AAe?$AA?9?$AAl?$AA1?$AA?9?$AA1@ 000000018005df40     libucrt:winapi_thunks.obj
 0002:00009f90       ??_C@_1EA@JGEFHKEI@?$AAa?$AAp?$AAi?$AA?9?$AAm?$AAs?$AA?9?$AAw?$AAi?$AAn?$AA?9?$AAc?$AAo?$AAr?$AAe?$AA?9?$AAd?$AAa?$AAt?$AAe?$AAt?$AAi?$AAm?$AAe?$AA?9?$AAl?$AA1?$AA?9?$AA1?$AA?9?$AA1?$AA?$AA@ 000000018005df90     libucrt:winapi_thunks.obj
 0002:00009fd0       ??_C@_1DI@GCIAAENM@?$AAa?$AAp?$AAi?$AA?9?$AAm?$AAs?$AA?9?$AAw?$AAi?$AAn?$AA?9?$AAc?$AAo?$AAr?$AAe?$AA?9?$AAf?$AAi?$AAl?$AAe?$AA?9?$AAl?$AA2?$AA?9?$AA1?$AA?9?$AA1?$AA?$AA@ 000000018005dfd0     libucrt:winapi_thunks.obj
 0002:0000a010       ??_C@_1EI@MPIAOHOC@?$AAa?$AAp?$AAi?$AA?9?$AAm?$AAs?$AA?9?$AAw?$AAi?$AAn?$AA?9?$AAc?$AAo?$AAr?$AAe?$AA?9?$AAl?$AAo?$AAc?$AAa?$AAl?$AAi?$AAz?$AAa?$AAt?$AAi?$AAo?$AAn?$AA?9?$AAl?$AA1?$AA?9@ 000000018005e010     libucrt:winapi_thunks.obj
 0002:0000a060       ??_C@_1FK@FPHCKFIE@?$AAa?$AAp?$AAi?$AA?9?$AAm?$AAs?$AA?9?$AAw?$AAi?$AAn?$AA?9?$AAc?$AAo?$AAr?$AAe?$AA?9?$AAl?$AAo?$AAc?$AAa?$AAl?$AAi?$AAz?$AAa?$AAt?$AAi?$AAo?$AAn?$AA?9?$AAo?$AAb?$AAs@ 000000018005e060     libucrt:winapi_thunks.obj
 0002:0000a0c0       ??_C@_1EM@DILCGIIO@?$AAa?$AAp?$AAi?$AA?9?$AAm?$AAs?$AA?9?$AAw?$AAi?$AAn?$AA?9?$AAc?$AAo?$AAr?$AAe?$AA?9?$AAp?$AAr?$AAo?$AAc?$AAe?$AAs?$AAs?$AAt?$AAh?$AAr?$AAe?$AAa?$AAd?$AAs?$AA?9?$AAl@ 000000018005e0c0     libucrt:winapi_thunks.obj
 0002:0000a110       ??_C@_1DM@LNCGDDPN@?$AAa?$AAp?$AAi?$AA?9?$AAm?$AAs?$AA?9?$AAw?$AAi?$AAn?$AA?9?$AAc?$AAo?$AAr?$AAe?$AA?9?$AAs?$AAt?$AAr?$AAi?$AAn?$AAg?$AA?9?$AAl?$AA1?$AA?9?$AA1?$AA?9?$AA0?$AA?$AA@ 000000018005e110     libucrt:winapi_thunks.obj
 0002:0000a150       ??_C@_1DO@FPAPJEMD@?$AAa?$AAp?$AAi?$AA?9?$AAm?$AAs?$AA?9?$AAw?$AAi?$AAn?$AA?9?$AAc?$AAo?$AAr?$AAe?$AA?9?$AAs?$AAy?$AAs?$AAi?$AAn?$AAf?$AAo?$AA?9?$AAl?$AA1?$AA?9?$AA2?$AA?9?$AA1?$AA?$AA@ 000000018005e150     libucrt:winapi_thunks.obj
 0002:0000a190       ??_C@_1DK@NDHNAHIO@?$AAa?$AAp?$AAi?$AA?9?$AAm?$AAs?$AA?9?$AAw?$AAi?$AAn?$AA?9?$AAc?$AAo?$AAr?$AAe?$AA?9?$AAw?$AAi?$AAn?$AAr?$AAt?$AA?9?$AAl?$AA1?$AA?9?$AA1?$AA?9?$AA0?$AA?$AA@ 000000018005e190     libucrt:winapi_thunks.obj
 0002:0000a1d0       ??_C@_1DM@KGHDGBCM@?$AAa?$AAp?$AAi?$AA?9?$AAm?$AAs?$AA?9?$AAw?$AAi?$AAn?$AA?9?$AAc?$AAo?$AAr?$AAe?$AA?9?$AAx?$AAs?$AAt?$AAa?$AAt?$AAe?$AA?9?$AAl?$AA2?$AA?9?$AA1?$AA?9?$AA0?$AA?$AA@ 000000018005e1d0     libucrt:winapi_thunks.obj
 0002:0000a210       ??_C@_1EO@IJIOEFOH@?$AAa?$AAp?$AAi?$AA?9?$AAm?$AAs?$AA?9?$AAw?$AAi?$AAn?$AA?9?$AAr?$AAt?$AAc?$AAo?$AAr?$AAe?$AA?9?$AAn?$AAt?$AAu?$AAs?$AAe?$AAr?$AA?9?$AAw?$AAi?$AAn?$AAd?$AAo?$AAw?$AA?9@ 000000018005e210     libucrt:winapi_thunks.obj
 0002:0000a260       ??_C@_1FG@HHGEKANL@?$AAa?$AAp?$AAi?$AA?9?$AAm?$AAs?$AA?9?$AAw?$AAi?$AAn?$AA?9?$AAs?$AAe?$AAc?$AAu?$AAr?$AAi?$AAt?$AAy?$AA?9?$AAs?$AAy?$AAs?$AAt?$AAe?$AAm?$AAf?$AAu?$AAn?$AAc?$AAt?$AAi@ 000000018005e260     libucrt:winapi_thunks.obj
 0002:0000a2c0       ??_C@_1FG@NCKKOLKO@?$AAe?$AAx?$AAt?$AA?9?$AAm?$AAs?$AA?9?$AAw?$AAi?$AAn?$AA?9?$AAk?$AAe?$AAr?$AAn?$AAe?$AAl?$AA3?$AA2?$AA?9?$AAp?$AAa?$AAc?$AAk?$AAa?$AAg?$AAe?$AA?9?$AAc?$AAu?$AAr?$AAr@ 000000018005e2c0     libucrt:winapi_thunks.obj
 0002:0000a320       ??_C@_1EG@DBIOJECG@?$AAe?$AAx?$AAt?$AA?9?$AAm?$AAs?$AA?9?$AAw?$AAi?$AAn?$AA?9?$AAn?$AAt?$AAu?$AAs?$AAe?$AAr?$AA?9?$AAd?$AAi?$AAa?$AAl?$AAo?$AAg?$AAb?$AAo?$AAx?$AA?9?$AAl?$AA1?$AA?9?$AA1@ 000000018005e320     libucrt:winapi_thunks.obj
 0002:0000a370       ??_C@_1EO@FIHMJCLF@?$AAe?$AAx?$AAt?$AA?9?$AAm?$AAs?$AA?9?$AAw?$AAi?$AAn?$AA?9?$AAn?$AAt?$AAu?$AAs?$AAe?$AAr?$AA?9?$AAw?$AAi?$AAn?$AAd?$AAo?$AAw?$AAs?$AAt?$AAa?$AAt?$AAi?$AAo?$AAn?$AA?9@ 000000018005e370     libucrt:winapi_thunks.obj
 0002:0000a3c0       ??_C@_1O@BCCLBEOE@?$AAu?$AAs?$AAe?$AAr?$AA3?$AA2?$AA?$AA@ 000000018005e3c0     libucrt:winapi_thunks.obj
 0002:0000a3e0       ??_C@_0BE@LJANKFHF@EnumSystemLocalesEx?$AA@ 000000018005e3e0     libucrt:winapi_thunks.obj
 0002:0000a420       ??_C@_0BA@HNOPNCHB@GetActiveWindow?$AA@ 000000018005e420     libucrt:winapi_thunks.obj
 0002:0000a440       ??_C@_0BD@HHGDFDBJ@GetLastActivePopup?$AA@ 000000018005e440     libucrt:winapi_thunks.obj
 0002:0000a468       ??_C@_0BI@DFKBFLJE@GetProcessWindowStation?$AA@ 000000018005e468     libucrt:winapi_thunks.obj
 0002:0000a488       ??_C@_0BJ@PBCCBIPI@GetUserDefaultLocaleName?$AA@ 000000018005e488     libucrt:winapi_thunks.obj
 0002:0000a4b0       ??_C@_0BK@DEKFELLI@GetUserObjectInformationW?$AA@ 000000018005e4b0     libucrt:winapi_thunks.obj
 0002:0000a4e0       ??_C@_0BC@CELBKLLA@IsValidLocaleName?$AA@ 000000018005e4e0     libucrt:winapi_thunks.obj
 0002:0000a508       ??_C@_0BB@CDHDDLLP@LCIDToLocaleName?$AA@ 000000018005e508     libucrt:winapi_thunks.obj
 0002:0000a528       ??_C@_0BB@HBDEELFH@LocaleNameToLCID?$AA@ 000000018005e528     libucrt:winapi_thunks.obj
 0002:0000a548       ??_C@_0M@CHKKJDAI@MessageBoxA?$AA@ 000000018005e548     libucrt:winapi_thunks.obj
 0002:0000a560       ??_C@_0M@DLDCCGNP@MessageBoxW?$AA@ 000000018005e560     libucrt:winapi_thunks.obj
 0002:0000a570       __log_256_lead             000000018005e570     libucrt:log_256_lead_tail_table.obj
 0002:0000ad80       __log_256_tail             000000018005ed80     libucrt:log_256_lead_tail_table.obj
 0002:0000b590       __two_to_jby64_head_table  000000018005f590     libucrt:two_to_jby64_head_tail_table.obj
 0002:0000b790       __two_to_jby64_tail_table  000000018005f790     libucrt:two_to_jby64_head_tail_table.obj
 0002:0000b990       ??_C@_04MBFDLNIM@powf?$AA@ 000000018005f990     libucrt:pow_special.obj
 0002:0000b9a0       __two_to_jby64_table       000000018005f9a0     libucrt:two_to_jby64_table.obj
 0002:0000bba0       __log_F_inv_qword          000000018005fba0     libucrt:log_f_inv_qword_table.obj
 0002:0000c3d0       ??_C@_01GBGANLPD@0?$AA@    00000001800603d0     libucrt:cfout.obj
 0002:0000c3d4       ??_C@_05DNEBIAHO@1?$CDINF?$AA@ 00000001800603d4     libucrt:cfout.obj
 0002:0000c3dc       ??_C@_06IMKFLFPG@1?$CDQNAN?$AA@ 00000001800603dc     libucrt:cfout.obj
 0002:0000c3e4       ??_C@_06PGGFOGJG@1?$CDSNAN?$AA@ 00000001800603e4     libucrt:cfout.obj
 0002:0000c3ec       ??_C@_05PHHOCPM@1?$CDIND?$AA@ 00000001800603ec     libucrt:cfout.obj
 0002:0000c400       __acrt_rg_language         0000000180060400     libucrt:get_qualified_locale.obj
 0002:0000c810       __acrt_rg_language_count   0000000180060810     libucrt:get_qualified_locale.obj
 0002:0000c820       __acrt_rg_country          0000000180060820     libucrt:get_qualified_locale.obj
 0002:0000c990       __acrt_rg_country_count    0000000180060990     libucrt:get_qualified_locale.obj
 0002:0000c998       ??_C@_1BC@LLOKLNP@?$AAa?$AAm?$AAe?$AAr?$AAi?$AAc?$AAa?$AAn?$AA?$AA@ 0000000180060998     libucrt:get_qualified_locale.obj
 0002:0000c9b0       ??_C@_1CC@HEIGCDGG@?$AAa?$AAm?$AAe?$AAr?$AAi?$AAc?$AAa?$AAn?$AA?5?$AAe?$AAn?$AAg?$AAl?$AAi?$AAs?$AAh?$AA?$AA@ 00000001800609b0     libucrt:get_qualified_locale.obj
 0002:0000c9d8       ??_C@_1CC@IHCNOMIN@?$AAa?$AAm?$AAe?$AAr?$AAi?$AAc?$AAa?$AAn?$AA?9?$AAe?$AAn?$AAg?$AAl?$AAi?$AAs?$AAh?$AA?$AA@ 00000001800609d8     libucrt:get_qualified_locale.obj
 0002:0000ca00       ??_C@_1BG@GKAGPCGG@?$AAa?$AAu?$AAs?$AAt?$AAr?$AAa?$AAl?$AAi?$AAa?$AAn?$AA?$AA@ 0000000180060a00     libucrt:get_qualified_locale.obj
 0002:0000ca18       ??_C@_1BA@GMENCENF@?$AAb?$AAe?$AAl?$AAg?$AAi?$AAa?$AAn?$AA?$AA@ 0000000180060a18     libucrt:get_qualified_locale.obj
 0002:0000ca28       ??_C@_1BC@PJMIIAAN@?$AAc?$AAa?$AAn?$AAa?$AAd?$AAi?$AAa?$AAn?$AA?$AA@ 0000000180060a28     libucrt:get_qualified_locale.obj
 0002:0000ca40       ??_C@_17NOIMNFBF@?$AAc?$AAh?$AAh?$AA?$AA@ 0000000180060a40     libucrt:get_qualified_locale.obj
 0002:0000ca48       ??_C@_17GGDALCHA@?$AAc?$AAh?$AAi?$AA?$AA@ 0000000180060a48     libucrt:get_qualified_locale.obj
 0002:0000ca50       ??_C@_1BA@NPNJKIBL@?$AAc?$AAh?$AAi?$AAn?$AAe?$AAs?$AAe?$AA?$AA@ 0000000180060a50     libucrt:get_qualified_locale.obj
 0002:0000ca60       ??_C@_1CC@DINBAMMJ@?$AAc?$AAh?$AAi?$AAn?$AAe?$AAs?$AAe?$AA?9?$AAh?$AAo?$AAn?$AAg?$AAk?$AAo?$AAn?$AAg?$AA?$AA@ 0000000180060a60     libucrt:get_qualified_locale.obj
 0002:0000ca88       ??_C@_1CG@IOBJPACO@?$AAc?$AAh?$AAi?$AAn?$AAe?$AAs?$AAe?$AA?9?$AAs?$AAi?$AAm?$AAp?$AAl?$AAi?$AAf?$AAi?$AAe?$AAd?$AA?$AA@ 0000000180060a88     libucrt:get_qualified_locale.obj
 0002:0000cab0       ??_C@_1CE@GAJNDCKG@?$AAc?$AAh?$AAi?$AAn?$AAe?$AAs?$AAe?$AA?9?$AAs?$AAi?$AAn?$AAg?$AAa?$AAp?$AAo?$AAr?$AAe?$AA?$AA@ 0000000180060ab0     libucrt:get_qualified_locale.obj
 0002:0000cad8       ??_C@_1CI@PAJPIOOD@?$AAc?$AAh?$AAi?$AAn?$AAe?$AAs?$AAe?$AA?9?$AAt?$AAr?$AAa?$AAd?$AAi?$AAt?$AAi?$AAo?$AAn?$AAa?$AAl?$AA?$AA@ 0000000180060ad8     libucrt:get_qualified_locale.obj
 0002:0000cb00       ??_C@_1BM@NILJBMMD@?$AAd?$AAu?$AAt?$AAc?$AAh?$AA?9?$AAb?$AAe?$AAl?$AAg?$AAi?$AAa?$AAn?$AA?$AA@ 0000000180060b00     libucrt:get_qualified_locale.obj
 0002:0000cb20       ??_C@_1CC@OOJPJNEJ@?$AAe?$AAn?$AAg?$AAl?$AAi?$AAs?$AAh?$AA?9?$AAa?$AAm?$AAe?$AAr?$AAi?$AAc?$AAa?$AAn?$AA?$AA@ 0000000180060b20     libucrt:get_qualified_locale.obj
 0002:0000cb48       ??_C@_1BI@IOLFEEM@?$AAe?$AAn?$AAg?$AAl?$AAi?$AAs?$AAh?$AA?9?$AAa?$AAu?$AAs?$AA?$AA@ 0000000180060b48     libucrt:get_qualified_locale.obj
 0002:0000cb60       ??_C@_1BO@HFFNLENJ@?$AAe?$AAn?$AAg?$AAl?$AAi?$AAs?$AAh?$AA?9?$AAb?$AAe?$AAl?$AAi?$AAz?$AAe?$AA?$AA@ 0000000180060b60     libucrt:get_qualified_locale.obj
 0002:0000cb80       ??_C@_1BI@HAPKJMPO@?$AAe?$AAn?$AAg?$AAl?$AAi?$AAs?$AAh?$AA?9?$AAc?$AAa?$AAn?$AA?$AA@ 0000000180060b80     libucrt:get_qualified_locale.obj
 0002:0000cb98       ??_C@_1CE@HLNDMIOJ@?$AAe?$AAn?$AAg?$AAl?$AAi?$AAs?$AAh?$AA?9?$AAc?$AAa?$AAr?$AAi?$AAb?$AAb?$AAe?$AAa?$AAn?$AA?$AA@ 0000000180060b98     libucrt:get_qualified_locale.obj
 0002:0000cbc0       ??_C@_1BI@LDHJHHAC@?$AAe?$AAn?$AAg?$AAl?$AAi?$AAs?$AAh?$AA?9?$AAi?$AAr?$AAe?$AA?$AA@ 0000000180060bc0     libucrt:get_qualified_locale.obj
 0002:0000cbd8       ??_C@_1CA@NJMMCFOC@?$AAe?$AAn?$AAg?$AAl?$AAi?$AAs?$AAh?$AA?9?$AAj?$AAa?$AAm?$AAa?$AAi?$AAc?$AAa?$AA?$AA@ 0000000180060bd8     libucrt:get_qualified_locale.obj
 0002:0000cbf8       ??_C@_1BG@BHJEBBGG@?$AAe?$AAn?$AAg?$AAl?$AAi?$AAs?$AAh?$AA?9?$AAn?$AAz?$AA?$AA@ 0000000180060bf8     libucrt:get_qualified_locale.obj
 0002:0000cc10       ??_C@_1CK@FGOEJJCO@?$AAe?$AAn?$AAg?$AAl?$AAi?$AAs?$AAh?$AA?9?$AAs?$AAo?$AAu?$AAt?$AAh?$AA?5?$AAa?$AAf?$AAr?$AAi?$AAc?$AAa?$AA?$AA@ 0000000180060c10     libucrt:get_qualified_locale.obj
 0002:0000cc40       ??_C@_1DE@PDBJPCJ@?$AAe?$AAn?$AAg?$AAl?$AAi?$AAs?$AAh?$AA?9?$AAt?$AAr?$AAi?$AAn?$AAi?$AAd?$AAa?$AAd?$AA?5?$AAy?$AA?5?$AAt?$AAo?$AAb?$AAa?$AAg?$AAo?$AA?$AA@ 0000000180060c40     libucrt:get_qualified_locale.obj
 0002:0000cc78       ??_C@_1BG@JGCANDME@?$AAe?$AAn?$AAg?$AAl?$AAi?$AAs?$AAh?$AA?9?$AAu?$AAk?$AA?$AA@ 0000000180060c78     libucrt:get_qualified_locale.obj
 0002:0000cc90       ??_C@_1BG@DINKMLE@?$AAe?$AAn?$AAg?$AAl?$AAi?$AAs?$AAh?$AA?9?$AAu?$AAs?$AA?$AA@ 0000000180060c90     libucrt:get_qualified_locale.obj
 0002:0000cca8       ??_C@_1BI@NMFDBHJE@?$AAe?$AAn?$AAg?$AAl?$AAi?$AAs?$AAh?$AA?9?$AAu?$AAs?$AAa?$AA?$AA@ 0000000180060ca8     libucrt:get_qualified_locale.obj
 0002:0000ccc0       ??_C@_1BO@OIHKJKII@?$AAf?$AAr?$AAe?$AAn?$AAc?$AAh?$AA?9?$AAb?$AAe?$AAl?$AAg?$AAi?$AAa?$AAn?$AA?$AA@ 0000000180060cc0     libucrt:get_qualified_locale.obj
 0002:0000cce0       ??_C@_1CA@NKAELJKI@?$AAf?$AAr?$AAe?$AAn?$AAc?$AAh?$AA?9?$AAc?$AAa?$AAn?$AAa?$AAd?$AAi?$AAa?$AAn?$AA?$AA@ 0000000180060ce0     libucrt:get_qualified_locale.obj
 0002:0000cd00       ??_C@_1CE@MGKCNLGN@?$AAf?$AAr?$AAe?$AAn?$AAc?$AAh?$AA?9?$AAl?$AAu?$AAx?$AAe?$AAm?$AAb?$AAo?$AAu?$AAr?$AAg?$AA?$AA@ 0000000180060d00     libucrt:get_qualified_locale.obj
 0002:0000cd28       ??_C@_1BK@CEGEAILM@?$AAf?$AAr?$AAe?$AAn?$AAc?$AAh?$AA?9?$AAs?$AAw?$AAi?$AAs?$AAs?$AA?$AA@ 0000000180060d28     libucrt:get_qualified_locale.obj
 0002:0000cd48       ??_C@_1CA@PAFKEOCC@?$AAg?$AAe?$AAr?$AAm?$AAa?$AAn?$AA?9?$AAa?$AAu?$AAs?$AAt?$AAr?$AAi?$AAa?$AAn?$AA?$AA@ 0000000180060d48     libucrt:get_qualified_locale.obj
 0002:0000cd68       ??_C@_1CI@HCFHGOFD@?$AAg?$AAe?$AAr?$AAm?$AAa?$AAn?$AA?9?$AAl?$AAi?$AAc?$AAh?$AAt?$AAe?$AAn?$AAs?$AAt?$AAe?$AAi?$AAn?$AA?$AA@ 0000000180060d68     libucrt:get_qualified_locale.obj
 0002:0000cd90       ??_C@_1CE@FEDDNPDG@?$AAg?$AAe?$AAr?$AAm?$AAa?$AAn?$AA?9?$AAl?$AAu?$AAx?$AAe?$AAm?$AAb?$AAo?$AAu?$AAr?$AAg?$AA?$AA@ 0000000180060d90     libucrt:get_qualified_locale.obj
 0002:0000cdb8       ??_C@_1BK@LIMINNMN@?$AAg?$AAe?$AAr?$AAm?$AAa?$AAn?$AA?9?$AAs?$AAw?$AAi?$AAs?$AAs?$AA?$AA@ 0000000180060db8     libucrt:get_qualified_locale.obj
 0002:0000cdd8       ??_C@_1BM@LGMDBEPD@?$AAi?$AAr?$AAi?$AAs?$AAh?$AA?9?$AAe?$AAn?$AAg?$AAl?$AAi?$AAs?$AAh?$AA?$AA@ 0000000180060dd8     libucrt:get_qualified_locale.obj
 0002:0000cdf8       ??_C@_1BM@NNCFBAEE@?$AAi?$AAt?$AAa?$AAl?$AAi?$AAa?$AAn?$AA?9?$AAs?$AAw?$AAi?$AAs?$AAs?$AA?$AA@ 0000000180060df8     libucrt:get_qualified_locale.obj
 0002:0000ce18       ??_C@_1BE@FEDJNPIB@?$AAn?$AAo?$AAr?$AAw?$AAe?$AAg?$AAi?$AAa?$AAn?$AA?$AA@ 0000000180060e18     libucrt:get_qualified_locale.obj
 0002:0000ce30       ??_C@_1CC@CILKDEIE@?$AAn?$AAo?$AAr?$AAw?$AAe?$AAg?$AAi?$AAa?$AAn?$AA?9?$AAb?$AAo?$AAk?$AAm?$AAa?$AAl?$AA?$AA@ 0000000180060e30     libucrt:get_qualified_locale.obj
 0002:0000ce58       ??_C@_1CE@DHMMHEPL@?$AAn?$AAo?$AAr?$AAw?$AAe?$AAg?$AAi?$AAa?$AAn?$AA?9?$AAn?$AAy?$AAn?$AAo?$AAr?$AAs?$AAk?$AA?$AA@ 0000000180060e58     libucrt:get_qualified_locale.obj
 0002:0000ce80       ??_C@_1CK@OPNMHECD@?$AAp?$AAo?$AAr?$AAt?$AAu?$AAg?$AAu?$AAe?$AAs?$AAe?$AA?9?$AAb?$AAr?$AAa?$AAz?$AAi?$AAl?$AAi?$AAa?$AAn?$AA?$AA@ 0000000180060e80     libucrt:get_qualified_locale.obj
 0002:0000ceb0       ??_C@_1CE@KEEHCDB@?$AAs?$AAp?$AAa?$AAn?$AAi?$AAs?$AAh?$AA?9?$AAa?$AAr?$AAg?$AAe?$AAn?$AAt?$AAi?$AAn?$AAa?$AA?$AA@ 0000000180060eb0     libucrt:get_qualified_locale.obj
 0002:0000ced8       ??_C@_1CA@GIAOLHJD@?$AAs?$AAp?$AAa?$AAn?$AAi?$AAs?$AAh?$AA?9?$AAb?$AAo?$AAl?$AAi?$AAv?$AAi?$AAa?$AA?$AA@ 0000000180060ed8     libucrt:get_qualified_locale.obj
 0002:0000cef8       ??_C@_1BM@OJNDFNPD@?$AAs?$AAp?$AAa?$AAn?$AAi?$AAs?$AAh?$AA?9?$AAc?$AAh?$AAi?$AAl?$AAe?$AA?$AA@ 0000000180060ef8     libucrt:get_qualified_locale.obj
 0002:0000cf18       ??_C@_1CC@OCOLPALL@?$AAs?$AAp?$AAa?$AAn?$AAi?$AAs?$AAh?$AA?9?$AAc?$AAo?$AAl?$AAo?$AAm?$AAb?$AAi?$AAa?$AA?$AA@ 0000000180060f18     libucrt:get_qualified_locale.obj
 0002:0000cf40       ??_C@_1CG@BPOFMKBB@?$AAs?$AAp?$AAa?$AAn?$AAi?$AAs?$AAh?$AA?9?$AAc?$AAo?$AAs?$AAt?$AAa?$AA?5?$AAr?$AAi?$AAc?$AAa?$AA?$AA@ 0000000180060f40     libucrt:get_qualified_locale.obj
 0002:0000cf68       ??_C@_1DG@IGOBAPBB@?$AAs?$AAp?$AAa?$AAn?$AAi?$AAs?$AAh?$AA?9?$AAd?$AAo?$AAm?$AAi?$AAn?$AAi?$AAc?$AAa?$AAn?$AA?5?$AAr?$AAe?$AAp?$AAu?$AAb?$AAl?$AAi?$AAc?$AA?$AA@ 0000000180060f68     libucrt:get_qualified_locale.obj
 0002:0000cfa0       ??_C@_1CA@JHAPGEGI@?$AAs?$AAp?$AAa?$AAn?$AAi?$AAs?$AAh?$AA?9?$AAe?$AAc?$AAu?$AAa?$AAd?$AAo?$AAr?$AA?$AA@ 0000000180060fa0     libucrt:get_qualified_locale.obj
 0002:0000cfc0       ??_C@_1CI@LAPALJPP@?$AAs?$AAp?$AAa?$AAn?$AAi?$AAs?$AAh?$AA?9?$AAe?$AAl?$AA?5?$AAs?$AAa?$AAl?$AAv?$AAa?$AAd?$AAo?$AAr?$AA?$AA@ 0000000180060fc0     libucrt:get_qualified_locale.obj
 0002:0000cfe8       ??_C@_1CE@PDGBOFOM@?$AAs?$AAp?$AAa?$AAn?$AAi?$AAs?$AAh?$AA?9?$AAg?$AAu?$AAa?$AAt?$AAe?$AAm?$AAa?$AAl?$AAa?$AA?$AA@ 0000000180060fe8     libucrt:get_qualified_locale.obj
 0002:0000d010       ??_C@_1CC@NBEBAODI@?$AAs?$AAp?$AAa?$AAn?$AAi?$AAs?$AAh?$AA?9?$AAh?$AAo?$AAn?$AAd?$AAu?$AAr?$AAa?$AAs?$AA?$AA@ 0000000180061010     libucrt:get_qualified_locale.obj
 0002:0000d038       ??_C@_1CA@LLKGHBMF@?$AAs?$AAp?$AAa?$AAn?$AAi?$AAs?$AAh?$AA?9?$AAm?$AAe?$AAx?$AAi?$AAc?$AAa?$AAn?$AA?$AA@ 0000000180061038     libucrt:get_qualified_locale.obj
 0002:0000d058       ??_C@_1BO@LKNDOIGD@?$AAs?$AAp?$AAa?$AAn?$AAi?$AAs?$AAh?$AA?9?$AAm?$AAo?$AAd?$AAe?$AAr?$AAn?$AA?$AA@ 0000000180061058     libucrt:get_qualified_locale.obj
 0002:0000d078       ??_C@_1CE@NMDMOEEB@?$AAs?$AAp?$AAa?$AAn?$AAi?$AAs?$AAh?$AA?9?$AAn?$AAi?$AAc?$AAa?$AAr?$AAa?$AAg?$AAu?$AAa?$AA?$AA@ 0000000180061078     libucrt:get_qualified_locale.obj
 0002:0000d0a0       ??_C@_1BO@LLCBEJGB@?$AAs?$AAp?$AAa?$AAn?$AAi?$AAs?$AAh?$AA?9?$AAp?$AAa?$AAn?$AAa?$AAm?$AAa?$AA?$AA@ 00000001800610a0     libucrt:get_qualified_locale.obj
 0002:0000d0c0       ??_C@_1CC@FKPGGIHO@?$AAs?$AAp?$AAa?$AAn?$AAi?$AAs?$AAh?$AA?9?$AAp?$AAa?$AAr?$AAa?$AAg?$AAu?$AAa?$AAy?$AA?$AA@ 00000001800610c0     libucrt:get_qualified_locale.obj
 0002:0000d0e8       ??_C@_1BK@CDEIHOOP@?$AAs?$AAp?$AAa?$AAn?$AAi?$AAs?$AAh?$AA?9?$AAp?$AAe?$AAr?$AAu?$AA?$AA@ 00000001800610e8     libucrt:get_qualified_locale.obj
 0002:0000d108       ??_C@_1CI@GAHAKKGP@?$AAs?$AAp?$AAa?$AAn?$AAi?$AAs?$AAh?$AA?9?$AAp?$AAu?$AAe?$AAr?$AAt?$AAo?$AA?5?$AAr?$AAi?$AAc?$AAo?$AA?$AA@ 0000000180061108     libucrt:get_qualified_locale.obj
 0002:0000d130       ??_C@_1CA@NKJBCAGP@?$AAs?$AAp?$AAa?$AAn?$AAi?$AAs?$AAh?$AA?9?$AAu?$AAr?$AAu?$AAg?$AAu?$AAa?$AAy?$AA?$AA@ 0000000180061130     libucrt:get_qualified_locale.obj
 0002:0000d150       ??_C@_1CE@ODILCONM@?$AAs?$AAp?$AAa?$AAn?$AAi?$AAs?$AAh?$AA?9?$AAv?$AAe?$AAn?$AAe?$AAz?$AAu?$AAe?$AAl?$AAa?$AA?$AA@ 0000000180061150     libucrt:get_qualified_locale.obj
 0002:0000d178       ??_C@_1CA@OBNMCGFO@?$AAs?$AAw?$AAe?$AAd?$AAi?$AAs?$AAh?$AA?9?$AAf?$AAi?$AAn?$AAl?$AAa?$AAn?$AAd?$AA?$AA@ 0000000180061178     libucrt:get_qualified_locale.obj
 0002:0000d198       ??_C@_1M@PIPDDPPI@?$AAs?$AAw?$AAi?$AAs?$AAs?$AA?$AA@ 0000000180061198     libucrt:get_qualified_locale.obj
 0002:0000d1a4       ??_C@_15GMFIMNFM@?$AAu?$AAs?$AA?$AA@ 00000001800611a4     libucrt:get_qualified_locale.obj
 0002:0000d1b0       ??_C@_17HAEBFAGL@?$AAu?$AAs?$AAa?$AA?$AA@ 00000001800611b0     libucrt:get_qualified_locale.obj
 0002:0000d1b8       ??_C@_1BA@DPFJEPHB@?$AAa?$AAm?$AAe?$AAr?$AAi?$AAc?$AAa?$AA?$AA@ 00000001800611b8     libucrt:get_qualified_locale.obj
 0002:0000d1c8       ??_C@_1BA@ELOGGFK@?$AAb?$AAr?$AAi?$AAt?$AAa?$AAi?$AAn?$AA?$AA@ 00000001800611c8     libucrt:get_qualified_locale.obj
 0002:0000d1d8       ??_C@_1M@GHBGIGDA@?$AAc?$AAh?$AAi?$AAn?$AAa?$AA?$AA@ 00000001800611d8     libucrt:get_qualified_locale.obj
 0002:0000d1e8       ??_C@_1M@NCHEJOPO@?$AAc?$AAz?$AAe?$AAc?$AAh?$AA?$AA@ 00000001800611e8     libucrt:get_qualified_locale.obj
 0002:0000d1f8       ??_C@_1BA@BKPAPBLA@?$AAe?$AAn?$AAg?$AAl?$AAa?$AAn?$AAd?$AA?$AA@ 00000001800611f8     libucrt:get_qualified_locale.obj
 0002:0000d208       ??_C@_1BM@HKBCKIPC@?$AAg?$AAr?$AAe?$AAa?$AAt?$AA?5?$AAb?$AAr?$AAi?$AAt?$AAa?$AAi?$AAn?$AA?$AA@ 0000000180061208     libucrt:get_qualified_locale.obj
 0002:0000d228       ??_C@_1BA@PPCHPGJB@?$AAh?$AAo?$AAl?$AAl?$AAa?$AAn?$AAd?$AA?$AA@ 0000000180061228     libucrt:get_qualified_locale.obj
 0002:0000d238       ??_C@_1BE@JBMPEGDG@?$AAh?$AAo?$AAn?$AAg?$AA?9?$AAk?$AAo?$AAn?$AAg?$AA?$AA@ 0000000180061238     libucrt:get_qualified_locale.obj
 0002:0000d250       ??_C@_1BI@KOELBBPJ@?$AAn?$AAe?$AAw?$AA?9?$AAz?$AAe?$AAa?$AAl?$AAa?$AAn?$AAd?$AA?$AA@ 0000000180061250     libucrt:get_qualified_locale.obj
 0002:0000d268       ??_C@_15HIEBHAIO@?$AAn?$AAz?$AA?$AA@ 0000000180061268     libucrt:get_qualified_locale.obj
 0002:0000d270       ??_C@_1BC@CHBCPFPI@?$AAp?$AAr?$AA?5?$AAc?$AAh?$AAi?$AAn?$AAa?$AA?$AA@ 0000000180061270     libucrt:get_qualified_locale.obj
 0002:0000d288       ??_C@_1BC@JAOIIFKD@?$AAp?$AAr?$AA?9?$AAc?$AAh?$AAi?$AAn?$AAa?$AA?$AA@ 0000000180061288     libucrt:get_qualified_locale.obj
 0002:0000d2a0       ??_C@_1BI@BEHPPHKC@?$AAp?$AAu?$AAe?$AAr?$AAt?$AAo?$AA?9?$AAr?$AAi?$AAc?$AAo?$AA?$AA@ 00000001800612a0     libucrt:get_qualified_locale.obj
 0002:0000d2b8       ??_C@_1O@PAEOFKDI@?$AAs?$AAl?$AAo?$AAv?$AAa?$AAk?$AA?$AA@ 00000001800612b8     libucrt:get_qualified_locale.obj
 0002:0000d2c8       ??_C@_1BK@FIHMCKAM@?$AAs?$AAo?$AAu?$AAt?$AAh?$AA?5?$AAa?$AAf?$AAr?$AAi?$AAc?$AAa?$AA?$AA@ 00000001800612c8     libucrt:get_qualified_locale.obj
 0002:0000d2e8       ??_C@_1BI@NAEOODKB@?$AAs?$AAo?$AAu?$AAt?$AAh?$AA?5?$AAk?$AAo?$AAr?$AAe?$AAa?$AA?$AA@ 00000001800612e8     libucrt:get_qualified_locale.obj
 0002:0000d300       ??_C@_1BK@FBDGGIFF@?$AAs?$AAo?$AAu?$AAt?$AAh?$AA?9?$AAa?$AAf?$AAr?$AAi?$AAc?$AAa?$AA?$AA@ 0000000180061300     libucrt:get_qualified_locale.obj
 0002:0000d320       ??_C@_1BI@GHLEJDPK@?$AAs?$AAo?$AAu?$AAt?$AAh?$AA?9?$AAk?$AAo?$AAr?$AAe?$AAa?$AA?$AA@ 0000000180061320     libucrt:get_qualified_locale.obj
 0002:0000d338       ??_C@_1CE@PLHLOMJF@?$AAt?$AAr?$AAi?$AAn?$AAi?$AAd?$AAa?$AAd?$AA?5?$AA?$CG?$AA?5?$AAt?$AAo?$AAb?$AAa?$AAg?$AAo?$AA?$AA@ 0000000180061338     libucrt:get_qualified_locale.obj
 0002:0000d360       ??_C@_1BO@MODIMHHI@?$AAu?$AAn?$AAi?$AAt?$AAe?$AAd?$AA?9?$AAk?$AAi?$AAn?$AAg?$AAd?$AAo?$AAm?$AA?$AA@ 0000000180061360     libucrt:get_qualified_locale.obj
 0002:0000d380       ??_C@_1BM@FFHJONBJ@?$AAu?$AAn?$AAi?$AAt?$AAe?$AAd?$AA?9?$AAs?$AAt?$AAa?$AAt?$AAe?$AAs?$AA?$AA@ 0000000180061380     libucrt:get_qualified_locale.obj
 0002:0000d3a0       ??_C@_17DNCLJFIF@?$AAA?$AAC?$AAP?$AA?$AA@ 00000001800613a0     libucrt:get_qualified_locale.obj
 0002:0000d3a8       ??_C@_17CIKBIHLH@?$AAO?$AAC?$AAP?$AA?$AA@ 00000001800613a8     libucrt:get_qualified_locale.obj
 0002:0000d3b0       __rglangidNotDefault       00000001800613b0     libucrt:getqloc_downlevel.obj
 0002:0000f2b0       __log10_256_lead           00000001800632b0     libucrt:log10_256_lead_tail_table.obj
 0002:0000fac0       __log10_256_tail           0000000180063ac0     libucrt:log10_256_lead_tail_table.obj
 0002:000102c8       ??_C@_1BA@BALFACEM@?$AAC?$AAO?$AAN?$AAO?$AAU?$AAT?$AA$?$AA?$AA@ 00000001800642c8     libucrt:initcon.obj
 0002:000102d8       ??_C@_1BK@DBDEIDLH@?$AAK?$AAE?$AAR?$AAN?$AAE?$AAL?$AA3?$AA2?$AA?4?$AAD?$AAL?$AAL?$AA?$AA@ 00000001800642d8     DelayImp:delayhlp.obj
 0002:000102f8       __pfnDliFailureHook2       00000001800642f8     DelayImp:delayhk1.obj
 0002:00010300       _load_config_used          0000000180064300     LIBCMT:loadcfg.obj
 0002:00010398       ??_C@_0BC@BDKFLDHL@unknown?5exception?$AA@ 0000000180064398     crypto_aead.obj
 0002:000103b0       ??_C@_0BA@ELKIONDK@bad?5locale?5name?$AA@ 00000001800643b0     crypto_aead.obj
 0002:000103c0       ??_C@_05LAPONLG@false?$AA@ 00000001800643c0     crypto_aead.obj
 0002:000103c8       ??_C@_04LOAJBDKD@true?$AA@ 00000001800643c8     crypto_aead.obj
 0002:000103cd       ??_C@_00CNPNBAHC@?$AA@     00000001800643cd     crypto_aead.obj
 0002:000103d0       ??_C@_02LMMGGCAJ@?3?5?$AA@ 00000001800643d0     crypto_aead.obj
 0002:000103d8       ??_C@_08LLGCOLLL@iostream?$AA@ 00000001800643d8     crypto_aead.obj
 0002:000103e8       ??_C@_0BG@PADBLCHM@iostream?5stream?5error?$AA@ 00000001800643e8     crypto_aead.obj
 0002:00010400       ??_C@_0BF@PHHKMMFD@ios_base?3?3badbit?5set?$AA@ 0000000180064400     crypto_aead.obj
 0002:00010418       ??_C@_0BG@FMKFHCIL@ios_base?3?3failbit?5set?$AA@ 0000000180064418     crypto_aead.obj
 0002:00010430       ??_C@_0BF@OOHOMBOF@ios_base?3?3eofbit?5set?$AA@ 0000000180064430     crypto_aead.obj
 0002:00010448       ??_C@_0BA@JFNIOLAK@string?5too?5long?$AA@ 0000000180064448     crypto_aead.obj
 0002:00010460       ??_C@_1FK@CMIPEAOG@?$AAD?$AA?3?$AA?2?$AAS?$AAi?$AAm?$AAs?$AA?2?$AAD?$AAo?$AAw?$AAn?$AAl?$AAo?$AAa?$AAd?$AAs?$AA?2?$AAB?$AAo?$AAt?$AA?2?$AAn?$AAo?$AAd?$AAe?$AA_?$AAm?$AAo?$AAd?$AAu?$AAl@ 0000000180064460     crypto_aead.obj
 0002:000104c0       ??_C@_1FM@LOELJOFK@?$AAs?$AAi?$AAz?$AAe?$AA?5?$AA?$DM?$AA?$DN?$AA?5?$AAi?$AAm?$AAp?$AA?3?$AA?3?$AAk?$AAM?$AAa?$AAx?$AAL?$AAe?$AAn?$AAg?$AAt?$AAh?$AA?5?$AA?$CG?$AA?$CG?$AA?5?$AA?$CC?$AAt?$AAo?$AAo?$AA?5@ 00000001800644c0     crypto_aead.obj
 0002:00010520       ??_C@_0BP@OCGGIME@arguments?5key?5must?5be?5a?5buffer?$AA@ 0000000180064520     crypto_aead.obj
 0002:00010540       ??_C@_0CA@KGENIHPL@argument?5?$CCkey?$CC?5must?5be?5a?5buffer?$AA@ 0000000180064540     crypto_aead.obj
 0002:00010560       ??_C@_0CE@LNJICJLM@argument?5key?5must?5be?532U?5bytes?5l@ 0000000180064560     crypto_aead.obj
 0002:00010590       ??_C@_0ED@EONAOBGL@arguments?5message?0?5additional?5da@ 0000000180064590     crypto_aead.obj
 0002:000105d8       ??_C@_0BO@KPCANLD@argument?5?$CCm?$CC?5must?5be?5a?5buffer?$AA@ 00000001800645d8     crypto_aead.obj
 0002:000105f8       ??_C@_0BP@CMHHIEG@argument?5?$CCad?$CC?5must?5be?5a?5buffer?$AA@ 00000001800645f8     crypto_aead.obj
 0002:00010618       ??_C@_0CB@IHBOGFHN@argument?5?$CCnpub?$CC?5must?5be?5a?5buffer@ 0000000180064618     crypto_aead.obj
 0002:00010640       ??_C@_0CF@KJFAHJNM@argument?5npub?5must?5be?512U?5bytes?5@ 0000000180064640     crypto_aead.obj
 0002:00010668       ??_C@_0CA@KOFHALMP@argument?5?$CCctx?$CC?5must?5be?5a?5buffer?$AA@ 0000000180064668     crypto_aead.obj
 0002:00010690       ??_C@_0ED@INDPJHMG@argument?5ctx?5must?5be?5crypto_aead@ 0000000180064690     crypto_aead.obj
 0002:000106e0       ??_C@_0EH@OKIPPHKH@arguments?5chiper?5text?0?5additiona@ 00000001800646e0     crypto_aead.obj
 0002:00010728       ??_C@_0BO@BDAKEGNE@argument?5?$CCc?$CC?5must?5be?5a?5buffer?$AA@ 0000000180064728     crypto_aead.obj
 0002:00010748       ??_C@_0M@CGOFPGBG@?5bytes?5long?$AA@ 0000000180064748     crypto_aead.obj
 0002:00010758       ??_C@_0CH@KFCEBJEJ@argument?5cipher?5text?5must?5be?5at?5@ 0000000180064758     crypto_aead.obj
 0002:00010780       ??_C@_0L@MMKPMNOD@cipherText?$AA@ 0000000180064780     crypto_aead.obj
 0002:0001078c       ??_C@_03BADCJGEO@mac?$AA@  000000018006478c     crypto_aead.obj
 0002:00010790       ??_C@_0FF@HICKAAEI@arguments?5cipher?5message?0?5mac?0?5a@ 0000000180064790     crypto_aead.obj
 0002:000107e8       ??_C@_0CA@HBJGNCNL@argument?5?$CCmac?$CC?5must?5be?5a?5buffer?$AA@ 00000001800647e8     crypto_aead.obj
 0002:00010808       ??_C@_0CE@HOAFEOKL@argument?5mac?5must?5be?516U?5bytes?5l@ 0000000180064808     crypto_aead.obj
 0002:00010830       ??_C@_0BO@IONBJAGG@argument?5?$CCk?$CC?5must?5be?5a?5buffer?$AA@ 0000000180064830     crypto_aead.obj
 0002:00010850       ??_C@_0CC@HMJMILFP@argument?5k?5must?5be?532U?5bytes?5lon@ 0000000180064850     crypto_aead.obj
 0002:00010874       ??_C@_06LCIDCBMH@?5bytes?$AA@ 0000000180064874     crypto_aead.obj
 0002:00010880       ??_C@_0CE@JFMLDECD@argument?5mac?5cannot?5be?5longer?5th@ 0000000180064880     crypto_aead.obj
 0002:000108a8       ??_C@_0CE@JPKILKBD@argument?5npub?5must?5be?58U?5bytes?5l@ 00000001800648a8     crypto_aead.obj
 0002:000108d0       ??_C@_0CD@OGGOJNPE@crypto_aead_aes256gcm_is_availab@ 00000001800648d0     crypto_aead.obj
 0002:000108f8       ??_C@_0BP@DCLLJIII@crypto_aead_aes256gcm_beforenm?$AA@ 00000001800648f8     crypto_aead.obj
 0002:00010918       ??_C@_0CG@NLGOAPOD@crypto_aead_aes256gcm_encrypt_af@ 0000000180064918     crypto_aead.obj
 0002:00010940       ??_C@_0CG@KLPCDIIM@crypto_aead_aes256gcm_decrypt_af@ 0000000180064940     crypto_aead.obj
 0002:00010968       ??_C@_0CP@JCMDEHCD@crypto_aead_aes256gcm_encrypt_de@ 0000000180064968     crypto_aead.obj
 0002:00010998       ??_C@_0CP@LNFLECLL@crypto_aead_aes256gcm_decrypt_de@ 0000000180064998     crypto_aead.obj
 0002:000109c8       ??_C@_0BO@CDOEKBIP@crypto_aead_aes256gcm_decrypt?$AA@ 00000001800649c8     crypto_aead.obj
 0002:000109e8       ??_C@_0CH@MMEFCDHM@crypto_aead_aes256gcm_decrypt_de@ 00000001800649e8     crypto_aead.obj
 0002:00010a10       ??_C@_0BO@ONEJPFOL@crypto_aead_aes256gcm_encrypt?$AA@ 0000000180064a10     crypto_aead.obj
 0002:00010a30       ??_C@_0CH@BBDIMDIC@crypto_aead_aes256gcm_encrypt_de@ 0000000180064a30     crypto_aead.obj
 0002:00010a58       ??_C@_0BN@BAJCJNDH@crypto_aead_aes256gcm_ABYTES?$AA@ 0000000180064a58     crypto_aead.obj
 0002:00010a78       ??_C@_0DI@MBLJMAHE@Property?5crypto_aead_aes256gcm_A@ 0000000180064a78     crypto_aead.obj
 0002:00010ab0       ??_C@_0BP@ILNNDONI@crypto_aead_aes256gcm_KEYBYTES?$AA@ 0000000180064ab0     crypto_aead.obj
 0002:00010ad0       ??_C@_0DK@OCHALLC@Property?5crypto_aead_aes256gcm_K@ 0000000180064ad0     crypto_aead.obj
 0002:00010b10       ??_C@_0CA@CPELIJKL@crypto_aead_aes256gcm_NPUBBYTES?$AA@ 0000000180064b10     crypto_aead.obj
 0002:00010b30       ??_C@_0DL@BMBNJNFG@Property?5crypto_aead_aes256gcm_N@ 0000000180064b30     crypto_aead.obj
 0002:00010b70       ??_C@_0CA@MMAKIPPB@crypto_aead_aes256gcm_NSECBYTES?$AA@ 0000000180064b70     crypto_aead.obj
 0002:00010b90       ??_C@_0DL@KAFAHLOD@Property?5crypto_aead_aes256gcm_N@ 0000000180064b90     crypto_aead.obj
 0002:00010bd0       ??_C@_0CF@CFOFPPHI@crypto_aead_chacha20poly1305_dec@ 0000000180064bd0     crypto_aead.obj
 0002:00010bf8       ??_C@_0CO@OFAIEHC@crypto_aead_chacha20poly1305_dec@ 0000000180064bf8     crypto_aead.obj
 0002:00010c28       ??_C@_0CF@OLEIKLBM@crypto_aead_chacha20poly1305_enc@ 0000000180064c28     crypto_aead.obj
 0002:00010c50       ??_C@_0CO@NDCNGEIM@crypto_aead_chacha20poly1305_enc@ 0000000180064c50     crypto_aead.obj
 0002:00010c80       ??_C@_0CE@KHHJHFHC@crypto_aead_chacha20poly1305_ABY@ 0000000180064c80     crypto_aead.obj
 0002:00010ca8       ??_C@_0DP@IBADKKDC@Property?5crypto_aead_chacha20pol@ 0000000180064ca8     crypto_aead.obj
 0002:00010ce8       ??_C@_0CG@KIACFIDJ@crypto_aead_chacha20poly1305_KEY@ 0000000180064ce8     crypto_aead.obj
 0002:00010d10       ??_C@_0EB@FGDCLMN@Property?5crypto_aead_chacha20pol@ 0000000180064d10     crypto_aead.obj
 0002:00010d58       ??_C@_0CH@PIGFIECD@crypto_aead_chacha20poly1305_NPU@ 0000000180064d58     crypto_aead.obj
 0002:00010d80       ??_C@_0EC@NMKMLFNL@Property?5crypto_aead_chacha20pol@ 0000000180064d80     crypto_aead.obj
 0002:00010dc8       ??_C@_0CH@BLCEICHJ@crypto_aead_chacha20poly1305_NSE@ 0000000180064dc8     crypto_aead.obj
 0002:00010df0       ??_C@_0EC@GAOBFDGO@Property?5crypto_aead_chacha20pol@ 0000000180064df0     crypto_aead.obj
 0002:00010e38       ??_C@_0CK@HCINFJJK@crypto_aead_chacha20poly1305_iet@ 0000000180064e38     crypto_aead.obj
 0002:00010e68       ??_C@_0DD@NPGAPJNJ@crypto_aead_chacha20poly1305_iet@ 0000000180064e68     crypto_aead.obj
 0002:00010ea0       ??_C@_0CK@LMCAANPO@crypto_aead_chacha20poly1305_iet@ 0000000180064ea0     crypto_aead.obj
 0002:00010ed0       ??_C@_0DD@CBNBJCH@crypto_aead_chacha20poly1305_iet@ 0000000180064ed0     crypto_aead.obj
 0002:00010f08       ??_C@_0CJ@KHGKLCAG@crypto_aead_chacha20poly1305_iet@ 0000000180064f08     crypto_aead.obj
 0002:00010f40       ??_C@_0EE@FMHJMCJN@Property?5crypto_aead_chacha20pol@ 0000000180064f40     crypto_aead.obj
 0002:00010f88       ??_C@_0CL@OGFBLDML@crypto_aead_chacha20poly1305_iet@ 0000000180064f88     crypto_aead.obj
 0002:00010fc0       ??_C@_0EG@GPJFLPPL@Property?5crypto_aead_chacha20pol@ 0000000180064fc0     crypto_aead.obj
 0002:00011008       ??_C@_0CM@KLJIEEPI@crypto_aead_chacha20poly1305_iet@ 0000000180065008     crypto_aead.obj
 0002:00011040       ??_C@_0EH@BDHMNGNG@Property?5crypto_aead_chacha20pol@ 0000000180065040     crypto_aead.obj
 0002:00011088       ??_C@_0CM@EINJECKC@crypto_aead_chacha20poly1305_iet@ 0000000180065088     crypto_aead.obj
 0002:000110c0       ??_C@_0EH@KPDBDAGD@Property?5crypto_aead_chacha20pol@ 00000001800650c0     crypto_aead.obj
 0002:00011108       ??_C@_02BBAHNLBA@?$CFp?$AA@ 0000000180065108     crypto_aead.obj
 0002:0001110c       ??_C@_02MDKMJEGG@eE?$AA@   000000018006510c     crypto_aead.obj
 0002:00011110       ??_C@_02OOPEBDOJ@pP?$AA@   0000000180065110     crypto_aead.obj
 0002:00011118       ??_C@_0BI@CFPLBAOH@invalid?5string?5position?$AA@ 0000000180065118     crypto_aead.obj
 0002:00011130       ??_7?$basic_streambuf@DU?$char_traits@D@std@@@std@@6B@ 0000000180065130     crypto_aead.obj
 0002:000111a8       ??_7error_category@std@@6B@ 00000001800651a8     crypto_aead.obj
 0002:000111d8       ??_7?$basic_ostringstream@DU?$char_traits@D@std@@V?$allocator@D@2@@std@@6B@ 00000001800651d8     crypto_aead.obj
 0002:000111e0       ??_7_Iostream_error_category@std@@6B@ 00000001800651e0     crypto_aead.obj
 0002:00011210       ??_7ios_base@std@@6B@      0000000180065210     crypto_aead.obj
 0002:00011218       ??_7?$basic_ios@DU?$char_traits@D@std@@@std@@6B@ 0000000180065218     crypto_aead.obj
 0002:00011220       ??_7exception@stdext@@6B@  0000000180065220     crypto_aead.obj
 0002:00011238       ??_7?$basic_stringbuf@DU?$char_traits@D@std@@V?$allocator@D@2@@std@@6B@ 0000000180065238     crypto_aead.obj
 0002:000112b0       ??_7failure@ios_base@std@@6B@ 00000001800652b0     crypto_aead.obj
 0002:000112b0       ??_7_System_error@std@@6B@ 00000001800652b0     crypto_aead.obj
 0002:000112c8       ??_8?$basic_ostringstream@DU?$char_traits@D@std@@V?$allocator@D@2@@std@@7B@ 00000001800652c8     crypto_aead.obj
 0002:000112d0       ??_7?$basic_ostream@DU?$char_traits@D@std@@@std@@6B@ 00000001800652d0     crypto_aead.obj
 0002:000112d8       ??_C@_0M@GBNBKBID@crypto_sign?$AA@ 00000001800652d8     crypto_sign.obj
 0002:000112e8       ??_C@_0BB@MLNLAEAD@crypto_sign_open?$AA@ 00000001800652e8     crypto_sign.obj
 0002:00011300       ??_C@_0BF@JCLKPBPK@crypto_sign_detached?$AA@ 0000000180065300     crypto_sign.obj
 0002:00011318       ??_C@_0BM@DELLJIHM@crypto_sign_verify_detached?$AA@ 0000000180065318     crypto_sign.obj
 0002:00011338       ??_C@_0BE@LENGFNOH@crypto_sign_keypair?$AA@ 0000000180065338     crypto_sign.obj
 0002:00011350       ??_C@_0BJ@MEFGJFKB@crypto_sign_seed_keypair?$AA@ 0000000180065350     crypto_sign.obj
 0002:00011370       ??_C@_0BG@DBPJAFOI@crypto_sign_SEEDBYTES?$AA@ 0000000180065370     crypto_sign.obj
 0002:00011388       ??_C@_0DB@DFGJHONB@Property?5crypto_sign_SEEDBYTES?5c@ 0000000180065388     crypto_sign.obj
 0002:000113c0       ??_C@_0BC@DDIOJHB@crypto_sign_BYTES?$AA@ 00000001800653c0     crypto_sign.obj
 0002:000113d8       ??_C@_0CN@PBIKHBEJ@Property?5crypto_sign_BYTES?5could@ 00000001800653d8     crypto_sign.obj
 0002:00011408       ??_C@_0BL@EPBNIOGN@crypto_sign_PUBLICKEYBYTES?$AA@ 0000000180065408     crypto_sign.obj
 0002:00011428       ??_C@_0DG@DJMDAKJE@Property?5crypto_sign_PUBLICKEYBY@ 0000000180065428     crypto_sign.obj
 0002:00011460       ??_C@_0BL@MPAFDHEJ@crypto_sign_SECRETKEYBYTES?$AA@ 0000000180065460     crypto_sign.obj
 0002:00011480       ??_C@_0DG@FGFGNAHK@Property?5crypto_sign_SECRETKEYBY@ 0000000180065480     crypto_sign.obj
 0002:000114b8       ??_C@_07LBIEHNGB@ed25519?$AA@ 00000001800654b8     crypto_sign.obj
 0002:000114c0       ??_C@_0BG@OCIENCAB@crypto_sign_PRIMITIVE?$AA@ 00000001800654c0     crypto_sign.obj
 0002:000114d8       ??_C@_0DB@FDIMIMHH@Property?5crypto_sign_PRIMITIVE?5c@ 00000001800654d8     crypto_sign.obj
 0002:00011510       ??_C@_0CF@CMGBCDDA@argument?5ed25519_pk?5must?5be?5a?5bu@ 0000000180065510     crypto_sign_ed25519.obj
 0002:00011538       ??_C@_0CH@ECDPHBMP@argument?5?$CCed25519_pk?$CC?5must?5be?5a?5@ 0000000180065538     crypto_sign_ed25519.obj
 0002:00011560       ??_C@_0CL@GJCAHIKG@argument?5ed25519_pk?5must?5be?532U?5@ 0000000180065560     crypto_sign_ed25519.obj
 0002:00011590       ??_C@_0DH@MJCFDEKN@crypto_sign_ed25519_pk_to_curve2@ 0000000180065590     crypto_sign_ed25519.obj
 0002:000115c8       ??_C@_0CF@IDMIGOPK@argument?5ed25519_sk?5must?5be?5a?5bu@ 00000001800655c8     crypto_sign_ed25519.obj
 0002:000115f0       ??_C@_0CH@DJCBPDCM@argument?5?$CCed25519_sk?$CC?5must?5be?5a?5@ 00000001800655f0     crypto_sign_ed25519.obj
 0002:00011618       ??_C@_0DD@LNECHIPP@argument?5ed25519_sk?5must?5be?5?$CI32U@ 0000000180065618     crypto_sign_ed25519.obj
 0002:00011650       ??_C@_0DH@ECPGAKLE@crypto_sign_ed25519_sk_to_curve2@ 0000000180065650     crypto_sign_ed25519.obj
 0002:00011688       ??_C@_0DB@DABKFJD@arguments?5message?0?5and?5secretKey@ 0000000180065688     crypto_sign_ed25519.obj
 0002:000116c0       ??_C@_0CE@EAKDBNFD@argument?5?$CCmessage?$CC?5must?5be?5a?5buf@ 00000001800656c0     crypto_sign_ed25519.obj
 0002:000116e8       ??_C@_0CG@NGFMEHMP@argument?5?$CCsecretKey?$CC?5must?5be?5a?5b@ 00000001800656e8     crypto_sign_ed25519.obj
 0002:00011710       ??_C@_0DC@MKBKAIKM@argument?5secretKey?5must?5be?5?$CI32U?5@ 0000000180065710     crypto_sign_ed25519.obj
 0002:00011748       ??_C@_0DM@EADHGGAE@arguments?5signedMessage?5and?5veri@ 0000000180065748     crypto_sign_ed25519.obj
 0002:00011788       ??_C@_0CK@DBLEFOAG@argument?5?$CCsignedMessage?$CC?5must?5be@ 0000000180065788     crypto_sign_ed25519.obj
 0002:000117b8       ??_C@_0CG@LOOMCJFG@argument?5?$CCpublicKey?$CC?5must?5be?5a?5b@ 00000001800657b8     crypto_sign_ed25519.obj
 0002:000117e0       ??_C@_0CK@CCPMAOBA@argument?5publicKey?5must?5be?532U?5b@ 00000001800657e0     crypto_sign_ed25519.obj
 0002:00011810       ??_C@_0CG@ECIFKKNL@argument?5?$CCsignature?$CC?5must?5be?5a?5b@ 0000000180065810     crypto_sign_ed25519.obj
 0002:00011838       ??_C@_0CK@KACMMIMF@argument?5signature?5must?5be?564U?5b@ 0000000180065838     crypto_sign_ed25519.obj
 0002:00011868       ??_C@_09IDENFCJL@publicKey?$AA@ 0000000180065868     crypto_sign_ed25519.obj
 0002:00011878       ??_C@_09JKPDMHAN@secretKey?$AA@ 0000000180065878     crypto_sign_ed25519.obj
 0002:00011888       ??_C@_0CD@EBJFAJOK@the?5argument?5seed?5must?5be?5a?5buff@ 0000000180065888     crypto_sign_ed25519.obj
 0002:000118b0       ??_C@_0BP@KNOHGLNH@argument?5?$CCsd?$CC?5must?5be?5a?5buffer?$AA@ 00000001800658b0     crypto_sign_ed25519.obj
 0002:000118d0       ??_C@_0CD@IFNCAMBF@argument?5sd?5must?5be?532U?5bytes?5lo@ 00000001800658d0     crypto_sign_ed25519.obj
 0002:000118f8       ??_C@_0BP@NBHIBLPG@argument?5?$CCsk?$CC?5must?5be?5a?5buffer?$AA@ 00000001800658f8     crypto_sign_ed25519.obj
 0002:00011918       ??_C@_0CL@MJNMEPBF@argument?5sk?5must?5be?5?$CI32U?5?$CL?532U?$CJ?5@ 0000000180065918     crypto_sign_ed25519.obj
 0002:00011948       ??_C@_0BE@MHOKBIME@crypto_sign_ed25519?$AA@ 0000000180065948     crypto_sign_ed25519.obj
 0002:00011960       ??_C@_0BJ@JBBBJAFE@crypto_sign_ed25519_open?$AA@ 0000000180065960     crypto_sign_ed25519.obj
 0002:00011980       ??_C@_0BN@IENBFBOD@crypto_sign_ed25519_detached?$AA@ 0000000180065980     crypto_sign_ed25519.obj
 0002:000119a0       ??_C@_0CE@EEHBBOJA@crypto_sign_ed25519_verify_detac@ 00000001800659a0     crypto_sign_ed25519.obj
 0002:000119c8       ??_C@_0BM@LDLJABDI@crypto_sign_ed25519_keypair?$AA@ 00000001800659c8     crypto_sign_ed25519.obj
 0002:000119e8       ??_C@_0CB@ECOCNHOJ@crypto_sign_ed25519_seed_keypair@ 00000001800659e8     crypto_sign_ed25519.obj
 0002:00011a10       ??_C@_0CF@JOJPFGBM@crypto_sign_ed25519_pk_to_curve2@ 0000000180065a10     crypto_sign_ed25519.obj
 0002:00011a38       ??_C@_0CF@MNAFANJI@crypto_sign_ed25519_sk_to_curve2@ 0000000180065a38     crypto_sign_ed25519.obj
 0002:00011a60       ??_C@_0BP@CIKHIBI@crypto_sign_ed25519_sk_to_seed?$AA@ 0000000180065a60     crypto_sign_ed25519.obj
 0002:00011a80       ??_C@_0BN@PCCCMCGK@crypto_sign_ed25519_sk_to_pk?$AA@ 0000000180065a80     crypto_sign_ed25519.obj
 0002:00011aa0       ??_C@_0CD@OPGPONGI@crypto_sign_ed25519_PUBLICKEYBYT@ 0000000180065aa0     crypto_sign_ed25519.obj
 0002:00011ac8       ??_C@_0DO@DPHANMIC@Property?5crypto_sign_ed25519_PUB@ 0000000180065ac8     crypto_sign_ed25519.obj
 0002:00011b08       ??_C@_0CD@GPHHFEEM@crypto_sign_ed25519_SECRETKEYBYT@ 0000000180065b08     crypto_sign_ed25519.obj
 0002:00011b30       ??_C@_0DO@FAOFAGGM@Property?5crypto_sign_ed25519_SEC@ 0000000180065b30     crypto_sign_ed25519.obj
 0002:00011b70       ??_C@_0BK@PGGNOHLC@crypto_sign_ed25519_BYTES?$AA@ 0000000180065b70     crypto_sign_ed25519.obj
 0002:00011b90       ??_C@_0DF@BBAPIJFM@Property?5crypto_sign_ed25519_BYT@ 0000000180065b90     crypto_sign_ed25519.obj
 0002:00011bc8       ??_C@_0BO@FFIEMGII@crypto_sign_ed25519_SEEDBYTES?$AA@ 0000000180065bc8     crypto_sign_ed25519.obj
 0002:00011be8       ??_C@_0DJ@PIHHFGC@Property?5crypto_sign_ed25519_SEE@ 0000000180065be8     crypto_sign_ed25519.obj
 0002:00011c30       ??_C@_0EC@IGBEKCAO@arguments?5message?0?5nonce?0?5public@ 0000000180065c30     crypto_box.obj
 0002:00011c78       ??_C@_0CC@ONJOFCEJ@argument?5?$CCnonce?$CC?5must?5be?5a?5buffe@ 0000000180065c78     crypto_box.obj
 0002:00011ca0       ??_C@_0CG@LHFJHNGK@argument?5nonce?5must?5be?524U?5bytes@ 0000000180065ca0     crypto_box.obj
 0002:00011cc8       ??_C@_0CK@ENGJNEPO@argument?5secretKey?5must?5be?532U?5b@ 0000000180065cc8     crypto_box.obj
 0002:00011d00       ??_C@_0EF@CMLPJHGI@arguments?5cipherText?0?5nonce?0?5pub@ 0000000180065d00     crypto_box.obj
 0002:00011d48       ??_C@_0CH@FOJBOLFN@argument?5?$CCcipherText?$CC?5must?5be?5a?5@ 0000000180065d48     crypto_box.obj
 0002:00011d70       ??_C@_0DE@NPPFBCBE@argument?5cipherText?5must?5have?5a?5@ 0000000180065d70     crypto_box.obj
 0002:00011da8       ??_C@_0CI@NBOILGJO@?5bytes?5of?5argument?5cipherText?5mu@ 0000000180065da8     crypto_box.obj
 0002:00011dd0       ??_C@_0L@MEIPCOF@the?5first?5?$AA@ 0000000180065dd0     crypto_box.obj
 0002:00011de0       ??_C@_0DD@PBBIINBB@arguments?5publicKey?0?5and?5secretK@ 0000000180065de0     crypto_box.obj
 0002:00011e18       ??_C@_0BL@FEEFNGAO@crypto_box_beforenm?5failed?$AA@ 0000000180065e18     crypto_box.obj
 0002:00011e38       ??_C@_0CP@GALLBDOL@arguments?5message?0?5nonce?5and?5k?5m@ 0000000180065e38     crypto_box.obj
 0002:00011e68       ??_C@_0BP@GDHHPCP@arguments?5cipherText?0?5nonce?0?5k?$AA@ 0000000180065e68     crypto_box.obj
 0002:00011e90       ??_C@_0EK@LDPLNELA@arguments?5mac?0?5message?0?5nonce?0?5a@ 0000000180065e90     crypto_box.obj
 0002:00011ee0       ??_C@_0BP@KKGGJJBF@argument?5?$CCpk?$CC?5must?5be?5a?5buffer?$AA@ 0000000180065ee0     crypto_box.obj
 0002:00011f00       ??_C@_0CD@JFNOIOPC@argument?5pk?5must?5be?532U?5bytes?5lo@ 0000000180065f00     crypto_box.obj
 0002:00011f28       ??_C@_0CD@GHIJGDAK@argument?5sk?5must?5be?532U?5bytes?5lo@ 0000000180065f28     crypto_box.obj
 0002:00011f50       ??_C@_0EB@BOJFINGL@arguments?5encrypted?5message?0?5mac@ 0000000180065f50     crypto_box.obj
 0002:00011fa0       ??_C@_0EI@BLMKBPFC@arguments?5unencrypted?5message?0?5a@ 0000000180065fa0     crypto_box.obj
 0002:00011ff0       ??_C@_0FM@HFHDMDPB@arguments?5encrypted?5message?0?5rec@ 0000000180065ff0     crypto_box.obj
 0002:00012050       ??_C@_0BP@NBBMKNMG@argument?5seed?5must?5be?5a?5buffer?$AA@ 0000000180066050     crypto_box.obj
 0002:00012070       ??_C@_0CB@DAEDNJOI@argument?5?$CCseed?$CC?5must?5be?5a?5buffer@ 0000000180066070     crypto_box.obj
 0002:00012098       ??_C@_0CF@IAHEBEJD@argument?5seed?5must?5be?532U?5bytes?5@ 0000000180066098     crypto_box.obj
 0002:000120c0       ??_C@_0CB@IMBNEGLP@argument?5?$CCctxt?$CC?5must?5be?5a?5buffer@ 00000001800660c0     crypto_box.obj
 0002:000120e8       ??_C@_0L@DBCGFOFH@crypto_box?$AA@ 00000001800660e8     crypto_box.obj
 0002:000120f8       ??_C@_0BD@JEDDIJFL@crypto_box_keypair?$AA@ 00000001800660f8     crypto_box.obj
 0002:00012110       ??_C@_0BA@NMKGJAGF@crypto_box_easy?$AA@ 0000000180066110     crypto_box.obj
 0002:00012120       ??_C@_0BI@DPACMDCI@crypto_box_easy_afternm?$AA@ 0000000180066120     crypto_box.obj
 0002:00012138       ??_C@_0BE@JLGBEMND@crypto_box_beforenm?$AA@ 0000000180066138     crypto_box.obj
 0002:00012150       ??_C@_0BD@KKDMGEEI@crypto_box_afternm?$AA@ 0000000180066150     crypto_box.obj
 0002:00012168       ??_C@_0BI@ICPKGIJD@crypto_box_seed_keypair?$AA@ 0000000180066168     crypto_box.obj
 0002:00012180       ??_C@_0BE@FAENOLIJ@crypto_box_detached?$AA@ 0000000180066180     crypto_box.obj
 0002:00012198       ??_C@_0BM@NIHMBAF@crypto_box_detached_afternm?$AA@ 0000000180066198     crypto_box.obj
 0002:000121b8       ??_C@_0BA@GDJLODGK@crypto_box_open?$AA@ 00000001800661b8     crypto_box.obj
 0002:000121c8       ??_C@_0BI@BBNBJAIE@crypto_box_open_afternm?$AA@ 00000001800661c8     crypto_box.obj
 0002:000121e0       ??_C@_0BF@CPAECIIA@crypto_box_open_easy?$AA@ 00000001800661e0     crypto_box.obj
 0002:000121f8       ??_C@_0BJ@MCCEIIOG@crypto_box_open_detached?$AA@ 00000001800661f8     crypto_box.obj
 0002:00012218       ??_C@_0CB@DKCPAPII@crypto_box_open_detached_afternm@ 0000000180066218     crypto_box.obj
 0002:00012240       ??_C@_0BN@LMOIHDIC@crypto_box_open_easy_afternm?$AA@ 0000000180066240     crypto_box.obj
 0002:00012260       ??_C@_0BA@JEHDPEBK@crypto_box_seal?$AA@ 0000000180066260     crypto_box.obj
 0002:00012270       ??_C@_0BF@FICJCCAE@crypto_box_seal_open?$AA@ 0000000180066270     crypto_box.obj
 0002:00012288       ??_C@_0BG@JIPOOFPO@crypto_box_NONCEBYTES?$AA@ 0000000180066288     crypto_box.obj
 0002:000122a0       ??_C@_0DB@JBBGCDJF@Property?5crypto_box_NONCEBYTES?5c@ 00000001800662a0     crypto_box.obj
 0002:000122d8       ??_C@_0BE@BGPJFOHD@crypto_box_MACBYTES?$AA@ 00000001800662d8     crypto_box.obj
 0002:000122f0       ??_C@_0CP@BFENGICG@Property?5crypto_box_MACBYTES?5cou@ 00000001800662f0     crypto_box.obj
 0002:00012320       ??_C@_0BJ@LNMHCOF@crypto_box_BEFORENMBYTES?$AA@ 0000000180066320     crypto_box.obj
 0002:00012340       ??_C@_0DE@BGJDCPKL@Property?5crypto_box_BEFORENMBYTE@ 0000000180066340     crypto_box.obj
 0002:00012378       ??_C@_0BI@CPCHCFLE@crypto_box_BOXZEROBYTES?$AA@ 0000000180066378     crypto_box.obj
 0002:00012390       ??_C@_0DD@GCMKNNJJ@Property?5crypto_box_BOXZEROBYTES@ 0000000180066390     crypto_box.obj
 0002:000123c8       ??_C@_0BK@GBGBBCBB@crypto_box_PUBLICKEYBYTES?$AA@ 00000001800663c8     crypto_box.obj
 0002:000123e8       ??_C@_0DF@BEPEFALO@Property?5crypto_box_PUBLICKEYBYT@ 00000001800663e8     crypto_box.obj
 0002:00012420       ??_C@_0BK@OBHJKLDF@crypto_box_SECRETKEYBYTES?$AA@ 0000000180066420     crypto_box.obj
 0002:00012440       ??_C@_0DF@HLGBIKFA@Property?5crypto_box_SECRETKEYBYT@ 0000000180066440     crypto_box.obj
 0002:00012478       ??_C@_0BF@HAFLJFHG@crypto_box_ZEROBYTES?$AA@ 0000000180066478     crypto_box.obj
 0002:00012490       ??_C@_0DA@IDGHDEFJ@Property?5crypto_box_ZEROBYTES?5co@ 0000000180066490     crypto_box.obj
 0002:000124c0       ??_C@_0BF@PIDHNCHE@crypto_box_SEEDBYTES?$AA@ 00000001800664c0     crypto_box.obj
 0002:000124d8       ??_C@_0DA@OEAKCEBG@Property?5crypto_box_SEEDBYTES?5co@ 00000001800664d8     crypto_box.obj
 0002:00012508       ??_C@_0BF@EPJCJCOJ@crypto_box_SEALBYTES?$AA@ 0000000180066508     crypto_box.obj
 0002:00012520       ??_C@_0DA@OCJFCBHP@Property?5crypto_box_SEALBYTES?5co@ 0000000180066520     crypto_box.obj
 0002:00012550       ??_C@_0BL@COOJHFKN@curve25519xsalsa20poly1305?$AA@ 0000000180066550     crypto_box.obj
 0002:00012570       ??_C@_0BF@CLEKAFJN@crypto_box_PRIMITIVE?$AA@ 0000000180066570     crypto_box.obj
 0002:00012588       ??_C@_0DA@ICOPNGLA@Property?5crypto_box_PRIMITIVE?5co@ 0000000180066588     crypto_box.obj
 0002:000125b8       ??_C@_0DG@OKKBMHMC@crypto_box_curve25519xsalsa20pol@ 00000001800665b8     crypto_box_curve25519xsalsa20poly1305.obj
 0002:000125f0       ??_C@_0CG@EFPKBJEA@crypto_box_curve25519xsalsa20pol@ 00000001800665f0     crypto_box_curve25519xsalsa20poly1305.obj
 0002:00012618       ??_C@_0CO@KEPGAMF@crypto_box_curve25519xsalsa20pol@ 0000000180066618     crypto_box_curve25519xsalsa20poly1305.obj
 0002:00012648       ??_C@_0CL@HIFILINK@crypto_box_curve25519xsalsa20pol@ 0000000180066648     crypto_box_curve25519xsalsa20poly1305.obj
 0002:00012678       ??_C@_0CP@IMEIIOHJ@crypto_box_curve25519xsalsa20pol@ 0000000180066678     crypto_box_curve25519xsalsa20poly1305.obj
 0002:000126a8       ??_C@_0CO@DEEAINNG@crypto_box_curve25519xsalsa20pol@ 00000001800666a8     crypto_box_curve25519xsalsa20poly1305.obj
 0002:000126d8       ??_C@_0DD@GGLJDBOH@crypto_box_curve25519xsalsa20pol@ 00000001800666d8     crypto_box_curve25519xsalsa20poly1305.obj
 0002:00012710       ??_C@_0DB@LJHMAFCI@crypto_box_curve25519xsalsa20pol@ 0000000180066710     crypto_box_curve25519xsalsa20poly1305.obj
 0002:00012750       ??_C@_0EM@IKLDEIJM@Property?5crypto_box_curve25519xs@ 0000000180066750     crypto_box_curve25519xsalsa20poly1305.obj
 0002:000127a0       ??_C@_0CP@BNAJMNJ@crypto_box_curve25519xsalsa20pol@ 00000001800667a0     crypto_box_curve25519xsalsa20poly1305.obj
 0002:000127d0       ??_C@_0EK@KPLFAEA@Property?5crypto_box_curve25519xs@ 00000001800667d0     crypto_box_curve25519xsalsa20poly1305.obj
 0002:00012820       ??_C@_0DE@NPBACKKG@crypto_box_curve25519xsalsa20pol@ 0000000180066820     crypto_box_curve25519xsalsa20poly1305.obj
 0002:00012860       ??_C@_0EP@DJPHPBDE@Property?5crypto_box_curve25519xs@ 0000000180066860     crypto_box_curve25519xsalsa20poly1305.obj
 0002:000128b0       ??_C@_0DD@FIEPIENH@crypto_box_curve25519xsalsa20pol@ 00000001800668b0     crypto_box_curve25519xsalsa20poly1305.obj
 0002:000128f0       ??_C@_0EO@GJGIMFKF@Property?5crypto_box_curve25519xs@ 00000001800668f0     crypto_box_curve25519xsalsa20poly1305.obj
 0002:00012940       ??_C@_0DF@IOGAMOGD@crypto_box_curve25519xsalsa20pol@ 0000000180066940     crypto_box_curve25519xsalsa20poly1305.obj
 0002:00012980       ??_C@_0FA@HEGLLKLF@Property?5crypto_box_curve25519xs@ 0000000180066980     crypto_box_curve25519xsalsa20poly1305.obj
 0002:000129d0       ??_C@_0DF@OHIHHEH@crypto_box_curve25519xsalsa20pol@ 00000001800669d0     crypto_box_curve25519xsalsa20poly1305.obj
 0002:00012a10       ??_C@_0FA@BLPOGAFL@Property?5crypto_box_curve25519xs@ 0000000180066a10     crypto_box_curve25519xsalsa20poly1305.obj
 0002:00012a60       ??_C@_0DA@EGEPPGEC@crypto_box_curve25519xsalsa20pol@ 0000000180066a60     crypto_box_curve25519xsalsa20poly1305.obj
 0002:00012a90       ??_C@_0EL@CHKJEGAM@Property?5crypto_box_curve25519xs@ 0000000180066a90     crypto_box_curve25519xsalsa20poly1305.obj
 0002:00012ae0       ??_C@_0DA@MOCDLBEA@crypto_box_curve25519xsalsa20pol@ 0000000180066ae0     crypto_box_curve25519xsalsa20poly1305.obj
 0002:00012b10       ??_C@_0EL@EAMEFGED@Property?5crypto_box_curve25519xs@ 0000000180066b10     crypto_box_curve25519xsalsa20poly1305.obj
 0002:00012b60       ??_C@_0BJ@BLDLJFHD@sodium_runtime_has_aesni?$AA@ 0000000180066b60     sodium_runtime.obj
 0002:00012b80       ??_C@_0BH@NCMHBDLF@sodium_runtime_has_avx?$AA@ 0000000180066b80     sodium_runtime.obj
 0002:00012b98       ??_C@_0BI@FGKJNEGB@sodium_runtime_has_avx2?$AA@ 0000000180066b98     sodium_runtime.obj
 0002:00012bb0       ??_C@_0BI@JJDCBMGM@sodium_runtime_has_neon?$AA@ 0000000180066bb0     sodium_runtime.obj
 0002:00012bc8       ??_C@_0BK@PCJGLOHG@sodium_runtime_has_pclmul?$AA@ 0000000180066bc8     sodium_runtime.obj
 0002:00012be8       ??_C@_0BI@GPKJNAJC@sodium_runtime_has_sse2?$AA@ 0000000180066be8     sodium_runtime.obj
 0002:00012c00       ??_C@_0BI@HGLCOBND@sodium_runtime_has_sse3?$AA@ 0000000180066c00     sodium_runtime.obj
 0002:00012c18       ??_C@_0BJ@NMLOCALI@sodium_runtime_has_sse41?$AA@ 0000000180066c18     sodium_runtime.obj
 0002:00012c38       ??_C@_0BJ@PGIEAOPO@sodium_runtime_has_ssse3?$AA@ 0000000180066c38     sodium_runtime.obj
 0002:00012c58       ??_C@_0M@CJAEDHOJ@crypto_auth?$AA@ 0000000180066c58     crypto_auth.obj
 0002:00012c68       ??_C@_0BD@ILOBHGDM@crypto_auth_verify?$AA@ 0000000180066c68     crypto_auth.obj
 0002:00012c80       ??_C@_0BC@JLBCICCO@crypto_auth_BYTES?$AA@ 0000000180066c80     crypto_auth.obj
 0002:00012c98       ??_C@_0CN@HDFENIGP@Property?5crypto_auth_BYTES?5could@ 0000000180066c98     crypto_auth.obj
 0002:00012cc8       ??_C@_0BF@NKKCOCFP@crypto_auth_KEYBYTES?$AA@ 0000000180066cc8     crypto_auth.obj
 0002:00012ce0       ??_C@_0DA@JNKJMFLM@Property?5crypto_auth_KEYBYTES?5co@ 0000000180066ce0     crypto_auth.obj
 0002:00012d10       ??_C@_0O@FLFIPDGE@hmacsha512256?$AA@ 0000000180066d10     crypto_auth.obj
 0002:00012d20       ??_C@_0BG@KENHDOGK@crypto_auth_PRIMITIVE?$AA@ 0000000180066d20     crypto_auth.obj
 0002:00012d38       ??_C@_0DB@BMHBBAOH@Property?5crypto_auth_PRIMITIVE?5c@ 0000000180066d38     crypto_auth.obj
 0002:00012d70       ??_C@_0CL@GEFHKGDK@arguments?5message?0?5and?5key?5must?5@ 0000000180066d70     crypto_auth_algos.obj
 0002:00012da0       ??_C@_0CA@JAFLCKBD@argument?5?$CCmsg?$CC?5must?5be?5a?5buffer?$AA@ 0000000180066da0     crypto_auth_algos.obj
 0002:00012dc0       ??_C@_0DC@FHEOOLFG@arguments?5token?0?5message?0?5and?5ke@ 0000000180066dc0     crypto_auth_algos.obj
 0002:00012df8       ??_C@_0CC@BGAFLELL@argument?5?$CCtoken?$CC?5must?5be?5a?5buffe@ 0000000180066df8     crypto_auth_algos.obj
 0002:00012e20       ??_C@_0CG@DBIOJPIK@argument?5token?5must?5be?532U?5bytes@ 0000000180066e20     crypto_auth_algos.obj
 0002:00012e48       ??_C@_0BL@BOGKBAPG@argument?5key?5must?5a?5buffer?$AA@ 0000000180066e48     crypto_auth_algos.obj
 0002:00012e68       ??_C@_0DI@BFDNPDHC@arguments?5must?5be?5two?5buffers?3?5h@ 0000000180066e68     crypto_auth_algos.obj
 0002:00012ea0       ??_C@_0CC@CBGMJKBB@argument?5?$CCstate?$CC?5must?5be?5a?5buffe@ 0000000180066ea0     crypto_auth_algos.obj
 0002:00012ed0       ??_C@_0EG@BMIOPFJB@argument?5state?5must?5be?5crypto_au@ 0000000180066ed0     crypto_auth_algos.obj
 0002:00012f18       ??_C@_0CG@GEKEKONC@arguments?5must?5be?5a?5hash?5state?5b@ 0000000180066f18     crypto_auth_algos.obj
 0002:00012f40       ??_C@_0CG@PKMLGKLH@argument?5token?5must?5be?564U?5bytes@ 0000000180066f40     crypto_auth_algos.obj
 0002:00012f70       ??_C@_0EG@FDFCPLFJ@argument?5state?5must?5be?5crypto_au@ 0000000180066f70     crypto_auth_algos.obj
 0002:00012fc0       ??_C@_0EJ@EMAOGILP@argument?5state?5must?5be?5crypto_au@ 0000000180066fc0     crypto_auth_algos.obj
 0002:00013010       ??_C@_0BH@JEPELMDF@crypto_auth_hmacsha256?$AA@ 0000000180067010     crypto_auth_algos.obj
 0002:00013028       ??_C@_0BO@DENJDNAM@crypto_auth_hmacsha256_verify?$AA@ 0000000180067028     crypto_auth_algos.obj
 0002:00013048       ??_C@_0BM@CHNDDBLF@crypto_auth_hmacsha256_init?$AA@ 0000000180067048     crypto_auth_algos.obj
 0002:00013068       ??_C@_0BO@IFOLNEDH@crypto_auth_hmacsha256_update?$AA@ 0000000180067068     crypto_auth_algos.obj
 0002:00013088       ??_C@_0BN@LGCIIHHO@crypto_auth_hmacsha256_final?$AA@ 0000000180067088     crypto_auth_algos.obj
 0002:000130a8       ??_C@_0BN@HDDIKEBN@crypto_auth_hmacsha256_BYTES?$AA@ 00000001800670a8     crypto_auth_algos.obj
 0002:000130c8       ??_C@_0DI@DKAMJBKO@Property?5crypto_auth_hmacsha256_@ 00000001800670c8     crypto_auth_algos.obj
 0002:00013100       ??_C@_0CA@OEOKPDIM@crypto_auth_hmacsha256_KEYBYTES?$AA@ 0000000180067100     crypto_auth_algos.obj
 0002:00013120       ??_C@_0DL@EJMPBEAI@Property?5crypto_auth_hmacsha256_@ 0000000180067120     crypto_auth_algos.obj
 0002:00013160       ??_C@_0BH@GKEGOJFE@crypto_auth_hmacsha512?$AA@ 0000000180067160     crypto_auth_algos.obj
 0002:00013178       ??_C@_0BO@EJOFNJPJ@crypto_auth_hmacsha512_verify?$AA@ 0000000180067178     crypto_auth_algos.obj
 0002:00013198       ??_C@_0BM@DDLHHGJF@crypto_auth_hmacsha512_init?$AA@ 0000000180067198     crypto_auth_algos.obj
 0002:000131b8       ??_C@_0BO@PINHDAMC@crypto_auth_hmacsha512_update?$AA@ 00000001800671b8     crypto_auth_algos.obj
 0002:000131d8       ??_C@_0BN@INFCMDPB@crypto_auth_hmacsha512_final?$AA@ 00000001800671d8     crypto_auth_algos.obj
 0002:000131f8       ??_C@_0BN@EIECOAJC@crypto_auth_hmacsha512_BYTES?$AA@ 00000001800671f8     crypto_auth_algos.obj
 0002:00013218       ??_C@_0DI@HFNAJPGG@Property?5crypto_auth_hmacsha512_@ 0000000180067218     crypto_auth_algos.obj
 0002:00013250       ??_C@_0CA@CKEGLNCJ@crypto_auth_hmacsha512_KEYBYTES?$AA@ 0000000180067250     crypto_auth_algos.obj
 0002:00013270       ??_C@_0DL@MHJFGAMO@Property?5crypto_auth_hmacsha512_@ 0000000180067270     crypto_auth_algos.obj
 0002:000132b0       ??_C@_0BK@IKCIKMCC@crypto_auth_hmacsha512256?$AA@ 00000001800672b0     crypto_auth_algos.obj
 0002:000132d0       ??_C@_0CB@GJLFCPCD@crypto_auth_hmacsha512256_verify@ 00000001800672d0     crypto_auth_algos.obj
 0002:000132f8       ??_C@_0BP@PFNINODD@crypto_auth_hmacsha512256_init?$AA@ 00000001800672f8     crypto_auth_algos.obj
 0002:00013318       ??_C@_0CB@NIIHMGBI@crypto_auth_hmacsha512256_update@ 0000000180067318     crypto_auth_algos.obj
 0002:00013340       ??_C@_0CA@LCCBKKIE@crypto_auth_hmacsha512256_final?$AA@ 0000000180067340     crypto_auth_algos.obj
 0002:00013360       ??_C@_0CA@HHDBIJOH@crypto_auth_hmacsha512256_BYTES?$AA@ 0000000180067360     crypto_auth_algos.obj
 0002:00013380       ??_C@_0DL@NAKMLFLM@Property?5crypto_auth_hmacsha5122@ 0000000180067380     crypto_auth_algos.obj
 0002:000133c0       ??_C@_0CD@FEPOHMF@crypto_auth_hmacsha512256_KEYBYT@ 00000001800673c0     crypto_auth_algos.obj
 0002:000133e8       ??_C@_0DO@HBFDCBLC@Property?5crypto_auth_hmacsha5122@ 00000001800673e8     crypto_auth_algos.obj
 0002:00013428       ??_C@_0DL@LKIKDDDH@arguments?5are?3?5input?5buffer?0?5key@ 0000000180067428     crypto_core.obj
 0002:00013468       ??_C@_0BP@HACANBAO@argument?5?$CCin?$CC?5must?5be?5a?5buffer?$AA@ 0000000180067468     crypto_core.obj
 0002:00013488       ??_C@_0CD@GCKELKNO@argument?5in?5must?5be?516U?5bytes?5lo@ 0000000180067488     crypto_core.obj
 0002:000134b0       ??_C@_0EH@EJPLDJF@argument?5c?5must?5be?5crypto_core_h@ 00000001800674b0     crypto_core.obj
 0002:00013500       ??_C@_0EG@DGFICEIB@argument?5c?5must?5be?5crypto_core_h@ 0000000180067500     crypto_core.obj
 0002:00013550       ??_C@_0EF@EJIOEOEJ@argument?5c?5must?5be?5crypto_core_s@ 0000000180067550     crypto_core.obj
 0002:000135a0       ??_C@_0EH@POHMPJEH@argument?5c?5must?5be?5crypto_core_s@ 00000001800675a0     crypto_core.obj
 0002:000135f0       ??_C@_0EG@BOIGCGJH@argument?5c?5must?5be?5crypto_core_s@ 00000001800675f0     crypto_core.obj
 0002:00013638       ??_C@_0BG@EDMHIKAL@crypto_core_hchacha20?$AA@ 0000000180067638     crypto_core.obj
 0002:00013650       ??_C@_0CB@JBOGNDN@crypto_core_hchacha20_CONSTBYTES@ 0000000180067650     crypto_core.obj
 0002:00013678       ??_C@_0DM@OFKANDEL@Property?5crypto_core_hchacha20_C@ 0000000180067678     crypto_core.obj
 0002:000136b8       ??_C@_0CB@KGBOMOOD@crypto_core_hchacha20_INPUTBYTES@ 00000001800676b8     crypto_core.obj
 0002:000136e0       ??_C@_0DM@JDLHKEBF@Property?5crypto_core_hchacha20_I@ 00000001800676e0     crypto_core.obj
 0002:00013720       ??_C@_0BP@NHALCBGO@crypto_core_hchacha20_KEYBYTES?$AA@ 0000000180067720     crypto_core.obj
 0002:00013740       ??_C@_0DK@FPBOJE@Property?5crypto_core_hchacha20_K@ 0000000180067740     crypto_core.obj
 0002:00013780       ??_C@_0CC@CAIONAHK@crypto_core_hchacha20_OUTPUTBYTE@ 0000000180067780     crypto_core.obj
 0002:000137a8       ??_C@_0DN@KEMBFCDM@Property?5crypto_core_hchacha20_O@ 00000001800677a8     crypto_core.obj
 0002:000137e8       ??_C@_0BF@JMCDBMIB@crypto_core_hsalsa20?$AA@ 00000001800677e8     crypto_core.obj
 0002:00013800       ??_C@_0CA@OIACEMNP@crypto_core_hsalsa20_CONSTBYTES?$AA@ 0000000180067800     crypto_core.obj
 0002:00013820       ??_C@_0DL@CBMBOAHA@Property?5crypto_core_hsalsa20_CO@ 0000000180067820     crypto_core.obj
 0002:00013860       ??_C@_0CA@EHACOPAB@crypto_core_hsalsa20_INPUTBYTES?$AA@ 0000000180067860     crypto_core.obj
 0002:00013880       ??_C@_0DL@FHNGJHCO@Property?5crypto_core_hsalsa20_IN@ 0000000180067880     crypto_core.obj
 0002:000138c0       ??_C@_0BO@NJBIDKDH@crypto_core_hsalsa20_KEYBYTES?$AA@ 00000001800678c0     crypto_core.obj
 0002:000138e0       ??_C@_0DJ@HJNMOHJE@Property?5crypto_core_hsalsa20_KE@ 00000001800678e0     crypto_core.obj
 0002:00013920       ??_C@_0CB@GOGLEPAP@crypto_core_hsalsa20_OUTPUTBYTES@ 0000000180067920     crypto_core.obj
 0002:00013948       ??_C@_0DM@BFAONKCL@Property?5crypto_core_hsalsa20_OU@ 0000000180067948     crypto_core.obj
 0002:00013988       ??_C@_0BE@CFKBMGAA@crypto_core_salsa20?$AA@ 0000000180067988     crypto_core.obj
 0002:000139a0       ??_C@_0BP@JHEEFMEF@crypto_core_salsa20_CONSTBYTES?$AA@ 00000001800679a0     crypto_core.obj
 0002:000139c0       ??_C@_0DK@LMKLFCBG@Property?5crypto_core_salsa20_CON@ 00000001800679c0     crypto_core.obj
 0002:00013a00       ??_C@_0BP@DIEEPPJL@crypto_core_salsa20_INPUTBYTES?$AA@ 0000000180067a00     crypto_core.obj
 0002:00013a20       ??_C@_0DK@MKLMCFEI@Property?5crypto_core_salsa20_INP@ 0000000180067a20     crypto_core.obj
 0002:00013a60       ??_C@_0BN@BNKHPNIJ@crypto_core_salsa20_KEYBYTES?$AA@ 0000000180067a60     crypto_core.obj
 0002:00013a80       ??_C@_0DI@BLAGNKD@Property?5crypto_core_salsa20_KEY@ 0000000180067a80     crypto_core.obj
 0002:00013ab8       ??_C@_0CA@HOMOHDEF@crypto_core_salsa20_OUTPUTBYTES?$AA@ 0000000180067ab8     crypto_core.obj
 0002:00013ad8       ??_C@_0DL@LBECHEPE@Property?5crypto_core_salsa20_OUT@ 0000000180067ad8     crypto_core.obj
 0002:00013b18       ??_C@_0BG@LKNOJJPC@crypto_core_salsa2012?$AA@ 0000000180067b18     crypto_core.obj
 0002:00013b30       ??_C@_0CB@NHEOPFHE@crypto_core_salsa2012_CONSTBYTES@ 0000000180067b30     crypto_core.obj
 0002:00013b58       ??_C@_0DM@JNHGCFF@Property?5crypto_core_salsa2012_C@ 0000000180067b58     crypto_core.obj
 0002:00013b98       ??_C@_0CB@HIEOFGKK@crypto_core_salsa2012_INPUTBYTES@ 0000000180067b98     crypto_core.obj
 0002:00013bc0       ??_C@_0DM@HPMABFAL@Property?5crypto_core_salsa2012_I@ 0000000180067bc0     crypto_core.obj
 0002:00013c00       ??_C@_0BP@NPLBPDKL@crypto_core_salsa2012_KEYBYTES?$AA@ 0000000180067c00     crypto_core.obj
 0002:00013c20       ??_C@_0DK@ECDLJAII@Property?5crypto_core_salsa2012_K@ 0000000180067c20     crypto_core.obj
 0002:00013c60       ??_C@_0CC@CPFAHJNG@crypto_core_salsa2012_OUTPUTBYTE@ 0000000180067c60     crypto_core.obj
 0002:00013c88       ??_C@_0DN@FOCCBIOO@Property?5crypto_core_salsa2012_O@ 0000000180067c88     crypto_core.obj
 0002:00013cc8       ??_C@_0BF@BHLKBNDN@crypto_core_salsa208?$AA@ 0000000180067cc8     crypto_core.obj
 0002:00013ce0       ??_C@_0CA@DKDGKGEM@crypto_core_salsa208_CONSTBYTES?$AA@ 0000000180067ce0     crypto_core.obj
 0002:00013d00       ??_C@_0DL@PNHLGIEI@Property?5crypto_core_salsa208_CO@ 0000000180067d00     crypto_core.obj
 0002:00013d40       ??_C@_0CA@JFDGAFJC@crypto_core_salsa208_INPUTBYTES?$AA@ 0000000180067d40     crypto_core.obj
 0002:00013d60       ??_C@_0DL@ILGMBPBG@Property?5crypto_core_salsa208_IN@ 0000000180067d60     crypto_core.obj
 0002:00013da0       ??_C@_0BO@LFMFNONE@crypto_core_salsa208_KEYBYTES?$AA@ 0000000180067da0     crypto_core.obj
 0002:00013dc0       ??_C@_0DJ@PKLOCEMA@Property?5crypto_core_salsa208_KE@ 0000000180067dc0     crypto_core.obj
 0002:00013e00       ??_C@_0CB@HLPLJBL@crypto_core_salsa208_OUTPUTBYTES@ 0000000180067e00     crypto_core.obj
 0002:00013e28       ??_C@_0DM@DNNANIDN@Property?5crypto_core_salsa208_OU@ 0000000180067e28     crypto_core.obj
 0002:00013e68       ??_C@_0BK@HINDLHEB@argument?5must?5be?5a?5buffer?$AA@ 0000000180067e68     crypto_scalarmult_curve25519.obj
 0002:00013e88       ??_C@_0BO@KFFLEAHJ@argument?5?$CCn?$CC?5must?5be?5a?5buffer?$AA@ 0000000180067e88     crypto_scalarmult_curve25519.obj
 0002:00013ea8       ??_C@_0CC@CCKKFBKK@argument?5n?5must?5be?532U?5bytes?5lon@ 0000000180067ea8     crypto_scalarmult_curve25519.obj
 0002:00013ed0       ??_C@_0BK@EIOONJEK@arguments?5must?5be?5buffers?$AA@ 0000000180067ed0     crypto_scalarmult_curve25519.obj
 0002:00013ef0       ??_C@_0BO@FMGFKADL@argument?5?$CCp?$CC?5must?5be?5a?5buffer?$AA@ 0000000180067ef0     crypto_scalarmult_curve25519.obj
 0002:00013f10       ??_C@_0CC@DNGNIJNF@argument?5p?5must?5be?532U?5bytes?5lon@ 0000000180067f10     crypto_scalarmult_curve25519.obj
 0002:00013f38       ??_C@_0BN@CHINGMP@crypto_scalarmult_curve25519?$AA@ 0000000180067f38     crypto_scalarmult_curve25519.obj
 0002:00013f58       ??_C@_0CC@NDCDIFKH@crypto_scalarmult_curve25519_bas@ 0000000180067f58     crypto_scalarmult_curve25519.obj
 0002:00013f80       ??_C@_0CJ@OIJPOENB@crypto_scalarmult_curve25519_SCA@ 0000000180067f80     crypto_scalarmult_curve25519.obj
 0002:00013fb0       ??_C@_0EE@NIAHCJK@Property?5crypto_scalarmult_curve@ 0000000180067fb0     crypto_scalarmult_curve25519.obj
 0002:00013ff8       ??_C@_0CD@EKKCDMEP@crypto_scalarmult_curve25519_BYT@ 0000000180067ff8     crypto_scalarmult_curve25519.obj
 0002:00014020       ??_C@_0DO@HKCJLLAN@Property?5crypto_scalarmult_curve@ 0000000180068020     crypto_scalarmult_curve25519.obj
 0002:00014060       ??_C@_0BC@HIHFMHPK@crypto_scalarmult?$AA@ 0000000180068060     crypto_scalarmult.obj
 0002:00014078       ??_C@_0BH@IPEPIAIE@crypto_scalarmult_base?$AA@ 0000000180068078     crypto_scalarmult.obj
 0002:00014090       ??_C@_0BO@JLBOHMDF@crypto_scalarmult_SCALARBYTES?$AA@ 0000000180068090     crypto_scalarmult.obj
 0002:000140b0       ??_C@_0DJ@LHJGPNOD@Property?5crypto_scalarmult_SCALA@ 00000001800680b0     crypto_scalarmult.obj
 0002:000140f0       ??_C@_0BI@OIJJCBDI@crypto_scalarmult_BYTES?$AA@ 00000001800680f0     crypto_scalarmult.obj
 0002:00014108       ??_C@_0DD@DBEKLPLN@Property?5crypto_scalarmult_BYTES@ 0000000180068108     crypto_scalarmult.obj
 0002:00014140       ??_C@_0L@OMGBHLCO@curve25519?$AA@ 0000000180068140     crypto_scalarmult.obj
 0002:00014150       ??_C@_0BM@BLOALEBG@crypto_scalarmult_PRIMITIVE?$AA@ 0000000180068150     crypto_scalarmult.obj
 0002:00014170       ??_C@_0DH@JBCHKDDD@Property?5crypto_scalarmult_PRIMI@ 0000000180068170     crypto_scalarmult.obj
 0002:000141a8       ??_C@_0DC@NCHDNJMD@arguments?5message?0?5nonce?0?5and?5ke@ 00000001800681a8     crypto_secretbox_xsalsa20poly1305.obj
 0002:000141e0       ??_C@_0DF@HOOOANNK@arguments?5cipherText?0?5nonce?0?5and@ 00000001800681e0     crypto_secretbox_xsalsa20poly1305.obj
 0002:00014218       ??_C@_0CI@OOMIBNHF@argument?5?$CCcipher_text?$CC?5must?5be?5a@ 0000000180068218     crypto_secretbox_xsalsa20poly1305.obj
 0002:00014240       ??_C@_0CI@IGIFBML@argument?5cipherText?5must?5have?5at@ 0000000180068240     crypto_secretbox_xsalsa20poly1305.obj
 0002:00014268       ??_C@_0CC@GDFANGLH@crypto_secretbox_xsalsa20poly130@ 0000000180068268     crypto_secretbox_xsalsa20poly1305.obj
 0002:00014290       ??_C@_0CH@LLFDJBFF@crypto_secretbox_xsalsa20poly130@ 0000000180068290     crypto_secretbox_xsalsa20poly1305.obj
 0002:000142b8       ??_C@_0CP@EMADANCG@crypto_secretbox_xsalsa20poly130@ 00000001800682b8     crypto_secretbox_xsalsa20poly1305.obj
 0002:000142f0       ??_C@_0EK@DKGFIHCE@Property?5crypto_secretbox_xsalsa@ 00000001800682f0     crypto_secretbox_xsalsa20poly1305.obj
 0002:00014340       ??_C@_0CL@GCOPANBK@crypto_secretbox_xsalsa20poly130@ 0000000180068340     crypto_secretbox_xsalsa20poly1305.obj
 0002:00014370       ??_C@_0EG@DBEEJAHO@Property?5crypto_secretbox_xsalsa@ 0000000180068370     crypto_secretbox_xsalsa20poly1305.obj
 0002:000143b8       ??_C@_0CL@FGBBLJOK@crypto_secretbox_xsalsa20poly130@ 00000001800683b8     crypto_secretbox_xsalsa20poly1305.obj
 0002:000143f0       ??_C@_0EG@EDPDMJOD@Property?5crypto_secretbox_xsalsa@ 00000001800683f0     crypto_secretbox_xsalsa20poly1305.obj
 0002:00014438       ??_C@_0CN@NOKDEBEI@crypto_secretbox_xsalsa20poly130@ 0000000180068438     crypto_secretbox_xsalsa20poly1305.obj
 0002:00014470       ??_C@_0EI@FABCKKOO@Property?5crypto_secretbox_xsalsa@ 0000000180068470     crypto_secretbox_xsalsa20poly1305.obj
 0002:000144b8       ??_C@_0CM@EEEBFKNJ@crypto_secretbox_xsalsa20poly130@ 00000001800684b8     crypto_secretbox_xsalsa20poly1305.obj
 0002:000144f0       ??_C@_0EH@OGPDOEGH@Property?5crypto_secretbox_xsalsa@ 00000001800684f0     crypto_secretbox_xsalsa20poly1305.obj
 0002:00014538       ??_C@_0DH@BOEJMPBM@arguments?5mac?0?5message?0?5nonce?0?5a@ 0000000180068538     crypto_secretbox.obj
 0002:00014570       ??_C@_0BB@FABFCCBK@crypto_secretbox?$AA@ 0000000180068570     crypto_secretbox.obj
 0002:00014588       ??_C@_0BG@LINKGBJJ@crypto_secretbox_open?$AA@ 0000000180068588     crypto_secretbox.obj
 0002:000145a0       ??_C@_0BG@HOHBCJG@crypto_secretbox_easy?$AA@ 00000001800685a0     crypto_secretbox.obj
 0002:000145b8       ??_C@_0BL@HEFEIHJO@crypto_secretbox_open_easy?$AA@ 00000001800685b8     crypto_secretbox.obj
 0002:000145d8       ??_C@_0BK@NOEMOIDG@crypto_secretbox_detached?$AA@ 00000001800685d8     crypto_secretbox.obj
 0002:000145f8       ??_C@_0BP@OGMEGHDP@crypto_secretbox_open_detached?$AA@ 00000001800685f8     crypto_secretbox.obj
 0002:00014618       ??_C@_0BO@HLGLFKEH@crypto_secretbox_BOXZEROBYTES?$AA@ 0000000180068618     crypto_secretbox.obj
 0002:00014638       ??_C@_0DJ@FLDLFMIN@Property?5crypto_secretbox_BOXZER@ 0000000180068638     crypto_secretbox.obj
 0002:00014678       ??_C@_0BK@JIPIFNMM@crypto_secretbox_MACBYTES?$AA@ 0000000180068678     crypto_secretbox.obj
 0002:00014698       ??_C@_0DF@BPNGODEB@Property?5crypto_secretbox_MACBYT@ 0000000180068698     crypto_secretbox.obj
 0002:000146d0       ??_C@_0BK@KMAGOJDM@crypto_secretbox_KEYBYTES?$AA@ 00000001800686d0     crypto_secretbox.obj
 0002:000146f0       ??_C@_0DF@GNGBLKNM@Property?5crypto_secretbox_KEYBYT@ 00000001800686f0     crypto_secretbox.obj
 0002:00014728       ??_C@_0BM@GCKKIIDC@crypto_secretbox_NONCEBYTES?$AA@ 0000000180068728     crypto_secretbox.obj
 0002:00014748       ??_C@_0DH@MBMAIOMG@Property?5crypto_secretbox_NONCEB@ 0000000180068748     crypto_secretbox.obj
 0002:00014780       ??_C@_0BL@CLALDKGI@crypto_secretbox_ZEROBYTES?$AA@ 0000000180068780     crypto_secretbox.obj
 0002:000147a0       ??_C@_0DG@FALLFLCJ@Property?5crypto_secretbox_ZEROBY@ 00000001800687a0     crypto_secretbox.obj
 0002:000147d8       ??_C@_0BB@NCBNKCIG@xsalsa20poly1305?$AA@ 00000001800687d8     crypto_secretbox.obj
 0002:000147f0       ??_C@_0BL@HABKKKID@crypto_secretbox_PRIMITIVE?$AA@ 00000001800687f0     crypto_secretbox.obj
 0002:00014810       ??_C@_0DG@FBDDLJMA@Property?5crypto_secretbox_PRIMIT@ 0000000180068810     crypto_secretbox.obj
 0002:00014848       ??_C@_0CB@LNPLNFMN@libsodium?5cannot?5be?5initialized?$CB@ 0000000180068848     sodium.obj
 0002:00014870       ??_C@_0BB@GOECMHGD@?4?4?2src?2sodium?4cc?$AA@ 0000000180068870     sodium.obj
 0002:00014884       ??_C@_06OOEEIBON@sodium?$AA@ 0000000180068884     sodium.obj
 0002:00014890       ??_C@_0O@OIHAADGM@crypto_stream?$AA@ 0000000180068890     crypto_stream.obj
 0002:000148a0       ??_C@_0BC@LIBCKCFO@crypto_stream_xor?$AA@ 00000001800688a0     crypto_stream.obj
 0002:000148b8       ??_C@_0BH@DFHEMDPB@crypto_stream_KEYBYTES?$AA@ 00000001800688b8     crypto_stream.obj
 0002:000148d0       ??_C@_0DC@MCMKKNEN@Property?5crypto_stream_KEYBYTES?5@ 00000001800688d0     crypto_stream.obj
 0002:00014908       ??_C@_0BJ@MHEFHBJF@crypto_stream_NONCEBYTES?$AA@ 0000000180068908     crypto_stream.obj
 0002:00014928       ??_C@_0DE@CKEJBPPB@Property?5crypto_stream_NONCEBYTE@ 0000000180068928     crypto_stream.obj
 0002:00014960       ??_C@_08OHOEJJOL@xsalsa20?$AA@ 0000000180068960     crypto_stream.obj
 0002:00014970       ??_C@_0BI@JFFGGGKE@crypto_stream_PRIMITIVE?$AA@ 0000000180068970     crypto_stream.obj
 0002:00014988       ??_C@_0DD@NGJELBAF@Property?5crypto_stream_PRIMITIVE@ 0000000180068988     crypto_stream.obj
 0002:000149c0       ??_C@_0FE@CPPMCHJE@argument?5length?5must?5be?5a?5positi@ 00000001800689c0     crypto_streams.obj
 0002:00014a18       ??_C@_0BP@CJDDPAGI@argument?5slen?5must?5be?5a?5number?$AA@ 0000000180068a18     crypto_streams.obj
 0002:00014a38       ??_C@_0CF@ELNKJOIH@argument?5nonce?5must?5be?58U?5bytes?5@ 0000000180068a38     crypto_streams.obj
 0002:00014a60       ??_C@_0BN@PNLNOOOE@argument?5ic?5must?5be?5a?5number?$AA@ 0000000180068a60     crypto_streams.obj
 0002:00014a80       ??_C@_0CG@FOOGFMKF@argument?5nonce?5must?5be?512U?5bytes@ 0000000180068a80     crypto_streams.obj
 0002:00014aa8       ??_C@_0BH@JEKKJDOI@crypto_stream_xsalsa20?$AA@ 0000000180068aa8     crypto_streams.obj
 0002:00014ac0       ??_C@_0BL@FFOCLEA@crypto_stream_xsalsa20_xor?$AA@ 0000000180068ac0     crypto_streams.obj
 0002:00014ae0       ??_C@_0BO@BAIBNLGA@crypto_stream_xsalsa20_xor_ic?$AA@ 0000000180068ae0     crypto_streams.obj
 0002:00014b00       ??_C@_0CA@FCBOLHPC@crypto_stream_xsalsa20_KEYBYTES?$AA@ 0000000180068b00     crypto_streams.obj
 0002:00014b20       ??_C@_0DL@EALEEHAA@Property?5crypto_stream_xsalsa20_@ 0000000180068b20     crypto_streams.obj
 0002:00014b60       ??_C@_0CC@LLAAPABJ@crypto_stream_xsalsa20_NONCEBYTE@ 0000000180068b60     crypto_streams.obj
 0002:00014b88       ??_C@_0DN@CPEBKHKB@Property?5crypto_stream_xsalsa20_@ 0000000180068b88     crypto_streams.obj
 0002:00014bc8       ??_C@_0BG@LNKILDGG@crypto_stream_salsa20?$AA@ 0000000180068bc8     crypto_streams.obj
 0002:00014be0       ??_C@_0BK@EABBFGEG@crypto_stream_salsa20_xor?$AA@ 0000000180068be0     crypto_streams.obj
 0002:00014c00       ??_C@_0BN@GIPOPMCN@crypto_stream_salsa20_xor_ic?$AA@ 0000000180068c00     crypto_streams.obj
 0002:00014c20       ??_C@_0BP@LCMDELKO@crypto_stream_salsa20_KEYBYTES?$AA@ 0000000180068c20     crypto_streams.obj
 0002:00014c40       ??_C@_0DK@CFFJHPAL@Property?5crypto_stream_salsa20_K@ 0000000180068c40     crypto_streams.obj
 0002:00014c80       ??_C@_0CB@BJAFLMKL@crypto_stream_salsa20_NONCEBYTES@ 0000000180068c80     crypto_streams.obj
 0002:00014ca8       ??_C@_0DM@OELHKDBJ@Property?5crypto_stream_salsa20_N@ 0000000180068ca8     crypto_streams.obj
 0002:00014ce8       ??_C@_0BH@LDPDNACF@crypto_stream_salsa208?$AA@ 0000000180068ce8     crypto_streams.obj
 0002:00014d00       ??_C@_0BL@DNNGHNHE@crypto_stream_salsa208_xor?$AA@ 0000000180068d00     crypto_streams.obj
 0002:00014d20       ??_C@_0CA@BAGAAPAJ@crypto_stream_salsa208_KEYBYTES?$AA@ 0000000180068d20     crypto_streams.obj
 0002:00014d40       ??_C@_0DL@CCJHOGAI@Property?5crypto_stream_salsa208_@ 0000000180068d40     crypto_streams.obj
 0002:00014d80       ??_C@_0CC@IJPCLBKP@crypto_stream_salsa208_NONCEBYTE@ 0000000180068d80     crypto_streams.obj
 0002:00014da8       ??_C@_0DN@EGEJNMPE@Property?5crypto_stream_salsa208_@ 0000000180068da8     crypto_streams.obj
 0002:00014de8       ??_C@_0BI@KJBGEIGJ@crypto_stream_salsa2012?$AA@ 0000000180068de8     crypto_streams.obj
 0002:00014e00       ??_C@_0BM@MBHPINGK@crypto_stream_salsa2012_xor?$AA@ 0000000180068e00     crypto_streams.obj
 0002:00014e20       ??_C@_0CB@CHHGPIBD@crypto_stream_salsa2012_KEYBYTES@ 0000000180068e20     crypto_streams.obj
 0002:00014e48       ??_C@_0DM@NHFMPDMI@Property?5crypto_stream_salsa2012@ 0000000180068e48     crypto_streams.obj
 0002:00014e88       ??_C@_0CD@BKAGBLNN@crypto_stream_salsa2012_NONCEBYT@ 0000000180068e88     crypto_streams.obj
 0002:00014eb0       ??_C@_0DO@OAGOBKJK@Property?5crypto_stream_salsa2012@ 0000000180068eb0     crypto_streams.obj
 0002:00014ef0       ??_C@_0BH@HNIIHGHP@crypto_stream_chacha20?$AA@ 0000000180068ef0     crypto_streams.obj
 0002:00014f08       ??_C@_0BL@PEIEPMOK@crypto_stream_chacha20_xor?$AA@ 0000000180068f08     crypto_streams.obj
 0002:00014f28       ??_C@_0BO@GMBBGLDF@crypto_stream_chacha20_xor_ic?$AA@ 0000000180068f28     crypto_streams.obj
 0002:00014f48       ??_C@_0CA@FOLDNBPP@crypto_stream_chacha20_KEYBYTES?$AA@ 0000000180068f48     crypto_streams.obj
 0002:00014f68       ??_C@_0DL@GALDBFNJ@Property?5crypto_stream_chacha20_@ 0000000180068f68     crypto_streams.obj
 0002:00014fa8       ??_C@_0CC@KKHPEGJE@crypto_stream_chacha20_NONCEBYTE@ 0000000180068fa8     crypto_streams.obj
 0002:00014fd0       ??_C@_0DN@PKNOMJCI@Property?5crypto_stream_chacha20_@ 0000000180068fd0     crypto_streams.obj
 0002:00015010       ??_C@_0BM@EFDMGBFP@crypto_stream_chacha20_ietf?$AA@ 0000000180069010     crypto_streams.obj
 0002:00015030       ??_C@_0CA@OFHEDFAD@crypto_stream_chacha20_ietf_xor?$AA@ 0000000180069030     crypto_streams.obj
 0002:00015050       ??_C@_0CD@GNKHBOBA@crypto_stream_chacha20_ietf_xor_@ 0000000180069050     crypto_streams.obj
 0002:00015078       ??_C@_0CF@JGCPIFBN@crypto_stream_chacha20_ietf_KEYB@ 0000000180069078     crypto_streams.obj
 0002:000150a0       ??_C@_0EA@HPACKLPJ@Property?5crypto_stream_chacha20_@ 00000001800690a0     crypto_streams.obj
 0002:000150e0       ??_C@_0CH@KKDBIKIL@crypto_stream_chacha20_ietf_NONC@ 00000001800690e0     crypto_streams.obj
 0002:00015110       ??_C@_0EC@EDIDGMLA@Property?5crypto_stream_chacha20_@ 0000000180069110     crypto_streams.obj
 0002:00015158       ??_C@_0CD@OEHNNGAA@argument?5?$CCbuffer?$CC?5must?5be?5a?5buff@ 0000000180069158     helpers.obj
 0002:00015180       ??_C@_0DD@ICIODJAA@arguments?5must?5be?3?5buffer?0?5buffe@ 0000000180069180     helpers.obj
 0002:000151b8       ??_C@_0CF@LPGMIMEI@argument?5?$CCbuffer_1?$CC?5must?5be?5a?5bu@ 00000001800691b8     helpers.obj
 0002:000151e0       ??_C@_0CF@BAMFMBIC@argument?5?$CCbuffer_2?$CC?5must?5be?5a?5bu@ 00000001800691e0     helpers.obj
 0002:00015208       ??_C@_0BP@JCLODHGF@argument?5size?5must?5be?5a?5number?$AA@ 0000000180069208     helpers.obj
 0002:00015228       ??_C@_0CE@IBFDLPCA@use?5node?8s?5native?5Buffer?4toStrin@ 0000000180069228     helpers.obj
 0002:00015250       ??_C@_0BO@PBELLGNE@arguments?5must?5be?5two?5buffers?$AA@ 0000000180069250     helpers.obj
 0002:00015270       ??_C@_0CE@FHKLIKMI@argument?5?$CCstring1?$CC?5must?5be?5a?5buf@ 0000000180069270     helpers.obj
 0002:00015298       ??_C@_0CI@MKMOMBB@argument?5string1?5must?5be?516U?5byt@ 0000000180069298     helpers.obj
 0002:000152c0       ??_C@_0CE@PIACMHAC@argument?5?$CCstring2?$CC?5must?5be?5a?5buf@ 00000001800692c0     helpers.obj
 0002:000152e8       ??_C@_0CI@DJEBFKEC@argument?5string2?5must?5be?516U?5byt@ 00000001800692e8     helpers.obj
 0002:00015310       ??_C@_0CI@LNIGNCJL@argument?5string1?5must?5be?532U?5byt@ 0000000180069310     helpers.obj
 0002:00015338       ??_C@_0CI@IIGLGEMI@argument?5string2?5must?5be?532U?5byt@ 0000000180069338     helpers.obj
 0002:00015360       ??_C@_0CI@HGMDCHKG@argument?5string1?5must?5be?564U?5byt@ 0000000180069360     helpers.obj
 0002:00015388       ??_C@_0CI@EDCOJBPF@argument?5string2?5must?5be?564U?5byt@ 0000000180069388     helpers.obj
 0002:000153b0       ??_C@_0CB@GMMFFHMA@buffers?5need?5to?5be?5the?5same?5size@ 00000001800693b0     helpers.obj
 0002:000153d8       ??_C@_0BG@CCGEOBJF@sodium_version_string?$AA@ 00000001800693d8     helpers.obj
 0002:000153f0       ??_C@_0BN@HMGKPHFH@sodium_library_version_minor?$AA@ 00000001800693f0     helpers.obj
 0002:00015410       ??_C@_0BN@MDHICLMB@sodium_library_version_major?$AA@ 0000000180069410     helpers.obj
 0002:00015430       ??_C@_06PHMKFJNJ@memcmp?$AA@ 0000000180069430     helpers.obj
 0002:00015438       ??_C@_07LGFNNODD@memzero?$AA@ 0000000180069438     helpers.obj
 0002:00015440       ??_C@_0BB@BHGJOHIN@crypto_verify_16?$AA@ 0000000180069440     helpers.obj
 0002:00015458       ??_C@_0BB@HAIBPGOH@crypto_verify_32?$AA@ 0000000180069458     helpers.obj
 0002:00015470       ??_C@_0BB@CABAJDIK@crypto_verify_64?$AA@ 0000000180069470     helpers.obj
 0002:00015488       ??_C@_0BH@GGDLFHHP@crypto_verify_16_BYTES?$AA@ 0000000180069488     helpers.obj
 0002:000154a0       ??_C@_0DC@JECJDDJE@Property?5crypto_verify_16_BYTES?5@ 00000001800694a0     helpers.obj
 0002:000154d8       ??_C@_0BH@MMIHHBAD@crypto_verify_32_BYTES?$AA@ 00000001800694d8     helpers.obj
 0002:000154f0       ??_C@_0DC@GDKFJDMI@Property?5crypto_verify_32_BYTES?5@ 00000001800694f0     helpers.obj
 0002:00015528       ??_C@_0BH@EAHPDNML@crypto_verify_64_BYTES?$AA@ 0000000180069528     helpers.obj
 0002:00015540       ??_C@_0DC@FDLGDOHN@Property?5crypto_verify_64_BYTES?5@ 0000000180069540     helpers.obj
 0002:00015578       ??_C@_07KIEKCOHD@bin2hex?$AA@ 0000000180069578     helpers.obj
 0002:00015580       ??_C@_07FBJKBFJO@hex2bin?$AA@ 0000000180069580     helpers.obj
 0002:00015588       ??_C@_09LMMMPEKD@increment?$AA@ 0000000180069588     helpers.obj
 0002:00015594       ??_C@_03BDGOHNNK@add?$AA@  0000000180069594     helpers.obj
 0002:00015598       ??_C@_07DIJKPEDD@compare?$AA@ 0000000180069598     helpers.obj
 0002:000155a0       ??_C@_07HPKLNPJL@is_zero?$AA@ 00000001800695a0     helpers.obj
 0002:000155a8       ??_C@_0CI@DLHBGFGG@argument?5size?5must?5be?5a?5positive@ 00000001800695a8     randombytes.obj
 0002:000155d0       ??_C@_0CG@KPFHEMDH@argument?5upper_bound?5must?5be?5a?5n@ 00000001800695d0     randombytes.obj
 0002:000155f8       ??_C@_0CH@EKKGIEJP@arguments?5buf?5and?5seed?5must?5be?5b@ 00000001800695f8     randombytes.obj
 0002:00015620       ??_C@_0BA@EHAMNNHA@randombytes_buf?$AA@ 0000000180069620     randombytes.obj
 0002:00015630       ??_C@_0M@OPKHCMIA@randombytes?$AA@ 0000000180069630     randombytes.obj
 0002:00015640       ??_C@_0BC@ECMELAKE@randombytes_close?$AA@ 0000000180069640     randombytes.obj
 0002:00015658       ??_C@_0BB@KDCLPIPP@randombytes_stir?$AA@ 0000000180069658     randombytes.obj
 0002:00015670       ??_C@_0BD@IBKEPBEP@randombytes_random?$AA@ 0000000180069670     randombytes.obj
 0002:00015688       ??_C@_0BE@LKIDBDHP@randombytes_uniform?$AA@ 0000000180069688     randombytes.obj
 0002:000156a0       ??_C@_0BO@JDBGMKGC@randombytes_buf_deterministic?$AA@ 00000001800696a0     randombytes.obj
 0002:000156c0       ??_C@_0BG@PPMCFAEL@randombytes_SEEDBYTES?$AA@ 00000001800696c0     randombytes.obj
 0002:000156d8       ??_C@_0DB@FALHBAOK@Property?5randombytes_SEEDBYTES?5c@ 00000001800696d8     randombytes.obj
 0002:00015710       ??_C@_0FM@BNDLGPJN@arguments?5must?5be?3?5output?5buffer@ 0000000180069710     crypto_pwhash.obj
 0002:00015770       ??_C@_0CA@HFJAALK@argument?5?$CCout?$CC?5must?5be?5a?5buffer?$AA@ 0000000180069770     crypto_pwhash.obj
 0002:00015790       ??_C@_0CD@IJIHGDLK@argument?5?$CCpasswd?$CC?5must?5be?5a?5buff@ 0000000180069790     crypto_pwhash.obj
 0002:000157b8       ??_C@_0CB@DGAMGLCF@argument?5?$CCsalt?$CC?5must?5be?5a?5buffer@ 00000001800697b8     crypto_pwhash.obj
 0002:000157e0       ??_C@_0CF@LKDMONBJ@argument?5salt?5must?5be?516U?5bytes?5@ 00000001800697e0     crypto_pwhash.obj
 0002:00015808       ??_C@_0CD@KAMHPLKC@argument?5oppLimit?5must?5be?5a?5numb@ 0000000180069808     crypto_pwhash.obj
 0002:00015830       ??_C@_0CD@PGOJPFKN@argument?5memLimit?5must?5be?5a?5numb@ 0000000180069830     crypto_pwhash.obj
 0002:00015858       ??_C@_0BO@KMPKFEEH@argument?5alg?5must?5be?5a?5number?$AA@ 0000000180069858     crypto_pwhash.obj
 0002:00015878       ??_C@_0DF@FCKHEMOA@arguments?5must?5be?3?5password?5buff@ 0000000180069878     crypto_pwhash.obj
 0002:000158b0       ??_C@_0CL@EHLDLKCH@arguments?5must?5be?3?5pwhash?5string@ 00000001800698b0     crypto_pwhash.obj
 0002:000158e0       ??_C@_0CB@HFCDJMHO@argument?5?$CChash?$CC?5must?5be?5a?5buffer@ 00000001800698e0     crypto_pwhash.obj
 0002:00015908       ??_C@_0CG@HBEJFEIK@argument?5hash?5must?5be?5128U?5bytes@ 0000000180069908     crypto_pwhash.obj
 0002:00015930       ??_C@_0FB@PGOCMEN@arguments?5must?5be?3?5output?5buffer@ 0000000180069930     crypto_pwhash.obj
 0002:00015988       ??_C@_0CF@LBGNDJD@argument?5salt?5must?5be?532U?5bytes?5@ 0000000180069988     crypto_pwhash.obj
 0002:000159b0       ??_C@_0EI@DGLHLAEN@arguments?5must?5be?3?5password?5buff@ 00000001800699b0     crypto_pwhash.obj
 0002:000159f8       ??_C@_0BM@NNFBBNPA@argument?5N?5must?5be?5a?5number?$AA@ 00000001800699f8     crypto_pwhash.obj
 0002:00015a18       ??_C@_0BM@IFOEAIJ@argument?5r?5must?5be?5a?5number?$AA@ 0000000180069a18     crypto_pwhash.obj
 0002:00015a38       ??_C@_0BM@HMOKEGHI@argument?5p?5must?5be?5a?5number?$AA@ 0000000180069a38     crypto_pwhash.obj
 0002:00015a58       ??_C@_0CG@LPIDPIA@argument?5hash?5must?5be?5102U?5bytes@ 0000000180069a58     crypto_pwhash.obj
 0002:00015a80       ??_C@_0O@JIOLPAHA@crypto_pwhash?$AA@ 0000000180069a80     crypto_pwhash.obj
 0002:00015a90       ??_C@_0BC@BAJNGOIN@crypto_pwhash_str?$AA@ 0000000180069a90     crypto_pwhash.obj
 0002:00015aa8       ??_C@_0BJ@IOKMLFLP@crypto_pwhash_str_verify?$AA@ 0000000180069aa8     crypto_pwhash.obj
 0002:00015ac8       ??_C@_0CD@FGGCGACI@crypto_pwhash_scryptsalsa208sha2@ 0000000180069ac8     crypto_pwhash.obj
 0002:00015af0       ??_C@_0CG@OLPEHFMG@crypto_pwhash_scryptsalsa208sha2@ 0000000180069af0     crypto_pwhash.obj
 0002:00015b18       ??_C@_0CH@HFKKDNIF@crypto_pwhash_scryptsalsa208sha2@ 0000000180069b18     crypto_pwhash.obj
 0002:00015b40       ??_C@_0CO@CIKAOCCG@crypto_pwhash_scryptsalsa208sha2@ 0000000180069b40     crypto_pwhash.obj
 0002:00015b70       ??_C@_0BG@NJDMHNAH@crypto_pwhash_argon2i?$AA@ 0000000180069b70     crypto_pwhash.obj
 0002:00015b88       ??_C@_0BK@MADKFMKF@crypto_pwhash_argon2i_str?$AA@ 0000000180069b88     crypto_pwhash.obj
 0002:00015ba8       ??_C@_0CB@NPBPJOPN@crypto_pwhash_argon2i_str_verify@ 0000000180069ba8     crypto_pwhash.obj
 0002:00015bd0       ??_C@_0DI@JJMIBFKK@crypto_pwhash_scryptsalsa208sha2@ 0000000180069bd0     crypto_pwhash.obj
 0002:00015c10       ??_C@_0FD@OLOANJHD@Property?5crypto_pwhash_scryptsal@ 0000000180069c10     crypto_pwhash.obj
 0002:00015c68       ??_C@_0DI@DBHPECHB@crypto_pwhash_scryptsalsa208sha2@ 0000000180069c68     crypto_pwhash.obj
 0002:00015ca0       ??_C@_0FD@BPCALCOG@Property?5crypto_pwhash_scryptsal@ 0000000180069ca0     crypto_pwhash.obj
 0002:00015cf8       ??_C@_0DG@PNDEMGPN@crypto_pwhash_scryptsalsa208sha2@ 0000000180069cf8     crypto_pwhash.obj
 0002:00015d30       ??_C@_0FB@DDDLJBGD@Property?5crypto_pwhash_scryptsal@ 0000000180069d30     crypto_pwhash.obj
 0002:00015d88       ??_C@_0DG@BFKMJMBI@crypto_pwhash_scryptsalsa208sha2@ 0000000180069d88     crypto_pwhash.obj
 0002:00015dc0       ??_C@_0FB@OMKDMIHP@Property?5crypto_pwhash_scryptsal@ 0000000180069dc0     crypto_pwhash.obj
 0002:00015e18       ??_C@_0CN@NPDNHPLE@crypto_pwhash_scryptsalsa208sha2@ 0000000180069e18     crypto_pwhash.obj
 0002:00015e50       ??_C@_0EI@HAJNAMBF@Property?5crypto_pwhash_scryptsal@ 0000000180069e50     crypto_pwhash.obj
 0002:00015e98       ??_C@_0CM@JNOBEMGG@crypto_pwhash_scryptsalsa208sha2@ 0000000180069e98     crypto_pwhash.obj
 0002:00015ed0       ??_C@_0EH@IAMJPJLM@Property?5crypto_pwhash_scryptsal@ 0000000180069ed0     crypto_pwhash.obj
 0002:00015f18       ??_C@_03CBCHAKDJ@$7$?$AA@  0000000180069f18     crypto_pwhash.obj
 0002:00015f20       ??_C@_0CN@BCCMLICD@crypto_pwhash_scryptsalsa208sha2@ 0000000180069f20     crypto_pwhash.obj
 0002:00015f50       ??_C@_0EI@OGBODIHK@Property?5crypto_pwhash_scryptsal@ 0000000180069f50     crypto_pwhash.obj
 0002:00015f98       ??_C@_0BK@MHNHONJA@crypto_pwhash_ALG_DEFAULT?$AA@ 0000000180069f98     crypto_pwhash.obj
 0002:00015fb8       ??_C@_0DF@FHLLONLE@Property?5crypto_pwhash_ALG_DEFAU@ 0000000180069fb8     crypto_pwhash.obj
 0002:00015ff0       ??_C@_0BI@GPDNIBBB@crypto_pwhash_SALTBYTES?$AA@ 0000000180069ff0     crypto_pwhash.obj
 0002:00016008       ??_C@_0DD@EKFFMDNN@Property?5crypto_pwhash_SALTBYTES@ 000000018006a008     crypto_pwhash.obj
 0002:00016040       ??_C@_0BH@ENIHMLBM@crypto_pwhash_STRBYTES?$AA@ 000000018006a040     crypto_pwhash.obj
 0002:00016058       ??_C@_0DC@PNFHPPNN@Property?5crypto_pwhash_STRBYTES?5@ 000000018006a058     crypto_pwhash.obj
 0002:00016090       ??_C@_0L@PEJKBMOK@$argon2id$?$AA@ 000000018006a090     crypto_pwhash.obj
 0002:000160a0       ??_C@_0BI@KCCMEGIG@crypto_pwhash_STRPREFIX?$AA@ 000000018006a0a0     crypto_pwhash.obj
 0002:000160b8       ??_C@_0DD@NMNGPHLC@Property?5crypto_pwhash_STRPREFIX@ 000000018006a0b8     crypto_pwhash.obj
 0002:000160f0       ??_C@_0CD@MBJBGJCN@crypto_pwhash_OPSLIMIT_INTERACTI@ 000000018006a0f0     crypto_pwhash.obj
 0002:00016118       ??_C@_0DO@GOCMKPIP@Property?5crypto_pwhash_OPSLIMIT_@ 000000018006a118     crypto_pwhash.obj
 0002:00016158       ??_C@_0CD@GJCGDOPG@crypto_pwhash_MEMLIMIT_INTERACTI@ 000000018006a158     crypto_pwhash.obj
 0002:00016180       ??_C@_0DO@JKOMMEBK@Property?5crypto_pwhash_MEMLIMIT_@ 000000018006a180     crypto_pwhash.obj
 0002:000161c0       ??_C@_0CA@BHHJNJBB@crypto_pwhash_OPSLIMIT_MODERATE?$AA@ 000000018006a1c0     crypto_pwhash.obj
 0002:000161e0       ??_C@_0DL@OMJHKLCP@Property?5crypto_pwhash_OPSLIMIT_@ 000000018006a1e0     crypto_pwhash.obj
 0002:00016220       ??_C@_0CA@DHPHAPFG@crypto_pwhash_MEMLIMIT_MODERATE?$AA@ 000000018006a220     crypto_pwhash.obj
 0002:00016240       ??_C@_0DL@BECBHEID@Property?5crypto_pwhash_MEMLIMIT_@ 000000018006a240     crypto_pwhash.obj
 0002:00016280       ??_C@_0CB@KDCMBEFD@crypto_pwhash_OPSLIMIT_SENSITIVE@ 000000018006a280     crypto_pwhash.obj
 0002:000162a8       ??_C@_0DM@MJLBJAIP@Property?5crypto_pwhash_OPSLIMIT_@ 000000018006a2a8     crypto_pwhash.obj
 0002:000162e8       ??_C@_0CB@ELLEEOLG@crypto_pwhash_MEMLIMIT_SENSITIVE@ 000000018006a2e8     crypto_pwhash.obj
 0002:00016310       ??_C@_0DM@BGCJMJJD@Property?5crypto_pwhash_MEMLIMIT_@ 000000018006a310     crypto_pwhash.obj
 0002:00016350       ??_C@_07LLNBPPOP@argon2i?$AA@ 000000018006a350     crypto_pwhash.obj
 0002:00016358       ??_C@_0BI@JJDNIABB@crypto_pwhash_PRIMITIVE?$AA@ 000000018006a358     crypto_pwhash.obj
 0002:00016370       ??_C@_0DD@KHNCPGHL@Property?5crypto_pwhash_PRIMITIVE@ 000000018006a370     crypto_pwhash.obj
 0002:000163a8       ??_C@_0CE@BGKDMDLE@crypto_pwhash_argon2i_ALG_ARGON2@ 000000018006a3a8     crypto_pwhash.obj
 0002:000163d0       ??_C@_0DP@OEBPECAP@Property?5crypto_pwhash_argon2i_A@ 000000018006a3d0     crypto_pwhash.obj
 0002:00016410       ??_C@_0CA@CBGPJCA@crypto_pwhash_argon2i_SALTBYTES?$AA@ 000000018006a410     crypto_pwhash.obj
 0002:00016430       ??_C@_0DL@JOMNAAGF@Property?5crypto_pwhash_argon2i_S@ 000000018006a430     crypto_pwhash.obj
 0002:00016470       ??_C@_0BP@LLBLBBAJ@crypto_pwhash_argon2i_STRBYTES?$AA@ 000000018006a470     crypto_pwhash.obj
 0002:00016490       ??_C@_0DK@NOKEKFLO@Property?5crypto_pwhash_argon2i_S@ 000000018006a490     crypto_pwhash.obj
 0002:000164d0       ??_C@_09ICNDBAMC@$argon2i$?$AA@ 000000018006a4d0     crypto_pwhash.obj
 0002:000164e0       ??_C@_0CA@MPAHDOLH@crypto_pwhash_argon2i_STRPREFIX?$AA@ 000000018006a4e0     crypto_pwhash.obj
 0002:00016500       ??_C@_0DL@IEODEAK@Property?5crypto_pwhash_argon2i_S@ 000000018006a500     crypto_pwhash.obj
 0002:00016540       ??_C@_0CL@IGKBJBIJ@crypto_pwhash_argon2i_OPSLIMIT_I@ 000000018006a540     crypto_pwhash.obj
 0002:00016570       ??_C@_0EG@OLPGBNCL@Property?5crypto_pwhash_argon2i_O@ 000000018006a570     crypto_pwhash.obj
 0002:000165b8       ??_C@_0CL@COBGMGFC@crypto_pwhash_argon2i_MEMLIMIT_I@ 000000018006a5b8     crypto_pwhash.obj
 0002:000165f0       ??_C@_0EG@BPDGHGLO@Property?5crypto_pwhash_argon2i_M@ 000000018006a5f0     crypto_pwhash.obj
 0002:00016638       ??_C@_0CI@INFAFCLH@crypto_pwhash_argon2i_OPSLIMIT_M@ 000000018006a638     crypto_pwhash.obj
 0002:00016660       ??_C@_0ED@JJDBKOJM@Property?5crypto_pwhash_argon2i_O@ 000000018006a660     crypto_pwhash.obj
 0002:000166a8       ??_C@_0CI@KNNOIEPA@crypto_pwhash_argon2i_MEMLIMIT_M@ 000000018006a6a8     crypto_pwhash.obj
 0002:000166d0       ??_C@_0ED@GBIHHBDA@Property?5crypto_pwhash_argon2i_M@ 000000018006a6d0     crypto_pwhash.obj
 0002:00016718       ??_C@_0CJ@JMADDLAF@crypto_pwhash_argon2i_OPSLIMIT_S@ 000000018006a718     crypto_pwhash.obj
 0002:00016750       ??_C@_0EE@JLKMNELM@Property?5crypto_pwhash_argon2i_O@ 000000018006a750     crypto_pwhash.obj
 0002:00016798       ??_C@_0CJ@HEJLGBOA@crypto_pwhash_argon2i_MEMLIMIT_S@ 000000018006a798     crypto_pwhash.obj
 0002:000167d0       ??_C@_0EE@EEDEINKA@Property?5crypto_pwhash_argon2i_M@ 000000018006a7d0     crypto_pwhash.obj
 0002:00016818       ??_C@_0CC@ENGNNMND@argument?5message?5must?5be?5a?5buffe@ 000000018006a818     crypto_hash.obj
 0002:00016840       ??_C@_0M@POCAIDNF@crypto_hash?$AA@ 000000018006a840     crypto_hash.obj
 0002:00016850       ??_C@_0BC@KKHLPAPA@crypto_hash_BYTES?$AA@ 000000018006a850     crypto_hash.obj
 0002:00016868       ??_C@_0CN@HBNCKHML@Property?5crypto_hash_BYTES?5could@ 000000018006a868     crypto_hash.obj
 0002:00016898       ??_C@_06PAMKOKLI@sha512?$AA@ 000000018006a898     crypto_hash.obj
 0002:000168a0       ??_C@_0BG@NAMIJMCK@crypto_hash_PRIMITIVE?$AA@ 000000018006a8a0     crypto_hash.obj
 0002:000168b8       ??_C@_0DB@CACOPDJ@Property?5crypto_hash_PRIMITIVE?5c@ 000000018006a8b8     crypto_hash.obj
 0002:000168f0       ??_C@_0BD@CGEKHKDG@crypto_hash_sha256?$AA@ 000000018006a8f0     crypto_hash_sha256.obj
 0002:00016908       ??_C@_0BI@CKGGOFJP@crypto_hash_sha256_init?$AA@ 000000018006a908     crypto_hash_sha256.obj
 0002:00016920       ??_C@_0BK@GLDOADGH@crypto_hash_sha256_update?$AA@ 000000018006a920     crypto_hash_sha256.obj
 0002:00016940       ??_C@_0BJ@GNJOPLHM@crypto_hash_sha256_final?$AA@ 000000018006a940     crypto_hash_sha256.obj
 0002:00016960       ??_C@_0BJ@KIIONIBP@crypto_hash_sha256_BYTES?$AA@ 000000018006a960     crypto_hash_sha256.obj
 0002:00016980       ??_C@_0DE@FNNAPHPN@Property?5crypto_hash_sha256_BYTE@ 000000018006a980     crypto_hash_sha256.obj
 0002:000169b8       ??_C@_0BD@NIPICPFH@crypto_hash_sha512?$AA@ 000000018006a9b8     crypto_hash_sha512.obj
 0002:000169d0       ??_C@_0BI@DOACKCLP@crypto_hash_sha512_init?$AA@ 000000018006a9d0     crypto_hash_sha512.obj
 0002:000169e8       ??_C@_0BK@BGACOHJC@crypto_hash_sha512_update?$AA@ 000000018006a9e8     crypto_hash_sha512.obj
 0002:00016a08       ??_C@_0BJ@FGOELPPD@crypto_hash_sha512_final?$AA@ 000000018006aa08     crypto_hash_sha512.obj
 0002:00016a28       ??_C@_0BJ@JDPEJMJA@crypto_hash_sha512_BYTES?$AA@ 000000018006aa28     crypto_hash_sha512.obj
 0002:00016a48       ??_C@_0DE@BCAMPJDF@Property?5crypto_hash_sha512_BYTE@ 000000018006aa48     crypto_hash_sha512.obj
 0002:00016a80       ??_C@_0CE@MLCBHDG@argument?5key?5must?5be?516U?5bytes?5l@ 000000018006aa80     crypto_shorthash.obj
 0002:00016aa8       ??_C@_0BB@NGCEJMBE@crypto_shorthash?$AA@ 000000018006aaa8     crypto_shorthash.obj
 0002:00016ac0       ??_C@_0BH@CLEDLNLN@crypto_shorthash_BYTES?$AA@ 000000018006aac0     crypto_shorthash.obj
 0002:00016ad8       ??_C@_0DC@OENOKIGO@Property?5crypto_shorthash_BYTES?5@ 000000018006aad8     crypto_shorthash.obj
 0002:00016b10       ??_C@_0BK@GBEFKPBI@crypto_shorthash_KEYBYTES?$AA@ 000000018006ab10     crypto_shorthash.obj
 0002:00016b30       ??_C@_0DF@LODJLMNE@Property?5crypto_shorthash_KEYBYT@ 000000018006ab30     crypto_shorthash.obj
 0002:00016b68       ??_C@_09PKEPFGPK@siphash24?$AA@ 000000018006ab68     crypto_shorthash.obj
 0002:00016b78       ??_C@_0BL@EMNEANBE@crypto_shorthash_PRIMITIVE?$AA@ 000000018006ab78     crypto_shorthash.obj
 0002:00016b98       ??_C@_0DG@FPDLGJPE@Property?5crypto_shorthash_PRIMIT@ 000000018006ab98     crypto_shorthash.obj
 0002:00016bd0       ??_C@_0BL@LKLHCCPK@crypto_shorthash_siphash24?$AA@ 000000018006abd0     crypto_shorthash_siphash24.obj
 0002:00016bf0       ??_C@_0CB@EGMCANDE@crypto_shorthash_siphash24_BYTES@ 000000018006abf0     crypto_shorthash_siphash24.obj
 0002:00016c18       ??_C@_0DM@MDLDNCBA@Property?5crypto_shorthash_siphas@ 000000018006ac18     crypto_shorthash_siphash24.obj
 0002:00016c58       ??_C@_0CE@PBNLJCHE@crypto_shorthash_siphash24_KEYBY@ 000000018006ac58     crypto_shorthash_siphash24.obj
 0002:00016c80       ??_C@_0DP@GIFHFDA@Property?5crypto_shorthash_siphas@ 000000018006ac80     crypto_shorthash_siphash24.obj
 0002:00016cc0       ??_C@_0CL@DOBLOAPD@arguments?5must?5be?3?5hash?5size?0?5me@ 000000018006acc0     crypto_generichash.obj
 0002:00016cf0       ??_C@_0CD@EHLCPMLO@argument?5out_size?5must?5be?5a?5numb@ 000000018006acf0     crypto_generichash.obj
 0002:00016d18       ??_C@_0CP@CCEBBDCK@key_size?5size?5cannot?5be?5smaller?5@ 000000018006ad18     crypto_generichash.obj
 0002:00016d48       ??_C@_0CO@JHPKEBMC@key_size?5size?5cannot?5be?5bigger?5t@ 000000018006ad48     crypto_generichash.obj
 0002:00016d78       ??_C@_0CP@JBDCEKND@out_size?5size?5cannot?5be?5smaller?5@ 000000018006ad78     crypto_generichash.obj
 0002:00016da8       ??_C@_0CO@ICNJJGDK@out_size?5size?5cannot?5be?5bigger?5t@ 000000018006ada8     crypto_generichash.obj
 0002:00016dd8       ??_C@_0CL@HCJMJNID@arguments?5must?5be?3?5key?5buffer?0?5o@ 000000018006add8     crypto_generichash.obj
 0002:00016e08       ??_C@_0DA@OEHIIMBH@arguments?5must?5be?3?5state?5buffer?0@ 000000018006ae08     crypto_generichash.obj
 0002:00016e38       ??_C@_0CN@KGCECKBP@arguments?5must?5be?3?5state?5buffer?0@ 000000018006ae38     crypto_generichash.obj
 0002:00016e68       ??_C@_0BD@IIIFHMJL@crypto_generichash?$AA@ 000000018006ae68     crypto_generichash.obj
 0002:00016e80       ??_C@_0BI@CNMNKBHO@crypto_generichash_init?$AA@ 000000018006ae80     crypto_generichash.obj
 0002:00016e98       ??_C@_0BK@FNOKEDOI@crypto_generichash_update?$AA@ 000000018006ae98     crypto_generichash.obj
 0002:00016eb8       ??_C@_0BJ@LKJEICNG@crypto_generichash_final?$AA@ 000000018006aeb8     crypto_generichash.obj
 0002:00016ed8       ??_C@_07BFJDAEII@blake2b?$AA@ 000000018006aed8     crypto_generichash.obj
 0002:00016ee0       ??_C@_0BN@HEOBKLIL@crypto_generichash_PRIMITIVE?$AA@ 000000018006aee0     crypto_generichash.obj
 0002:00016f00       ??_C@_0DI@KAOEIADD@Property?5crypto_generichash_PRIM@ 000000018006af00     crypto_generichash.obj
 0002:00016f38       ??_C@_0BJ@HPIEKBLF@crypto_generichash_BYTES?$AA@ 000000018006af38     crypto_generichash.obj
 0002:00016f58       ??_C@_0DE@BGNGIHNC@Property?5crypto_generichash_BYTE@ 000000018006af58     crypto_generichash.obj
 0002:00016f90       ??_C@_0BN@KPMPLECD@crypto_generichash_BYTES_MIN?$AA@ 000000018006af90     crypto_generichash.obj
 0002:00016fb0       ??_C@_0DI@LMBMOFIH@Property?5crypto_generichash_BYTE@ 000000018006afb0     crypto_generichash.obj
 0002:00016fe8       ??_C@_0BN@LNEEFAEM@crypto_generichash_BYTES_MAX?$AA@ 000000018006afe8     crypto_generichash.obj
 0002:00017008       ??_C@_0DI@PNALNKAB@Property?5crypto_generichash_BYTE@ 000000018006b008     crypto_generichash.obj
 0002:00017040       ??_C@_0BM@IMCBPELK@crypto_generichash_KEYBYTES?$AA@ 000000018006b040     crypto_generichash.obj
 0002:00017060       ??_C@_0DH@GOLKALAN@Property?5crypto_generichash_KEYB@ 000000018006b060     crypto_generichash.obj
 0002:00017098       ??_C@_0CA@GKBPKDCE@crypto_generichash_KEYBYTES_MIN?$AA@ 000000018006b098     crypto_generichash.obj
 0002:000170b8       ??_C@_0DL@LNJCHDAJ@Property?5crypto_generichash_KEYB@ 000000018006b0b8     crypto_generichash.obj
 0002:000170f8       ??_C@_0CA@HIJEEHEL@crypto_generichash_KEYBYTES_MAX?$AA@ 000000018006b0f8     crypto_generichash.obj
 0002:00017118       ??_C@_0DL@PMIFEMIP@Property?5crypto_generichash_KEYB@ 000000018006b118     crypto_generichash.obj
 0002:00017160       ??_C@_0EC@GBMJNAE@arguments?5must?5five?5buffers?3?5out@ 000000018006b160     crypto_generichash_blake2b.obj
 0002:000171a8       ??_C@_0CF@GPAGPKKD@argument?5?$CCpersonal?$CC?5must?5be?5a?5bu@ 000000018006b1a8     crypto_generichash_blake2b.obj
 0002:000171d0       ??_C@_0CJ@HPOOFAAA@argument?5personal?5must?5be?516U?5by@ 000000018006b1d0     crypto_generichash_blake2b.obj
 0002:00017200       ??_C@_0BL@LEGMMGHJ@crypto_generichash_blake2b?$AA@ 000000018006b200     crypto_generichash_blake2b.obj
 0002:00017220       ??_C@_0CA@NINGAJOP@crypto_generichash_blake2b_init?$AA@ 000000018006b220     crypto_generichash_blake2b.obj
 0002:00017240       ??_C@_0CC@ONLNCGHC@crypto_generichash_blake2b_updat@ 000000018006b240     crypto_generichash_blake2b.obj
 0002:00017268       ??_C@_0CB@DNGJDKKM@crypto_generichash_blake2b_final@ 000000018006b268     crypto_generichash_blake2b.obj
 0002:00017290       ??_C@_0CJ@FBNIFCEM@crypto_generichash_blake2b_salt_@ 000000018006b290     crypto_generichash_blake2b.obj
 0002:000172c0       ??_C@_0CB@PIHJBJMP@crypto_generichash_blake2b_BYTES@ 000000018006b2c0     crypto_generichash_blake2b.obj
 0002:000172e8       ??_C@_0DM@KFFDKHLA@Property?5crypto_generichash_blak@ 000000018006b2e8     crypto_generichash_blake2b.obj
 0002:00017328       ??_C@_0CF@LCMONCAA@crypto_generichash_blake2b_BYTES@ 000000018006b328     crypto_generichash_blake2b.obj
 0002:00017350       ??_C@_0EA@BOCBCNH@Property?5crypto_generichash_blak@ 000000018006b350     crypto_generichash_blake2b.obj
 0002:00017390       ??_C@_0CF@KAEFDGGP@crypto_generichash_blake2b_BYTES@ 000000018006b390     crypto_generichash_blake2b.obj
 0002:000173c0       ??_C@_0EA@EAPFCNFB@Property?5crypto_generichash_blak@ 000000018006b3c0     crypto_generichash_blake2b.obj
 0002:00017400       ??_C@_0CE@DKFHLDKK@crypto_generichash_blake2b_KEYBY@ 000000018006b400     crypto_generichash_blake2b.obj
 0002:00017428       ??_C@_0DP@CNLPEHPN@Property?5crypto_generichash_blak@ 000000018006b428     crypto_generichash_blake2b.obj
 0002:00017468       ??_C@_0CI@BELEKHDH@crypto_generichash_blake2b_KEYBY@ 000000018006b468     crypto_generichash_blake2b.obj
 0002:00017490       ??_C@_0ED@NANGPFGF@Property?5crypto_generichash_blak@ 000000018006b490     crypto_generichash_blake2b.obj
 0002:000174d8       ??_C@_0CI@GDPEDFI@crypto_generichash_blake2b_KEYBY@ 000000018006b4d8     crypto_generichash_blake2b.obj
 0002:00017500       ??_C@_0ED@JBMBMKOD@Property?5crypto_generichash_blak@ 000000018006b500     crypto_generichash_blake2b.obj
 0002:00017548       ??_C@_0CF@JPOAMMKI@crypto_generichash_blake2b_SALTB@ 000000018006b548     crypto_generichash_blake2b.obj
 0002:00017570       ??_C@_0EA@PAJNECMF@Property?5crypto_generichash_blak@ 000000018006b570     crypto_generichash_blake2b.obj
 0002:000175b0       ??_C@_0CJ@JMNDDMIC@crypto_generichash_blake2b_PERSO@ 000000018006b5b0     crypto_generichash_blake2b.obj
 0002:000175e0       ??_C@_0EE@GANPGBIC@Property?5crypto_generichash_blak@ 000000018006b5e0     crypto_generichash_blake2b.obj
 0002:00017628       ??_C@_0BK@KHOOIAPL@crypto_onetimeauth_verify?$AA@ 000000018006b628     crypto_onetimeauth.obj
 0002:00017648       ??_C@_0BD@DKBAHOKL@crypto_onetimeauth?$AA@ 000000018006b648     crypto_onetimeauth.obj
 0002:00017660       ??_C@_0BK@BGNMGJMA@crypto_onetimeauth_update?$AA@ 000000018006b660     crypto_onetimeauth.obj
 0002:00017680       ??_C@_0BI@LMOGHFC@crypto_onetimeauth_init?$AA@ 000000018006b680     crypto_onetimeauth.obj
 0002:00017698       ??_C@_0BJ@ENHKMOJA@crypto_onetimeauth_BYTES?$AA@ 000000018006b698     crypto_onetimeauth.obj
 0002:000176b8       ??_C@_0BJ@IIGKONPD@crypto_onetimeauth_final?$AA@ 000000018006b6b8     crypto_onetimeauth.obj
 0002:000176d8       ??_C@_0BM@KMHNIPA@crypto_onetimeauth_KEYBYTES?$AA@ 000000018006b6d8     crypto_onetimeauth.obj
 0002:000176f8       ??_C@_0DE@NNDFICNI@Property?5crypto_onetimeauth_BYTE@ 000000018006b6f8     crypto_onetimeauth.obj
 0002:00017730       ??_C@_08HICAABFE@poly1305?$AA@ 000000018006b730     crypto_onetimeauth.obj
 0002:00017740       ??_C@_0DH@CHFJMJJH@Property?5crypto_onetimeauth_KEYB@ 000000018006b740     crypto_onetimeauth.obj
 0002:00017778       ??_C@_0DI@LAHHBJKL@Property?5crypto_onetimeauth_PRIM@ 000000018006b778     crypto_onetimeauth.obj
 0002:000177b0       ??_C@_0BN@OCGOOFCJ@crypto_onetimeauth_PRIMITIVE?$AA@ 000000018006b7b0     crypto_onetimeauth.obj
 0002:000177d0       ??_C@_0BO@CNFNFABG@argument?5key?5must?5be?5a?5buffer?$AA@ 000000018006b7d0     crypto_onetimeauth_poly1305.obj
 0002:000177f0       ??_C@_0CG@IAKEKBAA@argument?5token?5must?5be?516U?5bytes@ 000000018006b7f0     crypto_onetimeauth_poly1305.obj
 0002:00017818       ??_C@_0BM@DENNBAFG@crypto_onetimeauth_poly1305?$AA@ 000000018006b818     crypto_onetimeauth_poly1305.obj
 0002:00017838       ??_C@_0CA@EPMAHOBB@arguments?5must?5be?3?5state?5buffer?$AA@ 000000018006b838     crypto_onetimeauth_poly1305.obj
 0002:00017858       ??_C@_0CB@GHGHFLBD@crypto_onetimeauth_poly1305_init@ 000000018006b858     crypto_onetimeauth_poly1305.obj
 0002:00017880       ??_C@_0CD@GBODOOJB@crypto_onetimeauth_poly1305_veri@ 000000018006b880     crypto_onetimeauth_poly1305.obj
 0002:000178a8       ??_C@_0CC@IJNNDFMJ@crypto_onetimeauth_poly1305_fina@ 000000018006b8a8     crypto_onetimeauth_poly1305.obj
 0002:000178d0       ??_C@_0CD@NANBAHKK@crypto_onetimeauth_poly1305_upda@ 000000018006b8d0     crypto_onetimeauth_poly1305.obj
 0002:000178f8       ??_C@_0DN@NOAHCPNO@Property?5crypto_onetimeauth_poly@ 000000018006b8f8     crypto_onetimeauth_poly1305.obj
 0002:00017938       ??_C@_0CC@EMMNBGKK@crypto_onetimeauth_poly1305_BYTE@ 000000018006b938     crypto_onetimeauth_poly1305.obj
 0002:00017960       ??_C@_0EA@PAKKCGAC@Property?5crypto_onetimeauth_poly@ 000000018006b960     crypto_onetimeauth_poly1305.obj
 0002:000179a0       ??_C@_0CF@DPNPNBIP@crypto_onetimeauth_poly1305_KEYB@ 000000018006b9a0     crypto_onetimeauth_poly1305.obj
 0002:000179c8       ??_C@_08JDDNMFDB@node?4exe?$AA@ 000000018006b9c8     win_delay_load_hook.obj
 0002:000179d8       ??_C@_08HCOMDCCD@iojs?4exe?$AA@ 000000018006b9d8     win_delay_load_hook.obj
 0002:000179e8       __pfnDliNotifyHook2        000000018006b9e8     win_delay_load_hook.obj
 0002:000179f0       __real@4000000000000000    000000018006b9f0     crypto_pwhash.obj
 0002:000179f8       __real@4008000000000000    000000018006b9f8     crypto_pwhash.obj
 0002:00017a00       __real@4010000000000000    000000018006ba00     crypto_pwhash.obj
 0002:00017a08       __real@4018000000000000    000000018006ba08     crypto_pwhash.obj
 0002:00017a10       __real@4020000000000000    000000018006ba10     crypto_pwhash.obj
 0002:00017a18       __real@4030000000000000    000000018006ba18     crypto_pwhash.obj
 0002:00017a20       __real@4060000000000000    000000018006ba20     crypto_pwhash.obj
 0002:00017a28       __real@4120000000000000    000000018006ba28     crypto_pwhash.obj
 0002:00017a30       __real@4170000000000000    000000018006ba30     crypto_pwhash.obj
 0002:00017a38       __real@4180000000000000    000000018006ba38     crypto_pwhash.obj
 0002:00017a40       __real@4190000000000000    000000018006ba40     crypto_pwhash.obj
 0002:00017a48       __real@41a0000000000000    000000018006ba48     crypto_pwhash.obj
 0002:00017a50       __real@41b0000000000000    000000018006ba50     crypto_pwhash.obj
 0002:00017a58       __real@41c0000000000000    000000018006ba58     crypto_pwhash.obj
 0002:00017a60       __real@41d0000000000000    000000018006ba60     crypto_pwhash.obj
 0002:00017a68       __real@4202a05f20000000    000000018006ba68     crypto_aead.obj
 0002:00017a70       __xmm@7fffffffffffffff7fffffffffffffff 000000018006ba70     crypto_aead.obj
 0002:00017ad8       _tls_used                  000000018006bad8     LIBCMT:tlssup.obj
 0002:00017b00       ??_R4_Facet_base@std@@6B@  000000018006bb00     libcpmt:locale0.obj
 0002:00017b28       ??_R3_Facet_base@std@@8    000000018006bb28     libcpmt:locale0.obj
 0002:00017b40       ??_R2_Facet_base@std@@8    000000018006bb40     libcpmt:locale0.obj
 0002:00017b50       ??_R1A@?0A@EA@_Facet_base@std@@8 000000018006bb50     libcpmt:locale0.obj
 0002:00017b78       ??_R4_Locimp@locale@std@@6B@ 000000018006bb78     libcpmt:locale0.obj
 0002:00017ba0       ??_R3_Locimp@locale@std@@8 000000018006bba0     libcpmt:locale0.obj
 0002:00017bb8       ??_R2_Locimp@locale@std@@8 000000018006bbb8     libcpmt:locale0.obj
 0002:00017be0       ??_R1A@?0A@EA@_Locimp@locale@std@@8 000000018006bbe0     libcpmt:locale0.obj
 0002:00017c08       ??_R1A@?0A@EA@facet@locale@std@@8 000000018006bc08     libcpmt:locale0.obj
 0002:00017c30       ??_R3facet@locale@std@@8   000000018006bc30     libcpmt:locale0.obj
 0002:00017c48       ??_R2facet@locale@std@@8   000000018006bc48     libcpmt:locale0.obj
 0002:00017c68       ??_R17?0A@EA@_Crt_new_delete@std@@8 000000018006bc68     libcpmt:locale0.obj
 0002:00017c90       ??_R3_Crt_new_delete@std@@8 000000018006bc90     libcpmt:locale0.obj
 0002:00017ca8       ??_R2_Crt_new_delete@std@@8 000000018006bca8     libcpmt:locale0.obj
 0002:00017cb8       ??_R1A@?0A@EA@_Crt_new_delete@std@@8 000000018006bcb8     libcpmt:locale0.obj
 0002:00017ce0       ??_R4exception@std@@6B@    000000018006bce0     libcpmt:xthrow.obj
 0002:00017d08       ??_R3exception@std@@8      000000018006bd08     libcpmt:xthrow.obj
 0002:00017d20       ??_R2exception@std@@8      000000018006bd20     libcpmt:xthrow.obj
 0002:00017d30       ??_R1A@?0A@EA@exception@std@@8 000000018006bd30     libcpmt:xthrow.obj
 0002:00017d58       ??_R4bad_alloc@std@@6B@    000000018006bd58     libcpmt:xthrow.obj
 0002:00017d80       ??_R3bad_alloc@std@@8      000000018006bd80     libcpmt:xthrow.obj
 0002:00017d98       ??_R2bad_alloc@std@@8      000000018006bd98     libcpmt:xthrow.obj
 0002:00017db0       ??_R1A@?0A@EA@bad_alloc@std@@8 000000018006bdb0     libcpmt:xthrow.obj
 0002:00017dd8       ??_R4logic_error@std@@6B@  000000018006bdd8     libcpmt:xthrow.obj
 0002:00017e00       ??_R3logic_error@std@@8    000000018006be00     libcpmt:xthrow.obj
 0002:00017e18       ??_R2logic_error@std@@8    000000018006be18     libcpmt:xthrow.obj
 0002:00017e30       ??_R1A@?0A@EA@logic_error@std@@8 000000018006be30     libcpmt:xthrow.obj
 0002:00017e58       ??_R4length_error@std@@6B@ 000000018006be58     libcpmt:xthrow.obj
 0002:00017e80       ??_R3length_error@std@@8   000000018006be80     libcpmt:xthrow.obj
 0002:00017e98       ??_R2length_error@std@@8   000000018006be98     libcpmt:xthrow.obj
 0002:00017eb8       ??_R1A@?0A@EA@length_error@std@@8 000000018006beb8     libcpmt:xthrow.obj
 0002:00017ee0       ??_R4out_of_range@std@@6B@ 000000018006bee0     libcpmt:xthrow.obj
 0002:00017f08       ??_R3out_of_range@std@@8   000000018006bf08     libcpmt:xthrow.obj
 0002:00017f20       ??_R2out_of_range@std@@8   000000018006bf20     libcpmt:xthrow.obj
 0002:00017f40       ??_R1A@?0A@EA@out_of_range@std@@8 000000018006bf40     libcpmt:xthrow.obj
 0002:00017f68       ??_R4runtime_error@std@@6B@ 000000018006bf68     libcpmt:xthrow.obj
 0002:00017f90       ??_R3runtime_error@std@@8  000000018006bf90     libcpmt:xthrow.obj
 0002:00017fa8       ??_R2runtime_error@std@@8  000000018006bfa8     libcpmt:xthrow.obj
 0002:00017fc0       ??_R1A@?0A@EA@runtime_error@std@@8 000000018006bfc0     libcpmt:xthrow.obj
 0002:00017fe8       ??_R3ctype_base@std@@8     000000018006bfe8     libcpmt:locale.obj
 0002:00018000       ??_R2ctype_base@std@@8     000000018006c000     libcpmt:locale.obj
 0002:00018028       ??_R1A@?0A@EA@ctype_base@std@@8 000000018006c028     libcpmt:locale.obj
 0002:00018050       ??_R4?$ctype@D@std@@6B@    000000018006c050     libcpmt:locale.obj
 0002:00018078       ??_R3?$ctype@D@std@@8      000000018006c078     libcpmt:locale.obj
 0002:00018090       ??_R2?$ctype@D@std@@8      000000018006c090     libcpmt:locale.obj
 0002:000180c0       ??_R1A@?0A@EA@?$ctype@D@std@@8 000000018006c0c0     libcpmt:locale.obj
 0002:000180e8       ??_R4?$num_put@DV?$ostreambuf_iterator@DU?$char_traits@D@std@@@std@@@std@@6B@ 000000018006c0e8     libcpmt:locale.obj
 0002:00018110       ??_R3?$num_put@DV?$ostreambuf_iterator@DU?$char_traits@D@std@@@std@@@std@@8 000000018006c110     libcpmt:locale.obj
 0002:00018128       ??_R2?$num_put@DV?$ostreambuf_iterator@DU?$char_traits@D@std@@@std@@@std@@8 000000018006c128     libcpmt:locale.obj
 0002:00018150       ??_R1A@?0A@EA@?$num_put@DV?$ostreambuf_iterator@DU?$char_traits@D@std@@@std@@@std@@8 000000018006c150     libcpmt:locale.obj
 0002:00018178       ??_R4?$numpunct@D@std@@6B@ 000000018006c178     libcpmt:locale.obj
 0002:000181a0       ??_R3?$numpunct@D@std@@8   000000018006c1a0     libcpmt:locale.obj
 0002:000181b8       ??_R2?$numpunct@D@std@@8   000000018006c1b8     libcpmt:locale.obj
 0002:000181e0       ??_R1A@?0A@EA@?$numpunct@D@std@@8 000000018006c1e0     libcpmt:locale.obj
 0002:00018208       ??_R4type_info@@6B@        000000018006c208     LIBCMT:std_type_info_static.obj
 0002:00018230       ??_R3type_info@@8          000000018006c230     LIBCMT:std_type_info_static.obj
 0002:00018248       ??_R2type_info@@8          000000018006c248     LIBCMT:std_type_info_static.obj
 0002:00018258       ??_R1A@?0A@EA@type_info@@8 000000018006c258     LIBCMT:std_type_info_static.obj
 0002:00018280       ??_R4bad_array_new_length@std@@6B@ 000000018006c280     LIBCMT:throw_bad_alloc.obj
 0002:000182a8       ??_R3bad_array_new_length@std@@8 000000018006c2a8     LIBCMT:throw_bad_alloc.obj
 0002:000182c0       ??_R2bad_array_new_length@std@@8 000000018006c2c0     LIBCMT:throw_bad_alloc.obj
 0002:000182e0       ??_R1A@?0A@EA@bad_array_new_length@std@@8 000000018006c2e0     LIBCMT:throw_bad_alloc.obj
 0002:00018308       ??_R4bad_exception@std@@6B@ 000000018006c308     libvcruntime:frame.obj
 0002:00018330       ??_R3bad_exception@std@@8  000000018006c330     libvcruntime:frame.obj
 0002:00018348       ??_R2bad_exception@std@@8  000000018006c348     libvcruntime:frame.obj
 0002:00018360       ??_R1A@?0A@EA@bad_exception@std@@8 000000018006c360     libvcruntime:frame.obj
 0002:00018820       __rtc_iaa                  000000018006c820     LIBCMT:_initsect_.obj
 0002:00018828       __rtc_izz                  000000018006c828     LIBCMT:_initsect_.obj
 0002:00018830       __rtc_taa                  000000018006c830     LIBCMT:_initsect_.obj
 0002:00018838       __rtc_tzz                  000000018006c838     LIBCMT:_initsect_.obj
 0002:0001bab8       _TI2?AVbad_alloc@std@@     000000018006fab8     libcpmt:xthrow.obj
 0002:0001bad8       _CTA2?AVbad_alloc@std@@    000000018006fad8     libcpmt:xthrow.obj
 0002:0001baf0       _CT??_R0?AVbad_alloc@std@@@8??0bad_alloc@std@@QEAA@AEBV01@@Z24 000000018006faf0     libcpmt:xthrow.obj
 0002:0001bb18       _CT??_R0?AVexception@std@@@8??0exception@std@@QEAA@AEBV01@@Z24 000000018006fb18     libcpmt:xthrow.obj
 0002:0001bb40       _CT??_R0?AVlogic_error@std@@@8??0logic_error@std@@QEAA@AEBV01@@Z24 000000018006fb40     libcpmt:xthrow.obj
 0002:0001bb68       _TI3?AVlength_error@std@@  000000018006fb68     libcpmt:xthrow.obj
 0002:0001bb88       _CTA3?AVlength_error@std@@ 000000018006fb88     libcpmt:xthrow.obj
 0002:0001bba8       _CT??_R0?AVlength_error@std@@@8??0length_error@std@@QEAA@AEBV01@@Z24 000000018006fba8     libcpmt:xthrow.obj
 0002:0001bbd0       _TI3?AVout_of_range@std@@  000000018006fbd0     libcpmt:xthrow.obj
 0002:0001bbf0       _CTA3?AVout_of_range@std@@ 000000018006fbf0     libcpmt:xthrow.obj
 0002:0001bc10       _CT??_R0?AVout_of_range@std@@@8??0out_of_range@std@@QEAA@AEBV01@@Z24 000000018006fc10     libcpmt:xthrow.obj
 0002:0001bc38       _TI3?AVbad_array_new_length@std@@ 000000018006fc38     LIBCMT:throw_bad_alloc.obj
 0002:0001bc58       _CTA3?AVbad_array_new_length@std@@ 000000018006fc58     LIBCMT:throw_bad_alloc.obj
 0002:0001bc78       _CT??_R0?AVbad_array_new_length@std@@@8??0bad_array_new_length@std@@QEAA@AEBV01@@Z24 000000018006fc78     LIBCMT:throw_bad_alloc.obj
 0002:0001bca0       _TI2?AVbad_exception@std@@ 000000018006fca0     libvcruntime:frame.obj
 0002:0001bcc0       _CTA2?AVbad_exception@std@@ 000000018006fcc0     libvcruntime:frame.obj
 0002:0001bcd8       _CT??_R0?AVbad_exception@std@@@8??0bad_exception@std@@QEAA@AEBV01@@Z24 000000018006fcd8     libvcruntime:frame.obj
 0002:0001bcfc       __DELAY_IMPORT_DESCRIPTOR_node_exe 000000018006fcfc     node:node.exe
 0002:0001bd1c       __NULL_DELAY_IMPORT_DESCRIPTOR 000000018006fd1c     node:node.exe
 0002:0001be90       \177node_NULL_THUNK_DATA_DLN 000000018006fe90     node:node.exe
 0002:0001ca60       \177node_NULL_THUNK_DATA_DLB 0000000180070a60     node:node.exe
 0002:0001cc00       __IMPORT_DESCRIPTOR_KERNEL32 0000000180070c00     kernel32:KERNEL32.dll
 0002:0001cc14       __IMPORT_DESCRIPTOR_libsodium 0000000180070c14     libsodium:libsodium.dll
 0002:0001cc28       __NULL_IMPORT_DESCRIPTOR   0000000180070c28     kernel32:KERNEL32.dll
 0003:00000004       ?_Sync@ios_base@std@@0_NA  0000000180073004     libcpmt:ios.obj
 0003:00000020       ?_PJP_CPP_Copyright@@3PADA 0000000180073020     libcpmt:iosptrs.obj
 0003:00000080       _Init_global_epoch         0000000180073080     LIBCMT:thread_safe_statics.obj
 0003:00000084       __scrt_native_dllmain_reason 0000000180073084     LIBCMT:utility.obj
 0003:00000088       __security_cookie          0000000180073088     LIBCMT:gs_cookie.obj
 0003:00000090       __security_cookie_complement 0000000180073090     LIBCMT:gs_cookie.obj
 0003:00000098       _fltused                   0000000180073098     LIBCMT:fltused.obj
 0003:000000a0       __isa_available            00000001800730a0     LIBCMT:_cpu_disp_.obj
 0003:000000a4       __isa_enabled              00000001800730a4     LIBCMT:_cpu_disp_.obj
 0003:000000a8       __memcpy_nt_iters          00000001800730a8     LIBCMT:_cpu_disp_.obj
 0003:000000c0       __abort_behavior           00000001800730c0     libucrt:abort.obj
 0003:000000d0       __acrt_lconv_c             00000001800730d0     libucrt:localeconv.obj
 0003:00000168       __acrt_lconv               0000000180073168     libucrt:localeconv.obj
 0003:00000170       __acrt_lconv_static_decimal 0000000180073170     libucrt:localeconv.obj
 0003:00000174       __acrt_lconv_static_W_decimal 0000000180073174     libucrt:localeconv.obj
 0003:00000178       _pctype                    0000000180073178     libucrt:ctype.obj
 0003:00000180       _pwctype                   0000000180073180     libucrt:ctype.obj
 0003:000001a0       _iob                       00000001800731a0     libucrt:_file.obj
 0003:000002b0       __acrt_initial_locale_data 00000001800732b0     libucrt:nlsdata.obj
 0003:00000408       __acrt_initial_locale_pointers 0000000180073408     libucrt:nlsdata.obj
 0003:00000418       __acrt_wide_c_locale_string 0000000180073418     libucrt:nlsdata.obj
 0003:0000041c       __mb_cur_max               000000018007341c     libucrt:nlsdata.obj
 0003:00000420       __badioinfo                0000000180073420     libucrt:ioinit.obj
 0003:00000464       __globallocalestatus       0000000180073464     libucrt:glstatus.obj
 0003:00000500       __acrt_initial_multibyte_data 0000000180073500     libucrt:mbctype.obj
 0003:00000728       __acrt_current_multibyte_data 0000000180073728     libucrt:mbctype.obj
 0003:00000830       _mbctype                   0000000180073830     libucrt:mbctype.obj
 0003:00000940       _mbcasemap                 0000000180073940     libucrt:mbctype.obj
 0003:00000a50       __dcrt_lowio_console_output_handle 0000000180073a50     libucrt:initcon.obj
 0003:00000aa0       ??_R0?AV_Facet_base@std@@@8 0000000180073aa0     libcpmt:locale0.obj
 0003:00000ac8       ??_R0?AV_Locimp@locale@std@@@8 0000000180073ac8     libcpmt:locale0.obj
 0003:00000af8       ??_R0?AVfacet@locale@std@@@8 0000000180073af8     libcpmt:locale0.obj
 0003:00000b20       ??_R0?AU_Crt_new_delete@std@@@8 0000000180073b20     libcpmt:locale0.obj
 0003:00000b50       ??_R0?AVbad_alloc@std@@@8  0000000180073b50     libcpmt:xthrow.obj
 0003:00000b78       ??_R0?AVexception@std@@@8  0000000180073b78     libcpmt:xthrow.obj
 0003:00000ba0       ??_R0?AVlogic_error@std@@@8 0000000180073ba0     libcpmt:xthrow.obj
 0003:00000bc8       ??_R0?AVlength_error@std@@@8 0000000180073bc8     libcpmt:xthrow.obj
 0003:00000bf0       ??_R0?AVout_of_range@std@@@8 0000000180073bf0     libcpmt:xthrow.obj
 0003:00000c18       ??_R0?AVruntime_error@std@@@8 0000000180073c18     libcpmt:xthrow.obj
 0003:00000c40       ??_R0?AUctype_base@std@@@8 0000000180073c40     libcpmt:locale.obj
 0003:00000c68       ??_R0?AV?$ctype@D@std@@@8  0000000180073c68     libcpmt:locale.obj
 0003:00000c90       ??_R0?AV?$num_put@DV?$ostreambuf_iterator@DU?$char_traits@D@std@@@std@@@std@@@8 0000000180073c90     libcpmt:locale.obj
 0003:00000cf0       ??_R0?AV?$numpunct@D@std@@@8 0000000180073cf0     libcpmt:locale.obj
 0003:00000d18       ??_R0?AVtype_info@@@8      0000000180073d18     LIBCMT:std_type_info_static.obj
 0003:00000d38       ??_R0?AVbad_array_new_length@std@@@8 0000000180073d38     LIBCMT:throw_bad_alloc.obj
 0003:00000d68       ??_R0?AVbad_exception@std@@@8 0000000180073d68     libvcruntime:frame.obj
 0003:00000d90       __imp_?Value@External@v8@@QEBAPEAXXZ 0000000180073d90     node:node.exe
 0003:00000d98       __imp_?New@External@v8@@SA?AV?$Local@VExternal@v8@@@2@PEAVIsolate@2@PEAX@Z 0000000180073d98     node:node.exe
 0003:00000da0       __imp_?NewFromUnsigned@Integer@v8@@SA?AV?$Local@VInteger@v8@@@2@PEAVIsolate@2@I@Z 0000000180073da0     node:node.exe
 0003:00000da8       __imp_?ThrowException@Isolate@v8@@QEAA?AV?$Local@VValue@v8@@@2@V32@@Z 0000000180073da8     node:node.exe
 0003:00000db0       __imp_?GetCurrentContext@Isolate@v8@@QEAA?AV?$Local@VContext@v8@@@2@XZ 0000000180073db0     node:node.exe
 0003:00000db8       __imp_?GetCurrent@Isolate@v8@@SAPEAV12@XZ 0000000180073db8     node:node.exe
 0003:00000dc0       __imp_?CreateHandle@HandleScope@v8@@KAPEAPEAVObject@internal@2@PEAVIsolate@42@PEAV342@@Z 0000000180073dc0     node:node.exe
 0003:00000dc8       __imp_?CreateHandle@HandleScope@v8@@CAPEAPEAVObject@internal@2@PEAVHeapObject@42@PEAV342@@Z 0000000180073dc8     node:node.exe
 0003:00000dd0       __imp_??1HandleScope@v8@@QEAA@XZ 0000000180073dd0     node:node.exe
 0003:00000dd8       __imp_??0HandleScope@v8@@QEAA@PEAVIsolate@1@@Z 0000000180073dd8     node:node.exe
 0003:00000de0       __imp_?Error@Exception@v8@@SA?AV?$Local@VValue@v8@@@2@V?$Local@VString@v8@@@2@@Z 0000000180073de0     node:node.exe
 0003:00000de8       __imp_?SetClassName@FunctionTemplate@v8@@QEAAXV?$Local@VString@v8@@@2@@Z 0000000180073de8     node:node.exe
 0003:00000df0       __imp_?GetFunction@FunctionTemplate@v8@@QEAA?AV?$MaybeLocal@VFunction@v8@@@2@V?$Local@VContext@v8@@@2@@Z 0000000180073df0     node:node.exe
 0003:00000df8       __imp_?New@FunctionTemplate@v8@@SA?AV?$Local@VFunctionTemplate@v8@@@2@PEAVIsolate@2@P6AXAEBV?$FunctionCallbackInfo@VValue@v8@@@2@@ZV?$Local@VValue@v8@@@2@V?$Local@VSignature@v8@@@2@HW4ConstructorBehavior@2@@Z 0000000180073df8     node:node.exe
 0003:00000e00       __imp_?ToLocalEmpty@V8@v8@@CAXXZ 0000000180073e00     node:node.exe
 0003:00000e08       __imp_?DisposeGlobal@V8@v8@@CAXPEAPEAVObject@internal@2@@Z 0000000180073e08     node:node.exe
 0003:00000e10       __imp_?GlobalizeReference@V8@v8@@CAPEAPEAVObject@internal@2@PEAVIsolate@42@PEAPEAV342@@Z 0000000180073e10     node:node.exe
 0003:00000e18       __imp_?ToInteger@Value@v8@@QEBA?AV?$MaybeLocal@VInteger@v8@@@2@V?$Local@VContext@v8@@@2@@Z 0000000180073e18     node:node.exe
 0003:00000e20       __imp_?Escape@EscapableHandleScope@v8@@AEAAPEAPEAVObject@internal@2@PEAPEAV342@@Z 0000000180073e20     node:node.exe
 0003:00000e28       __imp_??0EscapableHandleScope@v8@@QEAA@PEAVIsolate@1@@Z 0000000180073e28     node:node.exe
 0003:00000e30       __imp_?NewFromUtf8@String@v8@@SA?AV?$MaybeLocal@VString@v8@@@2@PEAVIsolate@2@PEBDW4NewStringType@2@H@Z 0000000180073e30     node:node.exe
 0003:00000e38       __imp_?SlowGetInternalField@Object@v8@@AEAA?AV?$Local@VValue@v8@@@2@H@Z 0000000180073e38     node:node.exe
 0003:00000e40       __imp_?New@Object@v8@@SA?AV?$Local@VObject@v8@@@2@PEAVIsolate@2@@Z 0000000180073e40     node:node.exe
 0003:00000e48       __imp_?SetInternalField@Object@v8@@QEAAXHV?$Local@VValue@v8@@@2@@Z 0000000180073e48     node:node.exe
 0003:00000e50       __imp_?DefineOwnProperty@Object@v8@@QEAA?AV?$Maybe@_N@2@V?$Local@VContext@v8@@@2@V?$Local@VName@v8@@@2@V?$Local@VValue@v8@@@2@W4PropertyAttribute@2@@Z 0000000180073e50     node:node.exe
 0003:00000e58       __imp_?Set@Object@v8@@QEAA_NV?$Local@VValue@v8@@@2@0@Z 0000000180073e58     node:node.exe
 0003:00000e60       __imp_?SetInternalFieldCount@ObjectTemplate@v8@@QEAAXH@Z 0000000180073e60     node:node.exe
 0003:00000e68       __imp_?NewInstance@ObjectTemplate@v8@@QEAA?AV?$MaybeLocal@VObject@v8@@@2@V?$Local@VContext@v8@@@2@@Z 0000000180073e68     node:node.exe
 0003:00000e70       __imp_?New@ObjectTemplate@v8@@SA?AV?$Local@VObjectTemplate@v8@@@2@PEAVIsolate@2@V?$Local@VFunctionTemplate@v8@@@2@@Z 0000000180073e70     node:node.exe
 0003:00000e78       __imp_?HasInstance@Buffer@node@@YA_NV?$Local@VValue@v8@@@v8@@@Z 0000000180073e78     node:node.exe
 0003:00000e80       __imp_?New@Buffer@node@@YA?AV?$MaybeLocal@VObject@v8@@@v8@@PEAVIsolate@4@_K@Z 0000000180073e80     node:node.exe
 0003:00000e88       __imp_?Data@Buffer@node@@YAPEADV?$Local@VObject@v8@@@v8@@@Z 0000000180073e88     node:node.exe
 0003:00000e90       __imp_?Length@Buffer@node@@YA_KV?$Local@VObject@v8@@@v8@@@Z 0000000180073e90     node:node.exe
 0003:00000e98       __imp_?ToObject@Value@v8@@QEBA?AV?$Local@VObject@v8@@@2@XZ 0000000180073e98     node:node.exe
 0003:00000ea0       __imp_?NewFromOneByte@String@v8@@SA?AV?$MaybeLocal@VString@v8@@@2@PEAVIsolate@2@PEBEW4NewStringType@2@H@Z 0000000180073ea0     node:node.exe
 0003:00000ea8       __imp_?New@Integer@v8@@SA?AV?$Local@VInteger@v8@@@2@PEAVIsolate@2@H@Z 0000000180073ea8     node:node.exe
 0003:00000eb0       __imp_node_module_register 0000000180073eb0     node:node.exe
 0003:00000eb8       __imp_?Uint32Value@Value@v8@@QEBAIXZ 0000000180073eb8     node:node.exe
 0003:00000ec0       __imp_?IsUint32@Value@v8@@QEBA_NXZ 0000000180073ec0     node:node.exe
 0003:00000ec8       __imp_?ToInt32@Value@v8@@QEBA?AV?$MaybeLocal@VInt32@v8@@@2@V?$Local@VContext@v8@@@2@@Z 0000000180073ec8     node:node.exe
 0003:00000ed0       __imp_?ToUint32@Value@v8@@QEBA?AV?$MaybeLocal@VUint32@v8@@@2@V?$Local@VContext@v8@@@2@@Z 0000000180073ed0     node:node.exe
 0003:00000ed8       __imp_?New@Number@v8@@SA?AV?$Local@VNumber@v8@@@2@PEAVIsolate@2@N@Z 0000000180073ed8     node:node.exe
 0003:00000ee0       \177node_NULL_THUNK_DATA_DLA 0000000180073ee0     node:node.exe
 0003:00000ef0       __hmod__node_exe           0000000180073ef0     node:node.exe
 0003:00001058       ?_Id_cnt@id@locale@std@@0HA 0000000180074058     libcpmt:locale0.obj
 0003:00001060       ?_Clocptr@_Locimp@locale@std@@0PEAV123@EA 0000000180074060     libcpmt:locale0.obj
 0003:00001070       ?id@?$ctype@_W@std@@2V0locale@2@A 0000000180074070     libcpmt:locale0.obj
 0003:00001078       ?id@?$ctype@D@std@@2V0locale@2@A 0000000180074078     libcpmt:locale0.obj
 0003:00001080       ?id@?$codecvt@GDU_Mbstatet@@@std@@2V0locale@2@A 0000000180074080     libcpmt:locale0.obj
 0003:00001088       ?id@?$ctype@G@std@@2V0locale@2@A 0000000180074088     libcpmt:locale0.obj
 0003:000010a0       ?id@?$codecvt@_WDU_Mbstatet@@@std@@2V0locale@2@A 00000001800740a0     libcpmt:locale0.obj
 0003:0000110c       ?_Index@ios_base@std@@0HA  000000018007410c     libcpmt:ios.obj
 0003:00001110       ?_Raise_handler@std@@3P6AXAEBVexception@stdext@@@ZEA 0000000180074110     libcpmt:raisehan.obj
 0003:00001120       ?_Ptr_cin@std@@3PEAV?$basic_istream@DU?$char_traits@D@std@@@1@EA 0000000180074120     libcpmt:iosptrs.obj
 0003:00001128       ?_Ptr_cout@std@@3PEAV?$basic_ostream@DU?$char_traits@D@std@@@1@EA 0000000180074128     libcpmt:iosptrs.obj
 0003:00001130       ?_Ptr_cerr@std@@3PEAV?$basic_ostream@DU?$char_traits@D@std@@@1@EA 0000000180074130     libcpmt:iosptrs.obj
 0003:00001138       ?_Ptr_clog@std@@3PEAV?$basic_ostream@DU?$char_traits@D@std@@@1@EA 0000000180074138     libcpmt:iosptrs.obj
 0003:00001140       ?_Ptr_wcin@std@@3PEAV?$basic_istream@_WU?$char_traits@_W@std@@@1@EA 0000000180074140     libcpmt:iosptrs.obj
 0003:00001148       ?_Ptr_wcout@std@@3PEAV?$basic_ostream@_WU?$char_traits@_W@std@@@1@EA 0000000180074148     libcpmt:iosptrs.obj
 0003:00001150       ?_Ptr_wcerr@std@@3PEAV?$basic_ostream@_WU?$char_traits@_W@std@@@1@EA 0000000180074150     libcpmt:iosptrs.obj
 0003:00001158       ?_Ptr_wclog@std@@3PEAV?$basic_ostream@_WU?$char_traits@_W@std@@@1@EA 0000000180074158     libcpmt:iosptrs.obj
 0003:000011b8       ?id@?$num_get@DV?$istreambuf_iterator@DU?$char_traits@D@std@@@std@@@std@@2V0locale@2@A 00000001800741b8     libcpmt:locale.obj
 0003:000011c0       ?id@?$codecvt@DDU_Mbstatet@@@std@@2V0locale@2@A 00000001800741c0     libcpmt:locale.obj
 0003:000011d0       __encodedKERNEL32Functions 00000001800741d0     libcpmt:winapisupp.obj
 0003:00001310       ?id@?$time_put@_WV?$ostreambuf_iterator@_WU?$char_traits@_W@std@@@std@@@std@@2V0locale@2@A 0000000180074310     libcpmt:wlocale.obj
 0003:00001318       ?id@?$num_get@_WV?$istreambuf_iterator@_WU?$char_traits@_W@std@@@std@@@std@@2V0locale@2@A 0000000180074318     libcpmt:wlocale.obj
 0003:00001320       ?id@?$num_put@_WV?$ostreambuf_iterator@_WU?$char_traits@_W@std@@@std@@@std@@2V0locale@2@A 0000000180074320     libcpmt:wlocale.obj
 0003:00001328       ?id@?$numpunct@_W@std@@2V0locale@2@A 0000000180074328     libcpmt:wlocale.obj
 0003:00001330       ?id@?$collate@_W@std@@2V0locale@2@A 0000000180074330     libcpmt:wlocale.obj
 0003:00001338       ?id@?$messages@_W@std@@2V0locale@2@A 0000000180074338     libcpmt:wlocale.obj
 0003:00001340       ?id@?$money_get@_WV?$istreambuf_iterator@_WU?$char_traits@_W@std@@@std@@@std@@2V0locale@2@A 0000000180074340     libcpmt:wlocale.obj
 0003:00001348       ?id@?$money_put@_WV?$ostreambuf_iterator@_WU?$char_traits@_W@std@@@std@@@std@@2V0locale@2@A 0000000180074348     libcpmt:wlocale.obj
 0003:00001350       ?id@?$moneypunct@_W$0A@@std@@2V0locale@2@A 0000000180074350     libcpmt:wlocale.obj
 0003:00001358       ?id@?$moneypunct@_W$00@std@@2V0locale@2@A 0000000180074358     libcpmt:wlocale.obj
 0003:00001360       ?id@?$time_get@_WV?$istreambuf_iterator@_WU?$char_traits@_W@std@@@std@@@std@@2V0locale@2@A 0000000180074360     libcpmt:wlocale.obj
 0003:00001368       ?id@?$num_get@GV?$istreambuf_iterator@GU?$char_traits@G@std@@@std@@@std@@2V0locale@2@A 0000000180074368     libcpmt:wlocale.obj
 0003:00001370       ?id@?$num_put@GV?$ostreambuf_iterator@GU?$char_traits@G@std@@@std@@@std@@2V0locale@2@A 0000000180074370     libcpmt:wlocale.obj
 0003:00001378       ?id@?$numpunct@G@std@@2V0locale@2@A 0000000180074378     libcpmt:wlocale.obj
 0003:00001380       ?id@?$collate@G@std@@2V0locale@2@A 0000000180074380     libcpmt:wlocale.obj
 0003:00001388       ?id@?$messages@G@std@@2V0locale@2@A 0000000180074388     libcpmt:wlocale.obj
 0003:00001390       ?id@?$money_get@GV?$istreambuf_iterator@GU?$char_traits@G@std@@@std@@@std@@2V0locale@2@A 0000000180074390     libcpmt:wlocale.obj
 0003:00001398       ?id@?$money_put@GV?$ostreambuf_iterator@GU?$char_traits@G@std@@@std@@@std@@2V0locale@2@A 0000000180074398     libcpmt:wlocale.obj
 0003:000013a0       ?id@?$moneypunct@G$0A@@std@@2V0locale@2@A 00000001800743a0     libcpmt:wlocale.obj
 0003:000013a8       ?id@?$moneypunct@G$00@std@@2V0locale@2@A 00000001800743a8     libcpmt:wlocale.obj
 0003:000013b0       ?id@?$time_get@GV?$istreambuf_iterator@GU?$char_traits@G@std@@@std@@@std@@2V0locale@2@A 00000001800743b0     libcpmt:wlocale.obj
 0003:000013b8       ?id@?$time_put@GV?$ostreambuf_iterator@GU?$char_traits@G@std@@@std@@@std@@2V0locale@2@A 00000001800743b8     libcpmt:wlocale.obj
 0003:000013c0       ?id@?$collate@D@std@@2V0locale@2@A 00000001800743c0     libcpmt:xlocale.obj
 0003:000013c8       ?id@?$messages@D@std@@2V0locale@2@A 00000001800743c8     libcpmt:xlocale.obj
 0003:000013d0       ?id@?$money_get@DV?$istreambuf_iterator@DU?$char_traits@D@std@@@std@@@std@@2V0locale@2@A 00000001800743d0     libcpmt:xlocale.obj
 0003:000013d8       ?id@?$money_put@DV?$ostreambuf_iterator@DU?$char_traits@D@std@@@std@@@std@@2V0locale@2@A 00000001800743d8     libcpmt:xlocale.obj
 0003:000013e0       ?id@?$moneypunct@D$0A@@std@@2V0locale@2@A 00000001800743e0     libcpmt:xlocale.obj
 0003:000013e8       ?id@?$moneypunct@D$00@std@@2V0locale@2@A 00000001800743e8     libcpmt:xlocale.obj
 0003:000013f0       ?id@?$time_get@DV?$istreambuf_iterator@DU?$char_traits@D@std@@@std@@@std@@2V0locale@2@A 00000001800743f0     libcpmt:xlocale.obj
 0003:000013f8       ?id@?$time_put@DV?$ostreambuf_iterator@DU?$char_traits@D@std@@@std@@@std@@2V0locale@2@A 00000001800743f8     libcpmt:xlocale.obj
 0003:00001448       __scrt_current_native_startup_state 0000000180074448     LIBCMT:utility.obj
 0003:00001450       __scrt_native_startup_lock 0000000180074450     LIBCMT:utility.obj
 0003:00001a00       __scrt_debugger_hook_flag  0000000180074a00     LIBCMT:utility_desktop.obj
 0003:00001a04       _tls_index                 0000000180074a04     LIBCMT:tlssup.obj
 0003:00001a08       __favor                    0000000180074a08     LIBCMT:_cpu_disp_.obj
 0003:00001a10       ?__type_info_root_node@@3U__type_info_node@@A 0000000180074a10     LIBCMT:tncleanup.obj
 0003:00001a20       ?_OptionsStorage@?1??__local_stdio_scanf_options@@9@4_KA 0000000180074a20     LIBCMT:default_local_stdio_options.obj
 0003:00001a28       ?g_OutOfMemoryExceptionCallback@@3P6APEAXXZEA 0000000180074a28     libvcruntime:frame.obj
 0003:00001a98       __pPurecall                0000000180074a98     libvcruntime:purevirt_data.obj
 0003:00001b48       ?pArgList@UnDecorator@@0PEAVReplicator@@EA 0000000180074b48     libvcruntime:undname.obj
 0003:00001b50       ?pZNameList@UnDecorator@@0PEAVReplicator@@EA 0000000180074b50     libvcruntime:undname.obj
 0003:00001b58       ?pTemplateArgList@UnDecorator@@0PEAVReplicator@@EA 0000000180074b58     libvcruntime:undname.obj
 0003:00001b60       ?gName@UnDecorator@@0PEBDEB 0000000180074b60     libvcruntime:undname.obj
 0003:00001b68       ?name@UnDecorator@@0PEBDEB 0000000180074b68     libvcruntime:undname.obj
 0003:00001b70       ?outputString@UnDecorator@@0PEADEA 0000000180074b70     libvcruntime:undname.obj
 0003:00001b78       ?maxStringLength@UnDecorator@@0HA 0000000180074b78     libvcruntime:undname.obj
 0003:00001b7c       ?disableFlags@UnDecorator@@0KA 0000000180074b7c     libvcruntime:undname.obj
 0003:00001b80       ?fExplicitTemplateParams@UnDecorator@@0_NA 0000000180074b80     libvcruntime:undname.obj
 0003:00001b81       ?fGetTemplateArgumentList@UnDecorator@@0_NA 0000000180074b81     libvcruntime:undname.obj
 0003:00001b88       ?m_pGetParameter@UnDecorator@@0P6APEADJ@ZEA 0000000180074b88     libvcruntime:undname.obj
 0003:00001bc0       __acrt_lconv_static_null   0000000180074bc0     libucrt:localeconv.obj
 0003:00001bc4       __acrt_lconv_static_W_null 0000000180074bc4     libucrt:localeconv.obj
 0003:00001f08       _environ_table             0000000180074f08     libucrt:environment_initialization.obj
 0003:00001f10       _wenviron_table            0000000180074f10     libucrt:environment_initialization.obj
 0003:00001f18       __dcrt_initial_wide_environment 0000000180074f18     libucrt:environment_initialization.obj
 0003:00001f20       __dcrt_initial_narrow_environment 0000000180074f20     libucrt:environment_initialization.obj
 0003:00001f28       __acrt_atexit_table        0000000180074f28     libucrt:onexit.obj
 0003:00001f40       __acrt_at_quick_exit_table 0000000180074f40     libucrt:onexit.obj
 0003:00001f78       _nstream                   0000000180074f78     libucrt:_file.obj
 0003:00001f80       __piob                     0000000180074f80     libucrt:_file.obj
 0003:00001f88       _cflush                    0000000180074f88     libucrt:_file.obj
 0003:00001f98       __acrt_stdout_buffer       0000000180074f98     libucrt:_sftbuf.obj
 0003:00001fa0       __acrt_stderr_buffer       0000000180074fa0     libucrt:_sftbuf.obj
 0003:00001fa8       __acrt_locale_changed_data 0000000180074fa8     libucrt:wsetlocale.obj
 0003:00001fb0       __acrt_current_locale_data 0000000180074fb0     libucrt:nlsdata.obj
 0003:00001fc0       __pioinfo                  0000000180074fc0     libucrt:ioinit.obj
 0003:000023c0       _nhandle                   00000001800753c0     libucrt:ioinit.obj
 0003:00002580       __acrt_heap                0000000180075580     libucrt:heap_handle.obj
 0003:00002588       __fma3_is_available        0000000180075588     libucrt:fma3_available.obj
 0003:0000258c       __use_fma3_lib             000000018007558c     libucrt:fma3_available.obj
 0003:00002590       ?_timezone@@3V?$dual_state_global@J@__crt_state_management@@A 0000000180075590     libucrt:timeset.obj
 0003:00002594       ?_daylight@@3V?$dual_state_global@H@__crt_state_management@@A 0000000180075594     libucrt:timeset.obj
 0003:00002598       ?_dstbias@@3V?$dual_state_global@J@__crt_state_management@@A 0000000180075598     libucrt:timeset.obj
 0003:0000266c       __mbcodepage               000000018007566c     libucrt:mbctype.obj
 0003:00002670       __ismbcodepage             0000000180075670     libucrt:mbctype.obj
 0003:00002678       __mbulinfo                 0000000180075678     libucrt:mbctype.obj
 0003:00002688       __mblocalename             0000000180075688     libucrt:mbctype.obj
 0003:00002694       __argc                     0000000180075694     libucrt:argv_data.obj
 0003:00002698       __argv                     0000000180075698     libucrt:argv_data.obj
 0003:000026a0       __wargv                    00000001800756a0     libucrt:argv_data.obj
 0003:000026a8       _acmdln                    00000001800756a8     libucrt:argv_data.obj
 0003:000026b0       _wcmdln                    00000001800756b0     libucrt:argv_data.obj
 0003:000026b8       _pgmptr                    00000001800756b8     libucrt:argv_data.obj
 0003:000026c8       ?DloadKernel32@@3PEAUHINSTANCE__@@EA 00000001800756c8     DelayImp:delayhlp.obj
 0003:000026d0       ?DloadAcquireSRWLockExclusive@@3P6AXPEA_K@ZEA 00000001800756d0     DelayImp:delayhlp.obj
 0003:000026d8       ?DloadReleaseSRWLockExclusive@@3P6AXPEA_K@ZEA 00000001800756d8     DelayImp:delayhlp.obj
 0003:000026e0       ?DloadSrwLock@@3_KA        00000001800756e0     DelayImp:delayhlp.obj
 0003:000026e8       ?DloadSectionLockCount@@3KA 00000001800756e8     DelayImp:delayhlp.obj
 0003:000026ec       ?DloadSectionOldProtection@@3KA 00000001800756ec     DelayImp:delayhlp.obj
 0003:000026f0       ?DloadSectionCommitPermanent@@3KA 00000001800756f0     DelayImp:delayhlp.obj
 0003:000026f8       ?_Static@?1???$_Immortalize@V_Iostream_error_category@std@@@std@@YAAEAV_Iostream_error_category@1@XZ@4U?$_Immortalizer@V_Iostream_error_category@std@@@1@A 00000001800756f8     crypto_aead.obj
 0003:00002708       ?$TSS0@?1???$_Immortalize@V_Iostream_error_category@std@@@std@@YAAEAV_Iostream_error_category@1@XZ@4HA 0000000180075708     crypto_aead.obj
 0003:00002710       ?_OptionsStorage@?1??__local_stdio_printf_options@@9@4_KA 0000000180075710     crypto_aead.obj
 0003:00002718       ?_Psave@?$_Facetptr@V?$numpunct@D@std@@@std@@2PEBVfacet@locale@2@EB 0000000180075718     crypto_aead.obj
 0003:00002720       ?_Psave@?$_Facetptr@V?$num_put@DV?$ostreambuf_iterator@DU?$char_traits@D@std@@@std@@@std@@@std@@2PEBVfacet@locale@2@EB 0000000180075720     crypto_aead.obj
 0003:00002728       ?_Psave@?$_Facetptr@V?$ctype@D@std@@@std@@2PEBVfacet@locale@2@EB 0000000180075728     crypto_aead.obj
 0003:00002730       ?id@?$num_put@DV?$ostreambuf_iterator@DU?$char_traits@D@std@@@std@@@std@@2V0locale@2@A 0000000180075730     crypto_aead.obj
 0003:00002738       ?id@?$numpunct@D@std@@2V0locale@2@A 0000000180075738     crypto_aead.obj
 0003:00002740       __dyn_tls_init_callback    0000000180075740     <common>
 0003:00002748       __scrt_ucrt_dll_is_in_use  0000000180075748     <common>
 0006:00000000       _tls_start                 000000018007b000     LIBCMT:tlssup.obj
 0006:00000004       _Init_thread_epoch         000000018007b004     LIBCMT:thread_safe_statics.obj
 0006:00000008       _tls_end                   000000018007b008     LIBCMT:tlssup.obj

 entry point at        0001:000353cc

 Static symbols

 0000:fff81000       .debug$S                   0000000180000000     kernel32:KERNEL32.dll
 0000:fff81000       .debug$S                   0000000180000000     libsodium:libsodium.dll
 0000:fff81000       .debug$S                   0000000180000000     kernel32:KERNEL32.dll
 0000:fff81000       .debug$S                   0000000180000000     kernel32:KERNEL32.dll
 0000:fff81000       .debug$S                   0000000180000000     kernel32:KERNEL32.dll
 0000:fff81000       .debug$S                   0000000180000000     kernel32:KERNEL32.dll
 0000:fff81000       .debug$S                   0000000180000000     kernel32:KERNEL32.dll
 0000:fff81000       .debug$S                   0000000180000000     kernel32:KERNEL32.dll
 0000:fff81000       .debug$S                   0000000180000000     libsodium:libsodium.dll
 0000:fff81000       .debug$S                   0000000180000000     kernel32:KERNEL32.dll
 0000:fff81000       .debug$S                   0000000180000000     kernel32:KERNEL32.dll
 0000:fff81000       .debug$S                   0000000180000000     kernel32:KERNEL32.dll
 0000:fff81000       .debug$S                   0000000180000000     kernel32:KERNEL32.dll
 0000:fff81000       .debug$S                   0000000180000000     libsodium:libsodium.dll
 0000:fff81000       .debug$S                   0000000180000000     kernel32:KERNEL32.dll
 0000:fff81000       .debug$S                   0000000180000000     kernel32:KERNEL32.dll
 0000:fff81000       .debug$S                   0000000180000000     kernel32:KERNEL32.dll
 0000:fff81000       .debug$S                   0000000180000000     kernel32:KERNEL32.dll
 0000:fff81000       .debug$S                   0000000180000000     kernel32:KERNEL32.dll
 0000:fff81000       .debug$S                   0000000180000000     kernel32:KERNEL32.dll
 0000:fff81000       .debug$S                   0000000180000000     kernel32:KERNEL32.dll
 0000:fff81000       .debug$S                   0000000180000000     kernel32:KERNEL32.dll
 0000:fff81000       .debug$S                   0000000180000000     kernel32:KERNEL32.dll
 0000:fff81000       .debug$S                   0000000180000000     kernel32:KERNEL32.dll
 0000:fff81000       .debug$S                   0000000180000000     kernel32:KERNEL32.dll
 0000:fff81000       .debug$S                   0000000180000000     kernel32:KERNEL32.dll
 0000:fff81000       .debug$S                   0000000180000000     kernel32:KERNEL32.dll
 0000:fff81000       .debug$S                   0000000180000000     kernel32:KERNEL32.dll
 0000:fff81000       .debug$S                   0000000180000000     kernel32:KERNEL32.dll
 0000:fff81000       .debug$S                   0000000180000000     libsodium:libsodium.dll
 0000:fff81000       .debug$S                   0000000180000000     kernel32:KERNEL32.dll
 0000:fff81000       .debug$S                   0000000180000000     libsodium:libsodium.dll
 0000:fff81000       .debug$S                   0000000180000000     kernel32:KERNEL32.dll
 0000:fff81000       .debug$S                   0000000180000000     libsodium:libsodium.dll
 0000:fff81000       .debug$S                   0000000180000000     kernel32:KERNEL32.dll
 0000:fff81000       .debug$S                   0000000180000000     libsodium:libsodium.dll
 0000:fff81000       .debug$S                   0000000180000000     kernel32:KERNEL32.dll
 0000:fff81000       .debug$S                   0000000180000000     libsodium:libsodium.dll
 0000:fff81000       .debug$S                   0000000180000000     libsodium:libsodium.dll
 0000:fff81000       .debug$S                   0000000180000000     libsodium:libsodium.dll
 0000:fff81000       .debug$S                   0000000180000000     kernel32:KERNEL32.dll
 0000:fff81000       .debug$S                   0000000180000000     kernel32:KERNEL32.dll
 0000:fff81000       .debug$S                   0000000180000000     kernel32:KERNEL32.dll
 0000:fff81000       .debug$S                   0000000180000000     kernel32:KERNEL32.dll
 0000:fff81000       .debug$S                   0000000180000000     kernel32:KERNEL32.dll
 0000:fff81000       .debug$S                   0000000180000000     kernel32:KERNEL32.dll
 0000:fff81000       .debug$S                   0000000180000000     kernel32:KERNEL32.dll
 0000:fff81000       .debug$S                   0000000180000000     kernel32:KERNEL32.dll
 0000:fff81000       .debug$S                   0000000180000000     sodium.exp
 0000:fff81000       .debug$S                   0000000180000000     kernel32:KERNEL32.dll
 0000:fff81000       .debug$S                   0000000180000000     libsodium:libsodium.dll
 0000:fff81000       .debug$S                   0000000180000000     libsodium:libsodium.dll
 0000:fff81000       .debug$S                   0000000180000000     kernel32:KERNEL32.dll
 0000:fff81000       .debug$S                   0000000180000000     kernel32:KERNEL32.dll
 0000:fff81000       .debug$S                   0000000180000000     kernel32:KERNEL32.dll
 0000:fff81000       .debug$S                   0000000180000000     kernel32:KERNEL32.dll
 0000:fff81000       .debug$S                   0000000180000000     kernel32:KERNEL32.dll
 0000:fff81000       .debug$S                   0000000180000000     kernel32:KERNEL32.dll
 0000:fff81000       .debug$S                   0000000180000000     kernel32:KERNEL32.dll
 0000:fff81000       .debug$S                   0000000180000000     kernel32:KERNEL32.dll
 0000:fff81000       .debug$S                   0000000180000000     kernel32:KERNEL32.dll
 0000:fff81000       .debug$S                   0000000180000000     kernel32:KERNEL32.dll
 0000:fff81000       .debug$S                   0000000180000000     kernel32:KERNEL32.dll
 0000:fff81000       .debug$S                   0000000180000000     libsodium:libsodium.dll
 0000:fff81000       .debug$S                   0000000180000000     kernel32:KERNEL32.dll
 0000:fff81000       .debug$S                   0000000180000000     kernel32:KERNEL32.dll
 0000:fff81000       .debug$S                   0000000180000000     libsodium:libsodium.dll
 0000:fff81000       .debug$S                   0000000180000000     kernel32:KERNEL32.dll
 0000:fff81000       .debug$S                   0000000180000000     kernel32:KERNEL32.dll
 0000:fff81000       .debug$S                   0000000180000000     kernel32:KERNEL32.dll
 0000:fff81000       .debug$S                   0000000180000000     kernel32:KERNEL32.dll
 0000:fff81000       .debug$S                   0000000180000000     kernel32:KERNEL32.dll
 0000:fff81000       .debug$S                   0000000180000000     kernel32:KERNEL32.dll
 0000:fff81000       .debug$S                   0000000180000000     kernel32:KERNEL32.dll
 0000:fff81000       .debug$S                   0000000180000000     kernel32:KERNEL32.dll
 0000:fff81000       .debug$S                   0000000180000000     libsodium:libsodium.dll
 0000:fff81000       .debug$S                   0000000180000000     kernel32:KERNEL32.dll
 0000:fff81000       .debug$S                   0000000180000000     kernel32:KERNEL32.dll
 0000:fff81000       .debug$S                   0000000180000000     kernel32:KERNEL32.dll
 0000:fff81000       .debug$S                   0000000180000000     kernel32:KERNEL32.dll
 0000:fff81000       .debug$S                   0000000180000000     kernel32:KERNEL32.dll
 0000:fff81000       .debug$S                   0000000180000000     libsodium:libsodium.dll
 0000:fff81000       .debug$S                   0000000180000000     kernel32:KERNEL32.dll
 0000:fff81000       .debug$S                   0000000180000000     libsodium:libsodium.dll
 0000:fff81000       .debug$S                   0000000180000000     kernel32:KERNEL32.dll
 0000:fff81000       .debug$S                   0000000180000000     kernel32:KERNEL32.dll
 0000:fff81000       .debug$S                   0000000180000000     kernel32:KERNEL32.dll
 0000:fff81000       .debug$S                   0000000180000000     kernel32:KERNEL32.dll
 0000:fff81000       .debug$S                   0000000180000000     kernel32:KERNEL32.dll
 0000:fff81000       .debug$S                   0000000180000000     kernel32:KERNEL32.dll
 0000:fff81000       .debug$S                   0000000180000000     kernel32:KERNEL32.dll
 0000:fff81000       .debug$S                   0000000180000000     kernel32:KERNEL32.dll
 0000:fff81000       .debug$S                   0000000180000000     kernel32:KERNEL32.dll
 0000:fff81000       .debug$S                   0000000180000000     kernel32:KERNEL32.dll
 0000:fff81000       .debug$S                   0000000180000000     kernel32:KERNEL32.dll
 0000:fff81000       .debug$S                   0000000180000000     libsodium:libsodium.dll
 0000:fff81000       .debug$S                   0000000180000000     kernel32:KERNEL32.dll
 0000:fff81000       .debug$S                   0000000180000000     libsodium:libsodium.dll
 0000:fff81000       .debug$S                   0000000180000000     kernel32:KERNEL32.dll
 0000:fff81000       .debug$S                   0000000180000000     kernel32:KERNEL32.dll
 0000:fff81000       .debug$S                   0000000180000000     kernel32:KERNEL32.dll
 0000:fff81000       .debug$S                   0000000180000000     kernel32:KERNEL32.dll
 0000:fff81000       .debug$S                   0000000180000000     kernel32:KERNEL32.dll
 0000:fff81000       .debug$S                   0000000180000000     kernel32:KERNEL32.dll
 0000:fff81000       .debug$S                   0000000180000000     kernel32:KERNEL32.dll
 0000:fff81000       .debug$S                   0000000180000000     kernel32:KERNEL32.dll
 0000:fff81000       .debug$S                   0000000180000000     kernel32:KERNEL32.dll
 0000:fff81000       .debug$S                   0000000180000000     kernel32:KERNEL32.dll
 0000:fff81000       .debug$S                   0000000180000000     kernel32:KERNEL32.dll
 0000:fff81000       .debug$S                   0000000180000000     kernel32:KERNEL32.dll
 0000:fff81000       .debug$S                   0000000180000000     kernel32:KERNEL32.dll
 0000:fff81000       .debug$S                   0000000180000000     kernel32:KERNEL32.dll
 0000:fff81000       .debug$S                   0000000180000000     kernel32:KERNEL32.dll
 0000:fff81000       .debug$S                   0000000180000000     kernel32:KERNEL32.dll
 0000:fff81000       .debug$S                   0000000180000000     kernel32:KERNEL32.dll
 0000:fff81000       .debug$S                   0000000180000000     kernel32:KERNEL32.dll
 0000:fff81000       .debug$S                   0000000180000000     kernel32:KERNEL32.dll
 0000:fff81000       .debug$S                   0000000180000000     kernel32:KERNEL32.dll
 0000:fff81000       .debug$S                   0000000180000000     kernel32:KERNEL32.dll
 0000:fff81000       .debug$S                   0000000180000000     kernel32:KERNEL32.dll
 0000:fff81000       .debug$S                   0000000180000000     libsodium:libsodium.dll
 0000:fff81000       .debug$S                   0000000180000000     node:node.exe
 0000:fff81000       .debug$S                   0000000180000000     node:node.exe
 0000:fff81000       .debug$S                   0000000180000000     node:node.exe
 0000:fff81000       .debug$S                   0000000180000000     node:node.exe
 0000:fff81000       .debug$S                   0000000180000000     libsodium:libsodium.dll
 0000:fff81000       .debug$S                   0000000180000000     node:node.exe
 0000:fff81000       .debug$S                   0000000180000000     node:node.exe
 0000:fff81000       .debug$S                   0000000180000000     node:node.exe
 0000:fff81000       .debug$S                   0000000180000000     node:node.exe
 0000:fff81000       .debug$S                   0000000180000000     node:node.exe
 0000:fff81000       .debug$S                   0000000180000000     node:node.exe
 0000:fff81000       .debug$S                   0000000180000000     node:node.exe
 0000:fff81000       .debug$S                   0000000180000000     libsodium:libsodium.dll
 0000:fff81000       .debug$S                   0000000180000000     node:node.exe
 0000:fff81000       .debug$S                   0000000180000000     node:node.exe
 0000:fff81000       .debug$S                   0000000180000000     node:node.exe
 0000:fff81000       .debug$S                   0000000180000000     node:node.exe
 0000:fff81000       .debug$S                   0000000180000000     node:node.exe
 0000:fff81000       .debug$S                   0000000180000000     node:node.exe
 0000:fff81000       .debug$S                   0000000180000000     libsodium:libsodium.dll
 0000:fff81000       .debug$S                   0000000180000000     node:node.exe
 0000:fff81000       .debug$S                   0000000180000000     libsodium:libsodium.dll
 0000:fff81000       .debug$S                   0000000180000000     node:node.exe
 0000:fff81000       .debug$S                   0000000180000000     node:node.exe
 0000:fff81000       .debug$S                   0000000180000000     node:node.exe
 0000:fff81000       .debug$S                   0000000180000000     node:node.exe
 0000:fff81000       .debug$S                   0000000180000000     node:node.exe
 0000:fff81000       .debug$S                   0000000180000000     node:node.exe
 0000:fff81000       .debug$S                   0000000180000000     node:node.exe
 0000:fff81000       .debug$S                   0000000180000000     node:node.exe
 0000:fff81000       .debug$S                   0000000180000000     libsodium:libsodium.dll
 0000:fff81000       .debug$S                   0000000180000000     node:node.exe
 0000:fff81000       .debug$S                   0000000180000000     libsodium:libsodium.dll
 0000:fff81000       .debug$S                   0000000180000000     node:node.exe
 0000:fff81000       .debug$S                   0000000180000000     libsodium:libsodium.dll
 0000:fff81000       .debug$S                   0000000180000000     libsodium:libsodium.dll
 0000:fff81000       .debug$S                   0000000180000000     libsodium:libsodium.dll
 0000:fff81000       .debug$S                   0000000180000000     node:node.exe
 0000:fff81000       .debug$S                   0000000180000000     libsodium:libsodium.dll
 0000:fff81000       .debug$S                   0000000180000000     libsodium:libsodium.dll
 0000:fff81000       .debug$S                   0000000180000000     libsodium:libsodium.dll
 0000:fff81000       .debug$S                   0000000180000000     node:node.exe
 0000:fff81000       .debug$S                   0000000180000000     libsodium:libsodium.dll
 0000:fff81000       .debug$S                   0000000180000000     node:node.exe
 0000:fff81000       .debug$S                   0000000180000000     libsodium:libsodium.dll
 0000:fff81000       .debug$S                   0000000180000000     node:node.exe
 0000:fff81000       .debug$S                   0000000180000000     libsodium:libsodium.dll
 0000:fff81000       .debug$S                   0000000180000000     node:node.exe
 0000:fff81000       .debug$S                   0000000180000000     libsodium:libsodium.dll
 0000:fff81000       .debug$S                   0000000180000000     node:node.exe
 0000:fff81000       .debug$S                   0000000180000000     libsodium:libsodium.dll
 0000:fff81000       .debug$S                   0000000180000000     node:node.exe
 0000:fff81000       .debug$S                   0000000180000000     node:node.exe
 0000:fff81000       .debug$S                   0000000180000000     node:node.exe
 0000:fff81000       .debug$S                   0000000180000000     libsodium:libsodium.dll
 0000:fff81000       .debug$S                   0000000180000000     node:node.exe
 0000:fff81000       .debug$S                   0000000180000000     libsodium:libsodium.dll
 0000:fff81000       .debug$S                   0000000180000000     libsodium:libsodium.dll
 0000:fff81000       .debug$S                   0000000180000000     node:node.exe
 0000:fff81000       .debug$S                   0000000180000000     libsodium:libsodium.dll
 0000:fff81000       .debug$S                   0000000180000000     libsodium:libsodium.dll
 0000:fff81000       .debug$S                   0000000180000000     node:node.exe
 0000:fff81000       .debug$S                   0000000180000000     libsodium:libsodium.dll
 0000:fff81000       .debug$S                   0000000180000000     node:node.exe
 0000:fff81000       .debug$S                   0000000180000000     node:node.exe
 0000:fff81000       .debug$S                   0000000180000000     node:node.exe
 0000:fff81000       .debug$S                   0000000180000000     node:node.exe
 0000:fff81000       .debug$S                   0000000180000000     node:node.exe
 0000:fff81000       .debug$S                   0000000180000000     node:node.exe
 0000:fff81000       .debug$S                   0000000180000000     node:node.exe
 0000:fff81000       .debug$S                   0000000180000000     node:node.exe
 0000:fff81000       .debug$S                   0000000180000000     libsodium:libsodium.dll
 0000:fff81000       .debug$S                   0000000180000000     libsodium:libsodium.dll
 0000:fff81000       .debug$S                   0000000180000000     libsodium:libsodium.dll
 0000:fff81000       .debug$S                   0000000180000000     libsodium:libsodium.dll
 0000:fff81000       .debug$S                   0000000180000000     libsodium:libsodium.dll
 0000:fff81000       .debug$S                   0000000180000000     libsodium:libsodium.dll
 0000:fff81000       .debug$S                   0000000180000000     libsodium:libsodium.dll
 0000:fff81000       .debug$S                   0000000180000000     libsodium:libsodium.dll
 0000:fff81000       .debug$S                   0000000180000000     libsodium:libsodium.dll
 0000:fff81000       .debug$S                   0000000180000000     libsodium:libsodium.dll
 0000:fff81000       .debug$S                   0000000180000000     libsodium:libsodium.dll
 0000:fff81000       .debug$S                   0000000180000000     libsodium:libsodium.dll
 0000:fff81000       .debug$S                   0000000180000000     libsodium:libsodium.dll
 0000:fff81000       .debug$S                   0000000180000000     libsodium:libsodium.dll
 0000:fff81000       .debug$S                   0000000180000000     libsodium:libsodium.dll
 0000:fff81000       .debug$S                   0000000180000000     libsodium:libsodium.dll
 0000:fff81000       .debug$S                   0000000180000000     libsodium:libsodium.dll
 0000:fff81000       .debug$S                   0000000180000000     libsodium:libsodium.dll
 0000:fff81000       .debug$S                   0000000180000000     libsodium:libsodium.dll
 0000:fff81000       .debug$S                   0000000180000000     libsodium:libsodium.dll
 0000:fff81000       .debug$S                   0000000180000000     libsodium:libsodium.dll
 0000:fff81000       .debug$S                   0000000180000000     libsodium:libsodium.dll
 0000:fff81000       .debug$S                   0000000180000000     libsodium:libsodium.dll
 0000:fff81000       .debug$S                   0000000180000000     libsodium:libsodium.dll
 0000:fff81000       .debug$S                   0000000180000000     libsodium:libsodium.dll
 0000:fff81000       .debug$S                   0000000180000000     libsodium:libsodium.dll
 0000:fff81000       .debug$S                   0000000180000000     libsodium:libsodium.dll
 0000:fff81000       .debug$S                   0000000180000000     libsodium:libsodium.dll
 0000:fff81000       .debug$S                   0000000180000000     libsodium:libsodium.dll
 0000:fff81000       .debug$S                   0000000180000000     libsodium:libsodium.dll
 0000:fff81000       .debug$S                   0000000180000000     libsodium:libsodium.dll
 0000:fff81000       .debug$S                   0000000180000000     libsodium:libsodium.dll
 0000:fff81000       .debug$S                   0000000180000000     libsodium:libsodium.dll
 0000:fff81000       .debug$S                   0000000180000000     libsodium:libsodium.dll
 0000:fff81000       .debug$S                   0000000180000000     libsodium:libsodium.dll
 0000:fff81000       .debug$S                   0000000180000000     libsodium:libsodium.dll
 0000:fff81000       .debug$S                   0000000180000000     libsodium:libsodium.dll
 0000:fff81000       .debug$S                   0000000180000000     libsodium:libsodium.dll
 0000:fff81000       .debug$S                   0000000180000000     libsodium:libsodium.dll
 0000:fff81000       .debug$S                   0000000180000000     libsodium:libsodium.dll
 0000:fff81000       .debug$S                   0000000180000000     libsodium:libsodium.dll
 0000:fff81000       .debug$S                   0000000180000000     libsodium:libsodium.dll
 0000:fff81000       .debug$S                   0000000180000000     libsodium:libsodium.dll
 0000:fff81000       .debug$S                   0000000180000000     libsodium:libsodium.dll
 0000:fff81000       .debug$S                   0000000180000000     libsodium:libsodium.dll
 0000:fff81000       .debug$S                   0000000180000000     libsodium:libsodium.dll
 0000:fff81000       .debug$S                   0000000180000000     libsodium:libsodium.dll
 0000:fff81000       .debug$S                   0000000180000000     libsodium:libsodium.dll
 0000:fff81000       .debug$S                   0000000180000000     libsodium:libsodium.dll
 0000:fff81000       .debug$S                   0000000180000000     libsodium:libsodium.dll
 0000:fff81000       .debug$S                   0000000180000000     libsodium:libsodium.dll
 0000:fff81000       .debug$S                   0000000180000000     libsodium:libsodium.dll
 0000:fff81000       .debug$S                   0000000180000000     libsodium:libsodium.dll
 0000:fff81000       .debug$S                   0000000180000000     libsodium:libsodium.dll
 0000:fff81000       .debug$S                   0000000180000000     libsodium:libsodium.dll
 0000:fff81000       .debug$S                   0000000180000000     libsodium:libsodium.dll
 0000:fff81000       .debug$S                   0000000180000000     libsodium:libsodium.dll
 0000:fff81000       .debug$S                   0000000180000000     libsodium:libsodium.dll
 0000:fff81000       .debug$S                   0000000180000000     libsodium:libsodium.dll
 0000:fff81000       .debug$S                   0000000180000000     libsodium:libsodium.dll
 0000:fff81000       .debug$S                   0000000180000000     libsodium:libsodium.dll
 0000:fff81000       .debug$S                   0000000180000000     libsodium:libsodium.dll
 0000:fff81000       .debug$S                   0000000180000000     libsodium:libsodium.dll
 0000:fff81000       .debug$S                   0000000180000000     libsodium:libsodium.dll
 0000:fff81000       .debug$S                   0000000180000000     libsodium:libsodium.dll
 0000:fff81000       .debug$S                   0000000180000000     libsodium:libsodium.dll
 0000:fff81000       .debug$S                   0000000180000000     libsodium:libsodium.dll
 0000:fff81000       .debug$S                   0000000180000000     libsodium:libsodium.dll
 0000:fff81000       .debug$S                   0000000180000000     libsodium:libsodium.dll
 0000:fff81000       .debug$S                   0000000180000000     libsodium:libsodium.dll
 0000:fff81000       .debug$S                   0000000180000000     libsodium:libsodium.dll
 0000:fff81000       .debug$S                   0000000180000000     libsodium:libsodium.dll
 0000:fff81000       .debug$S                   0000000180000000     libsodium:libsodium.dll
 0000:fff81000       .debug$S                   0000000180000000     libsodium:libsodium.dll
 0000:fff81000       .debug$S                   0000000180000000     libsodium:libsodium.dll
 0000:fff81000       .debug$S                   0000000180000000     libsodium:libsodium.dll
 0000:fff81000       .debug$S                   0000000180000000     libsodium:libsodium.dll
 0000:fff81000       .debug$S                   0000000180000000     libsodium:libsodium.dll
 0000:fff81000       .debug$S                   0000000180000000     libsodium:libsodium.dll
 0000:fff81000       .debug$S                   0000000180000000     libsodium:libsodium.dll
 0000:fff81000       .debug$S                   0000000180000000     libsodium:libsodium.dll
 0000:fff81000       .debug$S                   0000000180000000     libsodium:libsodium.dll
 0000:fff81000       .debug$S                   0000000180000000     libsodium:libsodium.dll
 0000:fff81000       .debug$S                   0000000180000000     libsodium:libsodium.dll
 0000:fff81000       .debug$S                   0000000180000000     libsodium:libsodium.dll
 0000:fff81000       .debug$S                   0000000180000000     libsodium:libsodium.dll
 0000:fff81000       .debug$S                   0000000180000000     libsodium:libsodium.dll
 0000:fff81000       .debug$S                   0000000180000000     libsodium:libsodium.dll
 0000:fff81000       .debug$S                   0000000180000000     libsodium:libsodium.dll
 0000:fff81000       .debug$S                   0000000180000000     libsodium:libsodium.dll
 0000:fff81000       .debug$S                   0000000180000000     libsodium:libsodium.dll
 0000:fff81000       .debug$S                   0000000180000000     libsodium:libsodium.dll
 0000:fff81000       .debug$S                   0000000180000000     libsodium:libsodium.dll
 0000:fff81000       .debug$S                   0000000180000000     libsodium:libsodium.dll
 0000:fff81000       .debug$S                   0000000180000000     libsodium:libsodium.dll
 0000:fff81000       .debug$S                   0000000180000000     libsodium:libsodium.dll
 0000:fff81000       .debug$S                   0000000180000000     libsodium:libsodium.dll
 0000:fff81000       .debug$S                   0000000180000000     libsodium:libsodium.dll
 0000:fff81000       .debug$S                   0000000180000000     libsodium:libsodium.dll
 0000:fff81000       .debug$S                   0000000180000000     libsodium:libsodium.dll
 0000:fff81000       .debug$S                   0000000180000000     libsodium:libsodium.dll
 0000:fff81000       .debug$S                   0000000180000000     libsodium:libsodium.dll
 0000:fff81000       .debug$S                   0000000180000000     libsodium:libsodium.dll
 0000:fff81000       .debug$S                   0000000180000000     libsodium:libsodium.dll
 0000:fff81000       .debug$S                   0000000180000000     libsodium:libsodium.dll
 0000:fff81000       .debug$S                   0000000180000000     libsodium:libsodium.dll
 0000:fff81000       .debug$S                   0000000180000000     libsodium:libsodium.dll
 0000:fff81000       .debug$S                   0000000180000000     libsodium:libsodium.dll
 0000:fff81000       .debug$S                   0000000180000000     libsodium:libsodium.dll
 0000:fff81000       .debug$S                   0000000180000000     libsodium:libsodium.dll
 0000:fff81000       .debug$S                   0000000180000000     libsodium:libsodium.dll
 0000:fff81000       .debug$S                   0000000180000000     libsodium:libsodium.dll
 0000:fff81000       .debug$S                   0000000180000000     libsodium:libsodium.dll
 0000:fff81000       .debug$S                   0000000180000000     libsodium:libsodium.dll
 0000:fff81000       .debug$S                   0000000180000000     libsodium:libsodium.dll
 0000:fff81000       .debug$S                   0000000180000000     libsodium:libsodium.dll
 0000:fff81000       .debug$S                   0000000180000000     libsodium:libsodium.dll
 0000:fff81000       .debug$S                   0000000180000000     libsodium:libsodium.dll
 0000:fff81000       .debug$S                   0000000180000000     libsodium:libsodium.dll
 0000:fff81000       .debug$S                   0000000180000000     libsodium:libsodium.dll
 0000:fff81000       .debug$S                   0000000180000000     libsodium:libsodium.dll
 0000:fff81000       .debug$S                   0000000180000000     libsodium:libsodium.dll
 0000:fff81000       .debug$S                   0000000180000000     libsodium:libsodium.dll
 0000:fff81000       .debug$S                   0000000180000000     libsodium:libsodium.dll
 0000:fff81000       .debug$S                   0000000180000000     libsodium:libsodium.dll
 0001:00000000       ??__Einitlocks@std@@YAXXZ  0000000180001000 f   libcpmt:xlock.obj
 0001:00000020       ??__E_Fac_tidy_reg@std@@YAXXZ 0000000180001020 f   libcpmt:locale0.obj
 0001:0000002c       ??__Eclassic_locale@std@@YAXXZ 000000018000102c f   libcpmt:locale0.obj
 0001:00000038       ??__Einit_atexit@@YAXXZ    0000000180001038 f   libcpmt:iosptrs.obj
 0001:00000044       ??__Einitlocks@std@@YAXXZ  0000000180001044 f   libcpmt:iosptrs.obj
 0001:00000c70       ?FunctionCallbackWrapper@imp@Nan@@YAXAEBV?$FunctionCallbackInfo@VValue@v8@@@v8@@@Z 0000000180001c70 f   crypto_aead.obj
 0001:00008bb0       no_op_initialize           0000000180009bb0 f i libucrt:wsetlocale.obj
 0001:000216a0       _register_sodium           00000001800226a0 f   sodium.obj
 0001:00032f40       ?load_exe_hook@@YAP6A_JXZIPEAUDelayLoadInfo@@@Z 0000000180033f40 f   win_delay_load_hook.obj
 0001:0003379c       tidy_global                000000018003479c f   libcpmt:locale0.obj
 0001:0003421c       ?initialize_pointers@@YAHXZ 000000018003521c f   libcpmt:winapisupp.obj
 0001:00034920       $$000000                   0000000180035920     LIBCMT:_amdsecgs_.obj
 0001:0003495c       ?__scrt_initialize_thread_safe_statics@@YAHXZ 000000018003595c f   LIBCMT:thread_safe_statics.obj
 0001:00034a7c       ?__scrt_uninitialize_thread_safe_statics@@YAXXZ 0000000180035a7c f   LIBCMT:thread_safe_statics.obj
 0001:00035080       ?dllmain_crt_dispatch@@YAHQEAUHINSTANCE__@@KQEAX@Z 0000000180036080 f   LIBCMT:dll_dllmain.obj
 0001:000350d0       ?dllmain_crt_process_attach@@YAHQEAUHINSTANCE__@@QEAX@Z 00000001800360d0 f   LIBCMT:dll_dllmain.obj
 0001:000351fc       ?dllmain_crt_process_detach@@YAH_N@Z 00000001800361fc f   LIBCMT:dll_dllmain.obj
 0001:00035280       ?dllmain_dispatch@@YAHQEAUHINSTANCE__@@KQEAX@Z 0000000180036280 f   LIBCMT:dll_dllmain.obj
 0001:00035378       ?dllmain_raw@@YAHQEAUHINSTANCE__@@KQEAX@Z 0000000180036378 f   LIBCMT:dll_dllmain.obj
 0001:000354c0       $$000000                   00000001800364c0     LIBCMT:_chkstk_.obj
 0001:000356dc       capture_current_context    00000001800366dc f   LIBCMT:gs_report.obj
 0001:0003574c       capture_previous_context   000000018003674c f   LIBCMT:gs_report.obj
 0001:00035d20       $$000000                   0000000180036d20     libvcruntime:memcpy.obj
 0001:00035dc7       MoveSmall                  0000000180036dc7     libvcruntime:memcpy.obj
 0001:000362e4       ?CatchIt@@YAXPEAUEHExceptionRecord@@PEA_KPEAU_CONTEXT@@PEAU_xDISPATCHER_CONTEXT@@PEBU_s_FuncInfo@@PEBU_s_HandlerType@@PEBU_s_CatchableType@@PEBU_s_TryBlockMapEntry@@H1EE@Z 00000001800372e4 f   libvcruntime:frame.obj
 0001:000363a8       ?ExFilterRethrow@@YAHPEAU_EXCEPTION_POINTERS@@PEAUEHExceptionRecord@@PEAH@Z 00000001800373a8 f   libvcruntime:frame.obj
 0001:00036430       ?FindHandler@@YAXPEAUEHExceptionRecord@@PEA_KPEAU_CONTEXT@@PEAU_xDISPATCHER_CONTEXT@@PEBU_s_FuncInfo@@EH1@Z 0000000180037430 f   libvcruntime:frame.obj
 0001:00036900       ?FindHandlerForForeignException@@YAXPEAUEHExceptionRecord@@PEA_KPEAU_CONTEXT@@PEAU_xDISPATCHER_CONTEXT@@PEBU_s_FuncInfo@@HH1@Z 0000000180037900 f   libvcruntime:frame.obj
 0001:00036b6c       ?IsInExceptionSpec@@YAEPEAUEHExceptionRecord@@PEBU_s_ESTypeList@@@Z 0000000180037b6c f   libvcruntime:frame.obj
 0001:00037ee0       $$000000                   0000000180038ee0     libvcruntime:memset.obj
 0001:00037fcc       MsetTab                    0000000180038fcc     libvcruntime:memset.obj
 0001:00038090       $$000000                   0000000180039090     libvcruntime:memcmp.obj
 0001:00038168       ?try_get_function@@YAPEAXW4function_id@?A0x679b24ab@@QEBDQEBW4module_id@2@2@Z 0000000180039168 f   libvcruntime:winapi_downlevel.obj
 0001:00038b50       $$000000                   0000000180039b50     libvcruntime:handlers.obj
 0001:00038ba0       $$000000                   0000000180039ba0     libvcruntime:_jmpuwind_.obj
 0001:00039078       ??$common_vsprintf@Vformat_validation_base@__crt_stdio_output@@D@@YAH_KQEAD0QEBDQEAU__crt_locale_pointers@@1@Z 000000018003a078 f   libucrt:output.obj
 0001:00039760       ??R<lambda_dd75445284c072d0bd3768540cc698fa>@@QEBAHXZ 000000018003a760 f   libucrt:output.obj
 0001:0003c2d8       ??$common_assert_to_message_box@_W@@YAXQEB_W0IQEAX@Z 000000018003d2d8 f   libucrt:assert.obj
 0001:0003c39c       ??$common_assert_to_message_box_build_string@_W@@YAXQEA_W_KQEB_W2IQEAX@Z 000000018003d39c f   libucrt:assert.obj
 0001:0003cb70       ??$common_assert_to_stderr@_W@@YAXQEB_W0I@Z 000000018003db70 f   libucrt:assert.obj
 0001:0003cce0       ?get_assert_format@@YAPEB_W_W@Z 000000018003dce0 f   libucrt:assert.obj
 0001:0003d01c       call_wsetlocale            000000018003e01c f   libucrt:setlocale.obj
 0001:0003dc98       ?x_ismbbtype_l@@YAHPEAU__crt_locale_pointers@@IHH@Z 000000018003ec98 f   libucrt:ismbbyte.obj
 0001:0003e2e0       memcpy_s                   000000018003f2e0 f   libucrt:cfout.obj
 0001:0003e2e0       memcpy_s                   000000018003f2e0 f   libucrt:strtod.obj
 0001:0003e370       $$000000                   000000018003f370     libucrt:pow.obj
 0001:0003fa10       $$000000                   0000000180040a10     libucrt:powf.obj
 0001:00040930       ?internal_isupper_l@@YA_NHQEAU__crt_locale_pointers@@@Z 0000000180041930 f   libucrt:tolower_toupper.obj
 0001:000410c0       ?atexit_exception_filter@@YAHK@Z 00000001800420c0 f   libucrt:exit.obj
 0001:000410cc       ?common_exit@@YAXHW4_crt_exit_cleanup_mode@@W4_crt_exit_return_mode@@@Z 00000001800420cc f   libucrt:exit.obj
 0001:00041238       ?exit_or_terminate_process@@YAXI@Z 0000000180042238 f   libucrt:exit.obj
 0001:00041284       ?try_cor_exit_process@@YAXI@Z 0000000180042284 f   libucrt:exit.obj
 0001:0004131c       ??$parse_command_line@D@@YAXPEADPEAPEAD0PEA_K2@Z 000000018004231c f   libucrt:argv_parsing.obj
 0001:000416b4       ??$common_initialize_environment_nolock@D@@YAHXZ 00000001800426b4 f   libucrt:environment_initialization.obj
 0001:00041720       ??$create_environment@D@@YAQEAPEADQEAD@Z 0000000180042720 f   libucrt:environment_initialization.obj
 0001:0004181c       ??$free_environment@_W@@YAXQEAPEA_W@Z 000000018004281c f   libucrt:environment_initialization.obj
 0001:0004181c       ??$free_environment@D@@YAXQEAPEAD@Z 000000018004281c f   libucrt:environment_initialization.obj
 0001:00041860       ??$uninitialize_environment_internal@D@@YAXAEAPEAPEAD@Z 0000000180042860 f   libucrt:environment_initialization.obj
 0001:0004187c       ??$uninitialize_environment_internal@_W@@YAXAEAPEAPEA_W@Z 000000018004287c f   libucrt:environment_initialization.obj
 0001:00041ab4       ??R<lambda_4e60a939b0d047cfe11ddc22648dfba9>@@QEBAHXZ 0000000180042ab4 f   libucrt:onexit.obj
 0001:00041d64       initialize_global_variables 0000000180042d64 f   libucrt:initialization.obj
 0001:00041d78       initialize_c               0000000180042d78 f   libucrt:initialization.obj
 0001:00041d9c       uninitialize_environment   0000000180042d9c f   libucrt:initialization.obj
 0001:00041dac       uninitialize_c             0000000180042dac f   libucrt:initialization.obj
 0001:00041dac       initialize_environment     0000000180042dac f   libucrt:initialization.obj
 0001:00041dac       uninitialize_global_state_isolation 0000000180042dac f   libucrt:initialization.obj
 0001:00041dac       report_memory_leaks        0000000180042dac f   libucrt:initialization.obj
 0001:00041dac       initialize_global_state_isolation 0000000180042dac f   libucrt:initialization.obj
 0001:00041db0       initialize_pointers        0000000180042db0 f   libucrt:initialization.obj
 0001:00041e04       uninitialize_vcruntime     0000000180042e04 f   libucrt:initialization.obj
 0001:00041e0c       uninitialize_allocated_memory 0000000180042e0c f   libucrt:initialization.obj
 0001:00042ef4       ?construct_ptd_array@@YAXQEAU__acrt_ptd@@@Z 0000000180043ef4 f   libucrt:per_thread_data.obj
 0001:00042fc4       ?destroy_fls@@YAXPEAX@Z    0000000180043fc4 f   libucrt:per_thread_data.obj
 0001:00042fe4       ?destroy_ptd_array@@YAXQEAU__acrt_ptd@@@Z 0000000180043fe4 f   libucrt:per_thread_data.obj
 0001:000430dc       ?replace_current_thread_locale_nolock@@YAXQEAU__acrt_ptd@@QEAU__crt_locale_data@@@Z 00000001800440dc f   libucrt:per_thread_data.obj
 0001:00043734       ?fp_format_a@@YAHQEBNPEAD_KQEAD2H_NIQEAU__crt_locale_pointers@@@Z 0000000180044734 f   libucrt:cvt.obj
 0001:00043a94       ?fp_format_e@@YAHQEBNQEAD_K12H_NIQEAU__crt_locale_pointers@@@Z 0000000180044a94 f   libucrt:cvt.obj
 0001:00043b64       ?fp_format_e_internal@@YAHQEAD_KH_NIQEAU_strflt@@2QEAU__crt_locale_pointers@@@Z 0000000180044b64 f   libucrt:cvt.obj
 0001:00043d40       ?fp_format_f_internal@@YAHQEAD_KHQEAU_strflt@@_NQEAU__crt_locale_pointers@@@Z 0000000180044d40 f   libucrt:cvt.obj
 0001:00043e88       ?fp_format_g@@YAHQEBNQEAD_K12H_NIQEAU__crt_locale_pointers@@@Z 0000000180044e88 f   libucrt:cvt.obj
 0001:00043fc0       ?fp_format_nan_or_infinity@@YAHW4__acrt_fp_class@@_NPEAD_K1@Z 0000000180044fc0 f   libucrt:cvt.obj
 0001:00044938       ??R<lambda_2af78c5f5901b1372d98f9ab3177dfa6>@@QEBAXXZ 0000000180045938 f   libucrt:wsetlocale.obj
 0001:00044cfc       _copytlocinfo_nolock       0000000180045cfc f   libucrt:wsetlocale.obj
 0001:000452bc       _wsetlocale_get_all        00000001800462bc f   libucrt:wsetlocale.obj
 0001:000454a4       _wsetlocale_nolock         00000001800464a4 f   libucrt:wsetlocale.obj
 0001:0004572c       _wsetlocale_set_cat        000000018004672c f   libucrt:wsetlocale.obj
 0001:00045a6c       ?initialize_inherited_file_handles_nolock@@YAXXZ 0000000180046a6c f   libucrt:ioinit.obj
 0001:00045b58       ?initialize_stdio_handles_nolock@@YAXXZ 0000000180046b58 f   libucrt:ioinit.obj
 0001:00046768       ??$common_xtox@K_W@@YAHKQEA_W_KI_N@Z 0000000180047768 f   libucrt:xtoa.obj
 0001:00046814       ??$common_xtox_s@K_W@@YAHKQEA_W_KI_N@Z 0000000180047814 f   libucrt:xtoa.obj
 0001:00046a70       ??$message_box_wait_thread@_W@@YAKQEAX@Z 0000000180047a70 f   libucrt:crtmbox.obj
 0001:00046c84       common_flush_all           0000000180047c84 f   libucrt:fflush.obj
 0001:00046dec       ??R<lambda_b721fa326cdb32351d23dfa67958c160>@@QEBAHXZ 0000000180047dec f   libucrt:setvbuf.obj
 0001:00046f7c       ?<helper_func_cdecl>@<lambda_e2bb8337c48846e80c921ea5ddadc92d>@@CAHPEA_W@Z 0000000180047f7c f   libucrt:winapi_thunks.obj
 0001:00047058       ?try_get_function@@YAPEAXW4function_id@?A0x63058377@@QEBDQEBW4module_id@2@2@Z 0000000180048058 f   libucrt:winapi_thunks.obj
 0001:00047b5c       ?_mbstowcs_l_helper@@YA_KPEA_WPEBD_KPEAU__crt_locale_pointers@@@Z 0000000180048b5c f   libucrt:mbstowcs.obj
 0001:00047e88       ?_wcstombs_l_helper@@YA_KPEADPEB_W_KPEAU__crt_locale_pointers@@@Z 0000000180048e88 f   libucrt:wcstombs.obj
 0001:000483e8       ?InternalGetLocaleInfoA@@YAHQEAU__crt_locale_pointers@@QEB_WKQEADH@Z 00000001800493e8 f   libucrt:getlocaleinfoa.obj
 0001:00048904       ?__acrt_LCMapStringA_stat@@YAHPEAU__crt_locale_pointers@@PEB_WKPEBDHPEADHHH@Z 0000000180049904 f   libucrt:lcmapstringa.obj
 0001:00049278       ?<helper_func_cdecl>@<lambda_2feae5270eb4d0d5532525f423405775>@@CAHPEBX0@Z 000000018004a278 f   libucrt:argv_wildcards.obj
 0001:0004928c       ??$common_expand_argv_wildcards@D@@YAHQEAPEADQEAPEAPEAD@Z 000000018004a28c f   libucrt:argv_wildcards.obj
 0001:00049498       ??$copy_and_add_argument_to_buffer@D@@YAHQEBD0_KAEAV?$argument_list@D@?A0xca0879c4@@@Z 000000018004a498 f   libucrt:argv_wildcards.obj
 0001:000495a8       ??$expand_argument_wildcards@D@@YAHQEAD0AEAV?$argument_list@D@?A0xca0879c4@@@Z 000000018004a5a8 f   libucrt:argv_wildcards.obj
 0001:0004985c       ??R<lambda_ad1ced32f4ac17aa236e5ef05d6b3b7c>@@QEBAXXZ 000000018004a85c f   libucrt:mbctype.obj
 0001:00049a74       ?getSystemCP@@YAHH@Z       000000018004aa74 f   libucrt:mbctype.obj
 0001:00049af4       ?setSBCS@@YAXPEAU__crt_multibyte_data@@@Z 000000018004aaf4 f   libucrt:mbctype.obj
 0001:00049b84       ?setSBUpLow@@YAXPEAU__crt_multibyte_data@@@Z 000000018004ab84 f   libucrt:mbctype.obj
 0001:00049d68       ?setmbcp_internal@@YAHH_N@Z 000000018004ad68 f   libucrt:mbctype.obj
 0001:0004be08       ??$write_buffer_nolock@D@@YA_NDV__crt_stdio_stream@@@Z 000000018004ce08 f   libucrt:_flsbuf.obj
 0001:0004bf0c       ??$write_buffer_nolock@_W@@YA_N_WV__crt_stdio_stream@@@Z 000000018004cf0c f   libucrt:_flsbuf.obj
 0001:0004ccd0       ?free_crt_array_internal@@YAXQEAPEBX_K@Z 000000018004dcd0 f   libucrt:inittime.obj
 0001:0004cd28       ?initialize_lc_time@@YA_NQEAU__crt_lc_time_data@@QEAU__crt_locale_data@@@Z 000000018004dd28 f   libucrt:inittime.obj
 0001:0004d398       GetLocaleNameFromDefault   000000018004e398 f   libucrt:get_qualified_locale.obj
 0001:0004d440       GetLocaleNameFromLangCountry 000000018004e440 f   libucrt:get_qualified_locale.obj
 0001:0004d510       GetLocaleNameFromLanguage  000000018004e510 f   libucrt:get_qualified_locale.obj
 0001:0004d5ac       LangCountryEnumProcEx      000000018004e5ac f   libucrt:get_qualified_locale.obj
 0001:0004d960       LanguageEnumProcEx         000000018004e960 f   libucrt:get_qualified_locale.obj
 0001:0004da4c       ProcessCodePage            000000018004ea4c f   libucrt:get_qualified_locale.obj
 0001:0004db00       TestDefaultCountry         000000018004eb00 f   libucrt:get_qualified_locale.obj
 0001:0004db68       TranslateName              000000018004eb68 f   libucrt:get_qualified_locale.obj
 0001:0004de24       CountryEnumProc            000000018004ee24 f   libucrt:getqloc_downlevel.obj
 0001:0004df10       GetLcidFromLangCountry     000000018004ef10 f   libucrt:getqloc_downlevel.obj
 0001:0004dfe0       GetLcidFromLanguage        000000018004efe0 f   libucrt:getqloc_downlevel.obj
 0001:0004e078       LangCountryEnumProc        000000018004f078 f   libucrt:getqloc_downlevel.obj
 0001:0004e2bc       LanguageEnumProc           000000018004f2bc f   libucrt:getqloc_downlevel.obj
 0001:0004e3b8       LcidFromHexString          000000018004f3b8 f   libucrt:getqloc_downlevel.obj
 0001:0004e408       ProcessCodePage            000000018004f408 f   libucrt:getqloc_downlevel.obj
 0001:0004e4b8       TestDefaultLanguage        000000018004f4b8 f   libucrt:getqloc_downlevel.obj
 0001:0004e564       TranslateName              000000018004f564 f   libucrt:getqloc_downlevel.obj
 0001:0004eba0       $$000000                   000000018004fba0     libucrt:fpsr.obj
 0001:0004ed20       ?write_double_translated_ansi_nolock@@YA?AUwrite_result@?A0x9c548279@@HQEBDI@Z 000000018004fd20 f   libucrt:write.obj
 0001:0004ef28       ?write_text_ansi_nolock@@YA?AUwrite_result@?A0x9c548279@@HQEBDI@Z 000000018004ff28 f   libucrt:write.obj
 0001:0004f030       ?write_text_utf16le_nolock@@YA?AUwrite_result@?A0x9c548279@@HQEBDI@Z 0000000180050030 f   libucrt:write.obj
 0001:0004f14c       ?write_text_utf8_nolock@@YA?AUwrite_result@?A0x9c548279@@HQEBDI@Z 000000018005014c f   libucrt:write.obj
 0001:0004f690       ?GetTableIndexFromLocaleName@@YAHPEB_W@Z 0000000180050690 f   libucrt:lcidtoname_downlevel.obj
 0001:0004f9cc       _call_matherr              00000001800509cc f   libucrt:libm_error.obj
 0001:0004fa34       _exception_enabled         0000000180050a34 f   libucrt:libm_error.obj
 0001:0004fe40       ?shortsort@@YAXPEAD0_KP6AHPEBX2@Z@Z 0000000180050e40 f   libucrt:qsort.obj
 0001:00050384       ?initialize_multibyte@@YAHXZ 0000000180051384 f   libucrt:multibyte_initializer.obj
 0001:00050560       $$000000                   0000000180051560     libucrt:log10.obj
 0001:00050b0c       ??$common_lseek@_J@@YA_JH_JH@Z 0000000180051b0c f   libucrt:lseek.obj
 0001:00050bfc       ??$common_lseek_nolock@_J@@YA_JH_JH@Z 0000000180051bfc f   libucrt:lseek.obj
 0001:000510ec       common_control87           00000001800520ec f   libucrt:ieee.obj
 0001:00051430       _log_special_common        0000000180052430 f   libucrt:log_special.obj
 0001:000520b0       $$000000                   00000001800530b0     LIBCMT:_guard_dispatch_.obj
 0001:000520d0       ?dtor$0@?0??_Locimp_dtor@_Locimp@locale@std@@CAXPEAV123@@Z@4HA 00000001800530d0 f   libcpmt:locale0.obj
 0001:000520d0       ?dtor$0@?0??_Init@locale@std@@CAPEAV_Locimp@12@_N@Z@4HA 00000001800530d0 f   libcpmt:locale0.obj
 0001:000520dc       __scrt_is_nonwritable_in_current_image$filt$0 00000001800530dc f   LIBCMT:utility.obj
 0001:000520f4       ?fin$0@?0??dllmain_crt_process_attach@@YAHQEAUHINSTANCE__@@QEAX@Z@4HA 00000001800530f4 f   LIBCMT:dll_dllmain.obj
 0001:0005210b       ?fin$0@?0??dllmain_crt_process_detach@@YAH_N@Z@4HA 000000018005310b f   LIBCMT:dll_dllmain.obj
 0001:00052127       ?filt$0@?0??dllmain_dispatch@@YAHQEAUHINSTANCE__@@KQEAX@Z@4HA 0000000180053127 f   LIBCMT:dll_dllmain.obj
 0001:0005215d       __CxxCallCatchBlock$filt$0 000000018005315d f   libvcruntime:frame.obj
 0001:00052182       __CxxCallCatchBlock$fin$1  0000000180053182 f   libvcruntime:frame.obj
 0001:000521fa       __DestructExceptionObject$filt$0 00000001800531fa f   libvcruntime:frame.obj
 0001:00052212       __FrameUnwindToState$filt$0 0000000180053212 f   libvcruntime:frame.obj
 0001:00052228       __FrameUnwindToState$fin$1 0000000180053228 f   libvcruntime:frame.obj
 0001:0005224b       _CallSETranslator$filt$0   000000018005324b f   libvcruntime:trnsctrl.obj
 0001:00052297       ?fin$0@?0???$?RV<lambda_7b91131dde12e1c3dfc74ff76b3f2eac>@@AEAV<lambda_dd75445284c072d0bd3768540cc698fa>@@V<lambda_16bc4ecb55b4718497c16bceaea2ceaf>@@@?$__crt_seh_guarded_call@H@@QEAAH$$QEAV<lambda_7b91131dde12e1c3dfc74ff76b3f2eac>@@AEAV<lambda_dd75445284c072d0bd3768540cc698fa>@@$$QEAV<lambda_16bc4ecb55b4718497c16bceaea2ceaf>@@@Z@4HA 0000000180053297 f   libucrt:output.obj
 0001:00052297       ?fin$0@?0???$?RV<lambda_7a5ef57ff966f610505f1d28a3d40618>@@AEAV<lambda_b721fa326cdb32351d23dfa67958c160>@@V<lambda_5e0fb27672408a07956fe59e48ccb2aa>@@@?$__crt_seh_guarded_call@H@@QEAAH$$QEAV<lambda_7a5ef57ff966f610505f1d28a3d40618>@@AEAV<lambda_b721fa326cdb32351d23dfa67958c160>@@$$QEAV<lambda_5e0fb27672408a07956fe59e48ccb2aa>@@@Z@4HA 0000000180053297 f   libucrt:setvbuf.obj
 0001:000522b2       setlocale$fin$0            00000001800532b2 f   libucrt:setlocale.obj
 0001:000522cd       _query_new_handler$fin$0   00000001800532cd f   libucrt:new_handler.obj
 0001:000522e3       ?filt$0@?0??common_exit@@YAXHW4_crt_exit_cleanup_mode@@W4_crt_exit_return_mode@@@Z@4HA 00000001800532e3 f   libucrt:exit.obj
 0001:000522fe       ?fin$1@?0??common_exit@@YAXHW4_crt_exit_cleanup_mode@@W4_crt_exit_return_mode@@@Z@4HA 00000001800532fe f   libucrt:exit.obj
 0001:00052317       ?fin$0@?0???$?RV<lambda_e24bbb7b643b32fcea6fa61b31d4c984>@@AEAV<lambda_275893d493268fdec8709772e3fcec0e>@@V<lambda_9d71df4d7cf3f480f8d633942495c3b0>@@@?$__crt_seh_guarded_call@H@@QEAAH$$QEAV<lambda_e24bbb7b643b32fcea6fa61b31d4c984>@@AEAV<lambda_275893d493268fdec8709772e3fcec0e>@@$$QEAV<lambda_9d71df4d7cf3f480f8d633942495c3b0>@@@Z@4HA 0000000180053317 f   libucrt:onexit.obj
 0001:00052334       raise$fin$0                0000000180053334 f   libucrt:signal.obj
 0001:00052358       ?fin$0@?0???$?RV<lambda_5df02c53a8f32f81fd64e5bbb78039f1>@@AEAV<lambda_2af78c5f5901b1372d98f9ab3177dfa6>@@AEAV<lambda_f51fe5fd7c79a33db34fc9310f277369>@@@?$__crt_seh_guarded_call@X@@QEAAX$$QEAV<lambda_5df02c53a8f32f81fd64e5bbb78039f1>@@AEAV<lambda_2af78c5f5901b1372d98f9ab3177dfa6>@@AEAV<lambda_f51fe5fd7c79a33db34fc9310f277369>@@@Z@4HA 0000000180053358 f   libucrt:wsetlocale.obj
 0001:00052379       __acrt_lowio_ensure_fh_exists$fin$0 0000000180053379 f   libucrt:osfinfo.obj
 0001:00052379       __acrt_initialize_lowio$fin$0 0000000180053379 f   libucrt:ioinit.obj
 0001:00052392       common_control87$filt$0    0000000180053392 f   libucrt:ieee.obj
 0001:00052392       _ctrlfp$filt$0             0000000180053392 f   libucrt:fpctrl.obj
 0001:000523be       common_flush_all$fin$0     00000001800533be f   libucrt:fflush.obj
 0001:000523d8       common_flush_all$fin$1     00000001800533d8 f   libucrt:fflush.obj
 0001:000523f1       fclose$fin$0               00000001800533f1 f   libucrt:fclose.obj
 0001:000523f1       fflush$fin$0               00000001800533f1 f   libucrt:fflush.obj
 0001:00052409       ?fin$0@?0???$?RV<lambda_fb3a7dec4e47f37f22dae91bb15c9095>@@AEAV<lambda_698284760c8add0bfb0756c19673e34b>@@V<lambda_dfb8eca1e75fef3034a8fb18dd509707>@@@?$__crt_seh_guarded_call@X@@QEAAX$$QEAV<lambda_fb3a7dec4e47f37f22dae91bb15c9095>@@AEAV<lambda_698284760c8add0bfb0756c19673e34b>@@$$QEAV<lambda_dfb8eca1e75fef3034a8fb18dd509707>@@@Z@4HA 0000000180053409 f   libucrt:per_thread_data.obj
 0001:00052409       ?fin$0@?0???$?RV<lambda_72d1df2b273a38828b1ce30cbf4cdab5>@@AEAV<lambda_876a65b173b8412d3a47c70a915b0cf4>@@V<lambda_41932305e351933ebe8f8be3ed8bb5dc>@@@?$__crt_seh_guarded_call@X@@QEAAX$$QEAV<lambda_72d1df2b273a38828b1ce30cbf4cdab5>@@AEAV<lambda_876a65b173b8412d3a47c70a915b0cf4>@@$$QEAV<lambda_41932305e351933ebe8f8be3ed8bb5dc>@@@Z@4HA 0000000180053409 f   libucrt:per_thread_data.obj
 0001:00052409       ?fin$0@?0???$?RV<lambda_630b2aca97f6d20d5b5ea6529ea6b6af>@@AEAV<lambda_af91936f1d075d609f72d9d8cba980af>@@V<lambda_e82fa975f615b5c7c7b0e4d178fdae67>@@@?$__crt_seh_guarded_call@H@@QEAAH$$QEAV<lambda_630b2aca97f6d20d5b5ea6529ea6b6af>@@AEAV<lambda_af91936f1d075d609f72d9d8cba980af>@@$$QEAV<lambda_e82fa975f615b5c7c7b0e4d178fdae67>@@@Z@4HA 0000000180053409 f   libucrt:winapi_thunks.obj
 0001:00052409       ?fin$0@?0???$?RV<lambda_b8c45f8f788dd370798f47cfe8ac3a86>@@AEAV<lambda_4e60a939b0d047cfe11ddc22648dfba9>@@V<lambda_332c3edc96d0294ec56c57d38c1cdfd5>@@@?$__crt_seh_guarded_call@H@@QEAAH$$QEAV<lambda_b8c45f8f788dd370798f47cfe8ac3a86>@@AEAV<lambda_4e60a939b0d047cfe11ddc22648dfba9>@@$$QEAV<lambda_332c3edc96d0294ec56c57d38c1cdfd5>@@@Z@4HA 0000000180053409 f   libucrt:onexit.obj
 0001:00052409       ?fin$0@?0???$?RV<lambda_d67e8342c384adda8f857579ab50b2ae>@@AEAV<lambda_30712929f77e709619002f448b6a9510>@@V<lambda_4525336fd7e478d965fb7ca7a337cad8>@@@?$__crt_seh_guarded_call@X@@QEAAX$$QEAV<lambda_d67e8342c384adda8f857579ab50b2ae>@@AEAV<lambda_30712929f77e709619002f448b6a9510>@@$$QEAV<lambda_4525336fd7e478d965fb7ca7a337cad8>@@@Z@4HA 0000000180053409 f   libucrt:wsetlocale.obj
 0001:00052409       ?fin$0@?0???$?RV<lambda_c36588078e9f5dfd39652860aa6b3aaf>@@AEAV<lambda_ec61778202f4f5fc7e7711acc23c3bca>@@V<lambda_dc9d2797ccde5d239b4a0efae8ebd7db>@@@?$__crt_seh_guarded_call@P6AXH@Z@@QEAAP6AXH@Z$$QEAV<lambda_c36588078e9f5dfd39652860aa6b3aaf>@@AEAV<lambda_ec61778202f4f5fc7e7711acc23c3bca>@@$$QEAV<lambda_dc9d2797ccde5d239b4a0efae8ebd7db>@@@Z@4HA 0000000180053409 f   libucrt:signal.obj
 0001:00052409       ?fin$0@?0???$?RV<lambda_99476a1ad63dd22509b5d3e65b0ffc95>@@AEAV<lambda_ad1ced32f4ac17aa236e5ef05d6b3b7c>@@V<lambda_f7424dd8d45958661754dc4f2697e9c3>@@@?$__crt_seh_guarded_call@X@@QEAAX$$QEAV<lambda_99476a1ad63dd22509b5d3e65b0ffc95>@@AEAV<lambda_ad1ced32f4ac17aa236e5ef05d6b3b7c>@@$$QEAV<lambda_f7424dd8d45958661754dc4f2697e9c3>@@@Z@4HA 0000000180053409 f   libucrt:mbctype.obj
 0001:00052409       ?fin$0@?0???$?RV<lambda_46352004c1216016012b18bd6f87e700>@@AEAV<lambda_3bd07e1a1191394380780325891bf33f>@@V<lambda_334532d3f185bcaa59b5be82d7d22bff>@@@?$__crt_seh_guarded_call@X@@QEAAX$$QEAV<lambda_46352004c1216016012b18bd6f87e700>@@AEAV<lambda_3bd07e1a1191394380780325891bf33f>@@$$QEAV<lambda_334532d3f185bcaa59b5be82d7d22bff>@@@Z@4HA 0000000180053409 f   libucrt:per_thread_data.obj
 0001:00052409       ?fin$0@?0???$?RV<lambda_5e887d1dcbef67a5eb4283622ba103bf>@@AEAV<lambda_4466841279450cc726390878d4a41900>@@V<lambda_341c25c0346d94847f1f3c463c57e077>@@@?$__crt_seh_guarded_call@X@@QEAAX$$QEAV<lambda_5e887d1dcbef67a5eb4283622ba103bf>@@AEAV<lambda_4466841279450cc726390878d4a41900>@@$$QEAV<lambda_341c25c0346d94847f1f3c463c57e077>@@@Z@4HA 0000000180053409 f   libucrt:per_thread_data.obj
 0001:00052423       __acrt_update_thread_multibyte_data$fin$0 0000000180053423 f   libucrt:mbctype.obj
 0001:0005243c       __acrt_uninitialize_locale$fin$0 000000018005343c f   libucrt:wsetlocale.obj
 0001:0005243c       __acrt_update_thread_locale_data$fin$0 000000018005343c f   libucrt:locale_refcounting.obj
 0001:00052455       _fcloseall$fin$0           0000000180053455 f   libucrt:closeall.obj
 0001:0005246e       ?fin$0@?0???$common_lseek@_J@@YA_JH_JH@Z@4HA 000000018005346e f   libucrt:lseek.obj
 0001:0005246e       _write$fin$0               000000018005346e f   libucrt:write.obj
 0001:00052485       ?fin$0@?0???$?RV<lambda_bfedae4ebbf01fab1bb6dcc6a9e276e0>@@AEAV<lambda_2fe9b910cf3cbf4a0ab98a02ba45b3ec>@@V<lambda_237c231691f317818eb88cc1d5d642d6>@@@?$__crt_seh_guarded_call@H@@QEAAH$$QEAV<lambda_bfedae4ebbf01fab1bb6dcc6a9e276e0>@@AEAV<lambda_2fe9b910cf3cbf4a0ab98a02ba45b3ec>@@$$QEAV<lambda_237c231691f317818eb88cc1d5d642d6>@@@Z@4HA 0000000180053485 f   libucrt:close.obj
 0001:00052485       ?fin$0@?0???$?RV<lambda_b521505b218e5242e90febf6bfebc422>@@AEAV<lambda_6978c1fb23f02e42e1d9e99668cc68aa>@@V<lambda_314360699dd331753a4119843814e9a7>@@@?$__crt_seh_guarded_call@H@@QEAAH$$QEAV<lambda_b521505b218e5242e90febf6bfebc422>@@AEAV<lambda_6978c1fb23f02e42e1d9e99668cc68aa>@@$$QEAV<lambda_314360699dd331753a4119843814e9a7>@@@Z@4HA 0000000180053485 f   libucrt:commit.obj
 0001:000524a0       _IsNonwritableInCurrentImage$filt$0 00000001800534a0 f   LIBCMT:pesect.obj
 0001:000524c4       ??__Finitlocks@std@@YAXXZ  00000001800534c4 f   libcpmt:xlock.obj
 0001:000524d0       ??__F_Fac_tidy_reg@std@@YAXXZ 00000001800534d0 f   libcpmt:locale0.obj
 0001:000524fc       ??__Fclassic_locale@std@@YAXXZ 00000001800534fc f   libcpmt:locale0.obj
 0001:0005255c       ??__Finit_atexit@@YAXXZ    000000018005355c f   libcpmt:iosptrs.obj
 0001:000525b0       ??__Finitlocks@std@@YAXXZ  00000001800535b0 f   libcpmt:iosptrs.obj
 0002:00000810       ?initlocks$initializer$@std@@3P6AXXZEA 0000000180054810     libcpmt:xlock.obj
 0002:00000818       ?initlocks$initializer$@std@@3P6AXXZEA 0000000180054818     libcpmt:iosptrs.obj
 0002:00000820       ?init_atexit$initializer$@@3P6AXXZEA 0000000180054820     libcpmt:iosptrs.obj
 0002:00000828       ?_Fac_tidy_reg$initializer$@std@@3P6AXXZEA 0000000180054828     libcpmt:locale0.obj
 0002:00000830       ?classic_locale$initializer$@std@@3P6AXXZEA 0000000180054830     libcpmt:locale0.obj
 0002:00000850       ?pinit@@3P6AHXZEA          0000000180054850     libcpmt:winapisupp.obj
 0002:00000858       ?__scrt_initialize_tss_var@@3P6AHXZEA 0000000180054858     LIBCMT:thread_safe_statics.obj
 0002:000008e0       $cppxdata$??_G_Fac_node@std@@QEAAPEAXI@Z 00000001800548e0     libcpmt:locale0.obj
 0002:00000908       $cppxdata$?_Locimp_dtor@_Locimp@locale@std@@CAXPEAV123@@Z 0000000180054908     libcpmt:locale0.obj
 0002:00000930       $cppxdata$??_G_Locimp@locale@std@@MEAAPEAXI@Z 0000000180054930     libcpmt:locale0.obj
 0002:00000958       $cppxdata$?_Init@locale@std@@CAPEAV_Locimp@12@_N@Z 0000000180054958     libcpmt:locale0.obj
 0002:00000980       $cppxdata$??__Fclassic_locale@std@@YAXXZ 0000000180054980     libcpmt:locale0.obj
 0002:00000ab0       ?_Win_errtab@std@@3QBU_Win_errtab_t@1@B 0000000180054ab0     libcpmt:syserror.obj
 0002:00000d00       ?_Sys_errtab@std@@3QBU_Sys_errtab_t@1@B 0000000180054d00     libcpmt:syserror.obj
 0002:000018a0       $cppxdata$??__Finit_atexit@@YAXXZ 00000001800558a0     libcpmt:iosptrs.obj
 0002:00001de0       digits                     0000000180055de0     libcpmt:xstoul.obj
 0002:00001e08       ndigs                      0000000180055e08     libcpmt:xstoul.obj
 0002:00001e30       digits                     0000000180055e30     libcpmt:xstoull.obj
 0002:00001e58       ndigs                      0000000180055e58     libcpmt:xstoull.obj
 0002:000024b0       ?LcidToLocaleNameTable@@3QBULcidToLocaleName@@B 00000001800564b0     libcpmt:winapinls.obj
 0002:000032f0       ?LocaleNameToIndexTable@@3QBULocaleNameIndex@@B 00000001800572f0     libcpmt:winapinls.obj
 0002:000051d8       GS_ExceptionPointers       00000001800591d8     LIBCMT:gs_report.obj
 0002:00005250       ?ExceptionTemplate@?1??_UnwindNestedFrames@@9@4U_EXCEPTION_RECORD@@B 0000000180059250     libvcruntime:trnsctrl.obj
 0002:000052f0       ?ExceptionTemplate@?1??_CxxThrowException@@9@4UEHExceptionRecord@@B 00000001800592f0     libvcruntime:throw.obj
 0002:00005330       ?module_names@?A0x679b24ab@@3QBQEB_WB 0000000180059330     libvcruntime:winapi_downlevel.obj
 0002:00005400       ?candidate_modules@?1??try_get_FlsAlloc@@YAP6AKP6AXPEAX@Z@ZXZ@4QBW4module_id@?A0x679b24ab@@B 0000000180059400     libvcruntime:winapi_downlevel.obj
 0002:00005408       ?candidate_modules@?1??try_get_FlsFree@@YAP6AHK@ZXZ@4QBW4module_id@?A0x679b24ab@@B 0000000180059408     libvcruntime:winapi_downlevel.obj
 0002:00005410       ?candidate_modules@?1??try_get_FlsGetValue@@YAP6APEAXK@ZXZ@4QBW4module_id@?A0x679b24ab@@B 0000000180059410     libvcruntime:winapi_downlevel.obj
 0002:00005418       ?candidate_modules@?1??try_get_FlsSetValue@@YAP6AHKPEAX@ZXZ@4QBW4module_id@?A0x679b24ab@@B 0000000180059418     libvcruntime:winapi_downlevel.obj
 0002:00005420       ?candidate_modules@?1??try_get_InitializeCriticalSectionEx@@YAP6AHPEAU_RTL_CRITICAL_SECTION@@KK@ZXZ@4QBW4module_id@?A0x679b24ab@@B 0000000180059420     libvcruntime:winapi_downlevel.obj
 0002:00005430       ?tokenTable@@3QBQEBDB      0000000180059430     libvcruntime:undname.obj
 0002:000054a0       ?nameTable@@3QBQEBDB       00000001800594a0     libvcruntime:undname.obj
 0002:00005728       ?rttiTable@@3QBQEBDB       0000000180059728     libvcruntime:undname.obj
 0002:00006980       errtable                   000000018005a980     libucrt:errno.obj
 0002:000074c0       __flag_x_one_y_snan        000000018005b4c0     libucrt:pow.obj
 0002:000074c4       __flag_x_zero_z_inf        000000018005b4c4     libucrt:pow.obj
 0002:000074c8       __flag_x_nan               000000018005b4c8     libucrt:pow.obj
 0002:000074cc       __flag_y_nan               000000018005b4cc     libucrt:pow.obj
 0002:000074d0       __flag_x_nan_y_nan         000000018005b4d0     libucrt:pow.obj
 0002:000074d4       __flag_x_neg_y_notint      000000018005b4d4     libucrt:pow.obj
 0002:000074d8       __flag_z_zero              000000018005b4d8     libucrt:pow.obj
 0002:000074dc       __flag_z_denormal          000000018005b4dc     libucrt:pow.obj
 0002:000074e0       __flag_z_inf               000000018005b4e0     libucrt:pow.obj
 0002:000074f0       __ay_max_bound             000000018005b4f0     libucrt:pow.obj
 0002:000074f8       __ay_min_bound             000000018005b4f8     libucrt:pow.obj
 0002:00007500       __sign_mask                000000018005b500     libucrt:pow.obj
 0002:00007508       __sign_and_exp_mask        000000018005b508     libucrt:pow.obj
 0002:00007510       __exp_mask                 000000018005b510     libucrt:pow.obj
 0002:00007518       __neg_inf                  000000018005b518     libucrt:pow.obj
 0002:00007520       __pos_inf                  000000018005b520     libucrt:pow.obj
 0002:00007528       __pos_one                  000000018005b528     libucrt:pow.obj
 0002:00007530       __pos_zero                 000000018005b530     libucrt:pow.obj
 0002:00007538       __exp_mant_mask            000000018005b538     libucrt:pow.obj
 0002:00007540       __mant_mask                000000018005b540     libucrt:pow.obj
 0002:00007548       __ind_pattern              000000018005b548     libucrt:pow.obj
 0002:00007550       __neg_qnan                 000000018005b550     libucrt:pow.obj
 0002:00007558       __qnan                     000000018005b558     libucrt:pow.obj
 0002:00007560       __qnan_set                 000000018005b560     libucrt:pow.obj
 0002:00007568       __neg_one                  000000018005b568     libucrt:pow.obj
 0002:00007570       __neg_zero                 000000018005b570     libucrt:pow.obj
 0002:00007578       __exp_shift                000000018005b578     libucrt:pow.obj
 0002:00007580       __exp_bias                 000000018005b580     libucrt:pow.obj
 0002:00007588       __exp_bias_m1              000000018005b588     libucrt:pow.obj
 0002:00007590       __yexp_53                  000000018005b590     libucrt:pow.obj
 0002:00007598       __mant_full                000000018005b598     libucrt:pow.obj
 0002:000075a0       __1_before_mant            000000018005b5a0     libucrt:pow.obj
 0002:000075a8       __mask_mant_all8           000000018005b5a8     libucrt:pow.obj
 0002:000075b0       __mask_mant9               000000018005b5b0     libucrt:pow.obj
 0002:000075c0       __real_fffffffff8000000    000000018005b5c0     libucrt:pow.obj
 0002:000075d0       __mask_8000000000000000    000000018005b5d0     libucrt:pow.obj
 0002:000075e0       __real_4090040000000000    000000018005b5e0     libucrt:pow.obj
 0002:000075f0       __real_C090C80000000000    000000018005b5f0     libucrt:pow.obj
 0002:00007600       __real_ninf                000000018005b600     libucrt:pow.obj
 0002:00007610       __real_inf                 000000018005b610     libucrt:pow.obj
 0002:00007620       __real_nan                 000000018005b620     libucrt:pow.obj
 0002:00007630       __real_mant                000000018005b630     libucrt:pow.obj
 0002:00007640       __mask_1023                000000018005b640     libucrt:pow.obj
 0002:00007650       __mask_001                 000000018005b650     libucrt:pow.obj
 0002:00007660       __real_log2_lead           000000018005b660     libucrt:pow.obj
 0002:00007670       __real_log2_tail           000000018005b670     libucrt:pow.obj
 0002:00007680       __real_two                 000000018005b680     libucrt:pow.obj
 0002:00007690       __real_one                 000000018005b690     libucrt:pow.obj
 0002:000076a0       __real_half                000000018005b6a0     libucrt:pow.obj
 0002:000076b0       __mask_100                 000000018005b6b0     libucrt:pow.obj
 0002:000076c0       __real_1_over_2            000000018005b6c0     libucrt:pow.obj
 0002:000076d0       __real_1_over_3            000000018005b6d0     libucrt:pow.obj
 0002:000076e0       __real_1_over_4            000000018005b6e0     libucrt:pow.obj
 0002:000076f0       __real_1_over_5            000000018005b6f0     libucrt:pow.obj
 0002:00007700       __real_1_over_6            000000018005b700     libucrt:pow.obj
 0002:00007710       __real_1_over_7            000000018005b710     libucrt:pow.obj
 0002:00007720       __mask_1023_f              000000018005b720     libucrt:pow.obj
 0002:00007730       __mask_2045                000000018005b730     libucrt:pow.obj
 0002:00007740       __real_threshold           000000018005b740     libucrt:pow.obj
 0002:00007750       __real_notsign             000000018005b750     libucrt:pow.obj
 0002:00007760       __log_F_inv_head           000000018005b760     libucrt:pow.obj
 0002:00007f70       __log_F_inv_tail           000000018005bf70     libucrt:pow.obj
 0002:00008780       __denormal_threshold       000000018005c780     libucrt:pow.obj
 0002:00008790       __enable_almost_inf        000000018005c790     libucrt:pow.obj
 0002:000087a0       __real_zero                000000018005c7a0     libucrt:pow.obj
 0002:000087b0       __real_smallest_denormal   000000018005c7b0     libucrt:pow.obj
 0002:000087c0       __denormal_tiny_threshold  000000018005c7c0     libucrt:pow.obj
 0002:000087d0       __real_p65536              000000018005c7d0     libucrt:pow.obj
 0002:000087e0       __real_m68800              000000018005c7e0     libucrt:pow.obj
 0002:000087f0       __real_64_by_log2          000000018005c7f0     libucrt:pow.obj
 0002:00008800       __real_log2_by_64_head     000000018005c800     libucrt:pow.obj
 0002:00008810       __real_log2_by_64_tail     000000018005c810     libucrt:pow.obj
 0002:00008820       __real_1_by_720            000000018005c820     libucrt:pow.obj
 0002:00008830       __real_1_by_120            000000018005c830     libucrt:pow.obj
 0002:00008840       __real_1_by_24             000000018005c840     libucrt:pow.obj
 0002:00008850       __real_1_by_6              000000018005c850     libucrt:pow.obj
 0002:00008860       __real_1_by_2              000000018005c860     libucrt:pow.obj
 0002:00008870       __flag_x_one_y_snan        000000018005c870     libucrt:powf.obj
 0002:00008874       __flag_x_zero_z_inf        000000018005c874     libucrt:powf.obj
 0002:00008878       __flag_x_nan               000000018005c878     libucrt:powf.obj
 0002:0000887c       __flag_y_nan               000000018005c87c     libucrt:powf.obj
 0002:00008880       __flag_x_nan_y_nan         000000018005c880     libucrt:powf.obj
 0002:00008884       __flag_x_neg_y_notint      000000018005c884     libucrt:powf.obj
 0002:00008888       __flag_z_zero              000000018005c888     libucrt:powf.obj
 0002:0000888c       __flag_z_denormal          000000018005c88c     libucrt:powf.obj
 0002:00008890       __flag_z_inf               000000018005c890     libucrt:powf.obj
 0002:00008894       L__1_by_3                  000000018005c894     libucrt:powf.obj
 0002:0000889c       L__log2                    000000018005c89c     libucrt:powf.obj
 0002:000088a4       L__max_exp_arg             000000018005c8a4     libucrt:powf.obj
 0002:000088ac       L__min_exp_arg             000000018005c8ac     libucrt:powf.obj
 0002:000088b4       L__real_log2_by_64         000000018005c8b4     libucrt:powf.obj
 0002:000088bc       L__1_by_6                  000000018005c8bc     libucrt:powf.obj
 0002:000088c4       L__real_threshold          000000018005c8c4     libucrt:powf.obj
 0002:000088cc       L__real_one                000000018005c8cc     libucrt:powf.obj
 0002:000088d4       L__real_two                000000018005c8d4     libucrt:powf.obj
 0002:000088dc       L__neg_zero                000000018005c8dc     libucrt:powf.obj
 0002:000088f0       L__real_ca42               000000018005c8f0     libucrt:powf.obj
 0002:000088f8       L__real_ca4                000000018005c8f8     libucrt:powf.obj
 0002:00008900       L__real_ca31               000000018005c900     libucrt:powf.obj
 0002:00008908       L__real_ca3                000000018005c908     libucrt:powf.obj
 0002:00008910       L__clear_sign              000000018005c910     libucrt:powf.obj
 0002:00008920       L__real_64_by_log2         000000018005c920     libucrt:powf.obj
 0002:00008930       L__1_by_2                  000000018005c930     libucrt:powf.obj
 0002:00008940       L__1023                    000000018005c940     libucrt:powf.obj
 0002:00008950       L__xexp_bits_xmantissa_bits 000000018005c950     libucrt:powf.obj
 0002:00009270       __acrt_initializers        000000018005d270     libucrt:initialization.obj
 0002:000094d0       _first_127char             000000018005d4d0     libucrt:wsetlocale.obj
 0002:00009bf0       ?_names@?1??_get_fname@@9@9 000000018005dbf0     libucrt:fpexcept.obj
 0002:00009ea0       module_names               000000018005dea0     libucrt:winapi_thunks.obj
 0002:0000a3d0       ?candidate_modules@?1??try_get_CompareStringEx@@YAP6AHPEB_WK0H0HPEAU_nlsversioninfo@@PEAX_J@ZXZ@4QBW4module_id@?A0x63058377@@B 000000018005e3d0     libucrt:winapi_thunks.obj
 0002:0000a3d8       ?candidate_modules@?1??try_get_EnumSystemLocalesEx@@YAP6AHP6AHPEA_WK_J@ZK1PEAX@ZXZ@4QBW4module_id@?A0x63058377@@B 000000018005e3d8     libucrt:winapi_thunks.obj
 0002:0000a3f8       ?candidate_modules@?1??try_get_FlsAlloc@@YAP6AKP6AXPEAX@Z@ZXZ@4QBW4module_id@?A0x63058377@@B 000000018005e3f8     libucrt:winapi_thunks.obj
 0002:0000a400       ?candidate_modules@?1??try_get_FlsFree@@YAP6AHK@ZXZ@4QBW4module_id@?A0x63058377@@B 000000018005e400     libucrt:winapi_thunks.obj
 0002:0000a408       ?candidate_modules@?1??try_get_FlsGetValue@@YAP6APEAXK@ZXZ@4QBW4module_id@?A0x63058377@@B 000000018005e408     libucrt:winapi_thunks.obj
 0002:0000a410       ?candidate_modules@?1??try_get_FlsSetValue@@YAP6AHKPEAX@ZXZ@4QBW4module_id@?A0x63058377@@B 000000018005e410     libucrt:winapi_thunks.obj
 0002:0000a418       ?candidate_modules@?1??try_get_GetActiveWindow@@YAP6APEAUHWND__@@XZXZ@4QBW4module_id@?A0x63058377@@B 000000018005e418     libucrt:winapi_thunks.obj
 0002:0000a430       ?candidate_modules@?1??try_get_GetCurrentPackageId@@YAP6AJPEAIPEAE@ZXZ@4QBW4module_id@?A0x63058377@@B 000000018005e430     libucrt:winapi_thunks.obj
 0002:0000a438       ?candidate_modules@?1??try_get_GetLastActivePopup@@YAP6APEAUHWND__@@PEAU2@@ZXZ@4QBW4module_id@?A0x63058377@@B 000000018005e438     libucrt:winapi_thunks.obj
 0002:0000a458       ?candidate_modules@?1??try_get_GetLocaleInfoEx@@YAP6AHPEB_WKPEA_WH@ZXZ@4QBW4module_id@?A0x63058377@@B 000000018005e458     libucrt:winapi_thunks.obj
 0002:0000a460       ?candidate_modules@?1??try_get_GetProcessWindowStation@@YAP6APEAUHWINSTA__@@XZXZ@4QBW4module_id@?A0x63058377@@B 000000018005e460     libucrt:winapi_thunks.obj
 0002:0000a480       ?candidate_modules@?1??try_get_GetUserDefaultLocaleName@@YAP6AHPEA_WH@ZXZ@4QBW4module_id@?A0x63058377@@B 000000018005e480     libucrt:winapi_thunks.obj
 0002:0000a4a8       ?candidate_modules@?1??try_get_GetUserObjectInformationW@@YAP6AHPEAXH0KPEAK@ZXZ@4QBW4module_id@?A0x63058377@@B 000000018005e4a8     libucrt:winapi_thunks.obj
 0002:0000a4d0       ?candidate_modules@?1??try_get_InitializeCriticalSectionEx@@YAP6AHPEAU_RTL_CRITICAL_SECTION@@KK@ZXZ@4QBW4module_id@?A0x63058377@@B 000000018005e4d0     libucrt:winapi_thunks.obj
 0002:0000a4d8       ?candidate_modules@?1??try_get_IsValidLocaleName@@YAP6AHPEB_W@ZXZ@4QBW4module_id@?A0x63058377@@B 000000018005e4d8     libucrt:winapi_thunks.obj
 0002:0000a4f8       ?candidate_modules@?1??try_get_LCMapStringEx@@YAP6AHPEB_WK0HPEA_WHPEAU_nlsversioninfo@@PEAX_J@ZXZ@4QBW4module_id@?A0x63058377@@B 000000018005e4f8     libucrt:winapi_thunks.obj
 0002:0000a500       ?candidate_modules@?1??try_get_LCIDToLocaleName@@YAP6AHKPEA_WHK@ZXZ@4QBW4module_id@?A0x63058377@@B 000000018005e500     libucrt:winapi_thunks.obj
 0002:0000a520       ?candidate_modules@?1??try_get_LocaleNameToLCID@@YAP6AKPEB_WK@ZXZ@4QBW4module_id@?A0x63058377@@B 000000018005e520     libucrt:winapi_thunks.obj
 0002:0000a540       ?candidate_modules@?1??try_get_MessageBoxA@@YAP6AHPEAUHWND__@@PEBD1I@ZXZ@4QBW4module_id@?A0x63058377@@B 000000018005e540     libucrt:winapi_thunks.obj
 0002:0000a558       ?candidate_modules@?1??try_get_MessageBoxW@@YAP6AHPEAUHWND__@@PEB_W1I@ZXZ@4QBW4module_id@?A0x63058377@@B 000000018005e558     libucrt:winapi_thunks.obj
 0002:0000c3b0       _mb_locale_names           00000001800603b0     libucrt:mbctype.obj
 0002:0000d3d0       __real@433fffffffffffff    00000001800613d0     libucrt:fpsr.obj
 0002:0000d3d8       __real@c33fffffffffffff    00000001800613d8     libucrt:fpsr.obj
 0002:0000d3e0       LcidToLocaleNameTable      00000001800613e0     libucrt:lcidtoname_downlevel.obj
 0002:0000e220       LocaleNameToIndexTable     0000000180062220     libucrt:lcidtoname_downlevel.obj
 0002:0000f060       __real_ninf                0000000180063060     libucrt:log10.obj
 0002:0000f070       __real_inf                 0000000180063070     libucrt:log10.obj
 0002:0000f080       __real_neg_qnan            0000000180063080     libucrt:log10.obj
 0002:0000f090       __real_qnanbit             0000000180063090     libucrt:log10.obj
 0002:0000f0a0       __int_1023                 00000001800630a0     libucrt:log10.obj
 0002:0000f0b0       __mask_001                 00000001800630b0     libucrt:log10.obj
 0002:0000f0c0       __mask_mant                00000001800630c0     libucrt:log10.obj
 0002:0000f0d0       __mask_mant_top8           00000001800630d0     libucrt:log10.obj
 0002:0000f0e0       __mask_mant9               00000001800630e0     libucrt:log10.obj
 0002:0000f0f0       __real_log10_e             00000001800630f0     libucrt:log10.obj
 0002:0000f100       __real_log10_e_lead        0000000180063100     libucrt:log10.obj
 0002:0000f110       __real_log10_e_tail        0000000180063110     libucrt:log10.obj
 0002:0000f120       __real_log10_2_lead        0000000180063120     libucrt:log10.obj
 0002:0000f130       __real_log10_2_tail        0000000180063130     libucrt:log10.obj
 0002:0000f140       __real_two                 0000000180063140     libucrt:log10.obj
 0002:0000f150       __real_one                 0000000180063150     libucrt:log10.obj
 0002:0000f160       __real_half                0000000180063160     libucrt:log10.obj
 0002:0000f170       __mask_100                 0000000180063170     libucrt:log10.obj
 0002:0000f180       __real_1_over_512          0000000180063180     libucrt:log10.obj
 0002:0000f190       __real_1_over_2            0000000180063190     libucrt:log10.obj
 0002:0000f1a0       __real_1_over_3            00000001800631a0     libucrt:log10.obj
 0002:0000f1b0       __real_1_over_4            00000001800631b0     libucrt:log10.obj
 0002:0000f1c0       __real_1_over_5            00000001800631c0     libucrt:log10.obj
 0002:0000f1d0       __real_1_over_6            00000001800631d0     libucrt:log10.obj
 0002:0000f1e0       __real_neg_1023            00000001800631e0     libucrt:log10.obj
 0002:0000f1f0       __mask_2045                00000001800631f0     libucrt:log10.obj
 0002:0000f200       __real_threshold           0000000180063200     libucrt:log10.obj
 0002:0000f210       __real_near_one_lt         0000000180063210     libucrt:log10.obj
 0002:0000f220       __real_near_one_gt         0000000180063220     libucrt:log10.obj
 0002:0000f230       __real_min_norm            0000000180063230     libucrt:log10.obj
 0002:0000f240       __real_notsign             0000000180063240     libucrt:log10.obj
 0002:0000f250       __real_ca1                 0000000180063250     libucrt:log10.obj
 0002:0000f260       __real_ca2                 0000000180063260     libucrt:log10.obj
 0002:0000f270       __real_ca3                 0000000180063270     libucrt:log10.obj
 0002:0000f280       __real_ca4                 0000000180063280     libucrt:log10.obj
 0002:0000f290       __mask_lower               0000000180063290     libucrt:log10.obj
 0002:0000f2a0       __flag_x_zero              00000001800632a0     libucrt:log10.obj
 0002:0000f2a4       __flag_x_neg               00000001800632a4     libucrt:log10.obj
 0002:0000f2a8       __flag_x_nan               00000001800632a8     libucrt:log10.obj
 0002:00018840       $unwind$swprintf           000000018006c840     libucrt:assert.obj
 0002:00018840       $unwind$sprintf_s          000000018006c840     crypto_aead.obj
 0002:00018850       $unwind$__acrt_stdio_free_buffer_nolock 000000018006c850     libucrt:_freebuf.obj
 0002:00018850       $unwind$??0bad_array_new_length@std@@QEAA@AEBV01@@Z 000000018006c850     LIBCMT:throw_bad_alloc.obj
 0002:00018850       $unwind$__acrt_allocate_buffer_for_argv 000000018006c850     libucrt:argv_parsing.obj
 0002:00018850       $unwind$?__GetUnwindTryBlock@@YAHPEA_KPEAU_xDISPATCHER_CONTEXT@@PEBU_s_FuncInfo@@@Z 000000018006c850     libvcruntime:ehstate.obj
 0002:00018850       $unwind$_Getctype          000000018006c850     libcpmt:_tolower.obj
 0002:00018850       $unwind$??2@YAPEAX_K@Z     000000018006c850     LIBCMT:new_scalar.obj
 0002:00018850       $unwind$?_Facet_Register@std@@YAXPEAV_Facet_base@1@@Z 000000018006c850     libcpmt:locale0.obj
 0002:00018850       $unwind$_SetThrowImageBase 000000018006c850     libvcruntime:trnsctrl.obj
 0002:00018850       $unwind$??0out_of_range@std@@QEAA@AEBV01@@Z 000000018006c850     libcpmt:xthrow.obj
 0002:00018850       $unwind$__std_exception_destroy 000000018006c850     libvcruntime:std_exception.obj
 0002:00018850       $unwind$??0logic_error@std@@QEAA@AEBV01@@Z 000000018006c850     libcpmt:xthrow.obj
 0002:00018850       $unwind$?_Setgloballocale@locale@std@@CAXPEAX@Z 000000018006c850     libcpmt:locale0.obj
 0002:00018850       $unwind$?uflow@?$basic_streambuf@DU?$char_traits@D@std@@@std@@MEAAHXZ 000000018006c850     crypto_aead.obj
 0002:00018850       $unwind$?type_case_integer@?$output_processor@_WV?$string_output_adapter@_W@__crt_stdio_output@@V?$standard_base@_WV?$string_output_adapter@_W@__crt_stdio_output@@@2@@__crt_stdio_output@@AEAA_NI_N@Z 000000018006c850     libucrt:output.obj
 0002:00018850       $unwind$__acrt_stdio_allocate_buffer_nolock 000000018006c850     libucrt:_getbuf.obj
 0002:00018850       $unwind$??0bad_alloc@std@@QEAA@AEBV01@@Z 000000018006c850     libcpmt:xthrow.obj
 0002:00018850       $unwind$_clearfp           000000018006c850     libucrt:ieee.obj
 0002:00018850       $unwind$__acrt_uninitialize_locks 000000018006c850     libucrt:locks.obj
 0002:00018850       $unwind$?initialize_pointers@@YAHXZ 000000018006c850     libcpmt:winapisupp.obj
 0002:00018850       $unwind$??0length_error@std@@QEAA@AEBV01@@Z 000000018006c850     libcpmt:xthrow.obj
 0002:00018850       $unwind$__raise_securityfailure 000000018006c850     LIBCMT:gs_report.obj
 0002:00018850       $unwind$initialize_pointers 000000018006c850     libucrt:initialization.obj
 0002:00018850       $unwind$__acrt_uninitialize_stdio 000000018006c850     libucrt:_file.obj
 0002:00018850       $unwind$_Init_thread_notify 000000018006c850     LIBCMT:thread_safe_statics.obj
 0002:00018850       $unwind$??0?$output_processor@_WV?$stream_output_adapter@_W@__crt_stdio_output@@V?$standard_base@_WV?$stream_output_adapter@_W@__crt_stdio_output@@@2@@__crt_stdio_output@@QEAA@AEBV?$stream_output_adapter@_W@1@_KQEB_WQEAU__crt_locale_pointers@@QEAD@Z 000000018006c850     libucrt:output.obj
 0002:00018850       $unwind$__acrt_update_locale_info 000000018006c850     libucrt:locale_update.obj
 0002:00018850       $unwind$??0exception@std@@QEAA@AEBV01@@Z 000000018006c850     libcpmt:xthrow.obj
 0002:00018850       $unwind$__vcrt_freeptd     000000018006c850     libvcruntime:per_thread_data.obj
 0002:00018850       $unwind$__acrt_initialize_locks 000000018006c850     libucrt:locks.obj
 0002:00018850       $unwind$_Init_thread_footer 000000018006c850     LIBCMT:thread_safe_statics.obj
 0002:00018850       $unwind$uninitialize_allocated_memory 000000018006c850     libucrt:initialization.obj
 0002:00018850       $unwind$_CreateFrameInfo   000000018006c850     libvcruntime:trnsctrl.obj
 0002:00018850       $unwind$?load_exe_hook@@YAP6A_JXZIPEAUDelayLoadInfo@@@Z 000000018006c850     win_delay_load_hook.obj
 0002:00018850       $unwind$?_Ios_base_dtor@ios_base@std@@CAXPEAV12@@Z 000000018006c850     libcpmt:ios.obj
 0002:00018850       $unwind$__acrt_freeptd     000000018006c850     libucrt:per_thread_data.obj
 0002:00018850       $unwind$_IsExceptionObjectToBeDestroyed 000000018006c850     libvcruntime:trnsctrl.obj
 0002:00018850       $unwind$??0?$output_processor@_WV?$string_output_adapter@_W@__crt_stdio_output@@V?$standard_base@_WV?$string_output_adapter@_W@__crt_stdio_output@@@2@@__crt_stdio_output@@QEAA@AEBV?$string_output_adapter@_W@1@_KQEB_WQEAU__crt_locale_pointers@@QEAD@Z 000000018006c850     libucrt:output.obj
 0002:00018850       $unwind$?do_grouping@?$numpunct@D@std@@MEBA?AV?$basic_string@DU?$char_traits@D@std@@V?$allocator@D@2@@2@XZ 000000018006c850     crypto_aead.obj
 0002:00018850       $unwind$??0?$output_processor@DV?$string_output_adapter@D@__crt_stdio_output@@V?$format_validation_base@DV?$string_output_adapter@D@__crt_stdio_output@@@2@@__crt_stdio_output@@QEAA@AEBV?$string_output_adapter@D@1@_KQEBDQEAU__crt_locale_pointers@@QEAD@Z 000000018006c850     libucrt:output.obj
 0002:00018850       $unwind$_onexit            000000018006c850     LIBCMT:utility.obj
 0002:00018850       $unwind$?do_falsename@?$numpunct@D@std@@MEBA?AV?$basic_string@DU?$char_traits@D@std@@V?$allocator@D@2@@2@XZ 000000018006c850     crypto_aead.obj
 0002:00018850       $unwind$__scrt_release_startup_lock 000000018006c850     LIBCMT:utility.obj
 0002:00018850       $unwind$_SetImageBase      000000018006c850     libvcruntime:trnsctrl.obj
 0002:00018850       $unwind$__scrt_initialize_crt 000000018006c850     LIBCMT:utility.obj
 0002:00018850       $unwind$__scrt_uninitialize_crt 000000018006c850     LIBCMT:utility.obj
 0002:00018850       $unwind$?state_case_normal@?$output_processor@DV?$string_output_adapter@D@__crt_stdio_output@@V?$format_validation_base@DV?$string_output_adapter@D@__crt_stdio_output@@@2@@__crt_stdio_output@@AEAA_NXZ 000000018006c850     libucrt:output.obj
 0002:00018850       $unwind$__vcrt_initialize_locks 000000018006c850     libvcruntime:locks.obj
 0002:00018850       $unwind$?do_truename@?$numpunct@D@std@@MEBA?AV?$basic_string@DU?$char_traits@D@std@@V?$allocator@D@2@@2@XZ 000000018006c850     crypto_aead.obj
 0002:00018850       $unwind$__acrt_update_multibyte_info 000000018006c850     libucrt:locale_update.obj
 0002:00018850       $unwind$__vcrt_uninitialize_locks 000000018006c850     libvcruntime:locks.obj
 0002:00018850       $unwind$??0_Lockit@std@@QEAA@H@Z 000000018006c850     libcpmt:xlock.obj
 0002:00018850       $unwind$?exit_or_terminate_process@@YAXI@Z 000000018006c850     libucrt:exit.obj
 0002:00018850       $unwind$??_G?$num_put@DV?$ostreambuf_iterator@DU?$char_traits@D@std@@@std@@@std@@MEAAPEAXI@Z 000000018006c850     crypto_aead.obj
 0002:00018850       $unwind$strcpy_s           000000018006c850     libucrt:strcpy_s.obj
 0002:00018850       $unwind$?type_case_integer@?$output_processor@_WV?$stream_output_adapter@_W@__crt_stdio_output@@V?$standard_base@_WV?$stream_output_adapter@_W@__crt_stdio_output@@@2@@__crt_stdio_output@@AEAA_NI_N@Z 000000018006c850     libucrt:output.obj
 0002:00018850       $unwind$?DloadReleaseSectionWriteAccess@@YAXXZ 000000018006c850     DelayImp:delayhlp.obj
 0002:00018850       $unwind$?_Tidy@?$basic_stringbuf@DU?$char_traits@D@std@@V?$allocator@D@2@@std@@IEAAXXZ 000000018006c850     crypto_aead.obj
 0002:00018850       $unwind$?__StateFromIp@@YAHPEBU_s_FuncInfo@@PEAU_xDISPATCHER_CONTEXT@@_J@Z 000000018006c850     libvcruntime:ehstate.obj
 0002:00018850       $unwind$_Init_thread_header 000000018006c850     LIBCMT:thread_safe_statics.obj
 0002:00018850       $unwind$_setfpstatusword   000000018006c850     libucrt:_fenvutils.obj
 0002:00018850       $unwind$fesetenv           000000018006c850     libucrt:fesetenv.obj
 0002:00018850       $unwind$??_Gexception@stdext@@UEAAPEAXI@Z 000000018006c850     crypto_aead.obj
 0002:00018850       $unwind$??$message_box_wait_thread@_W@@YAKQEAX@Z 000000018006c850     libucrt:crtmbox.obj
 0002:00018850       $unwind$??_Gruntime_error@std@@UEAAPEAXI@Z 000000018006c850     crypto_aead.obj
 0002:00018850       $unwind$?type_case_integer@?$output_processor@DV?$string_output_adapter@D@__crt_stdio_output@@V?$format_validation_base@DV?$string_output_adapter@D@__crt_stdio_output@@@2@@__crt_stdio_output@@AEAA_NI_N@Z 000000018006c850     libucrt:output.obj
 0002:00018850       $unwind$__std_type_info_destroy_list 000000018006c850     libvcruntime:std_type_info.obj
 0002:00018850       $unwind$??_G_Facet_base@std@@UEAAPEAXI@Z 000000018006c850     crypto_aead.obj
 0002:00018850       $unwind$_purecall          000000018006c850     libvcruntime:purevirt.obj
 0002:00018850       $unwind$??0bad_exception@std@@QEAA@AEBV01@@Z 000000018006c850     libvcruntime:frame.obj
 0002:00018850       $unwind$wcscat_s           000000018006c850     libucrt:wcscat_s.obj
 0002:00018850       $unwind$wcscpy_s           000000018006c850     libucrt:wcscpy_s.obj
 0002:00018850       $unwind$_malloc_base       000000018006c850     libucrt:malloc_base.obj
 0002:00018850       $unwind$_set_statfp        000000018006c850     libucrt:fpctrl.obj
 0002:00018850       $unwind$__acrt_can_show_message_box 000000018006c850     libucrt:winapi_thunks.obj
 0002:00018850       $unwind$_calloc_base       000000018006c850     libucrt:calloc_base.obj
 0002:00018850       $unwind$_fflush_nolock     000000018006c850     libucrt:fflush.obj
 0002:00018850       $unwind$_clrfp             000000018006c850     libucrt:fpctrl.obj
 0002:00018850       $unwind$feholdexcept       000000018006c850     libucrt:feholdexcept.obj
 0002:00018850       $unwind$__acrt_fp_strflt_to_string 000000018006c850     libucrt:_fptostr.obj
 0002:00018850       $unwind$__acrt_uninitialize_winapi_thunks 000000018006c850     libucrt:winapi_thunks.obj
 0002:00018850       $unwind$fegetenv           000000018006c850     libucrt:fegetenv.obj
 0002:00018850       $unwind$?do_widen@?$ctype@D@std@@MEBAPEBDPEBD0PEAD@Z 000000018006c850     crypto_aead.obj
 0002:00018850       $unwind$?do_narrow@?$ctype@D@std@@MEBAPEBDPEBD0DPEAD@Z 000000018006c850     crypto_aead.obj
 0002:00018850       $unwind$??_Gfailure@ios_base@std@@UEAAPEAXI@Z 000000018006c850     crypto_aead.obj
 0002:00018850       $unwind$??_Gtype_info@@UEAAPEAXI@Z 000000018006c850     LIBCMT:std_type_info_static.obj
 0002:00018850       $unwind$??_G_Iostream_error_category@std@@UEAAPEAXI@Z 000000018006c850     crypto_aead.obj
 0002:00018850       $unwind$??_Gerror_category@std@@UEAAPEAXI@Z 000000018006c850     crypto_aead.obj
 0002:00018850       $unwind$?message@_Iostream_error_category@std@@UEBA?AV?$basic_string@DU?$char_traits@D@std@@V?$allocator@D@2@@2@H@Z 000000018006c850     crypto_aead.obj
 0002:00018850       $unwind$??_G_System_error@std@@UEAAPEAXI@Z 000000018006c850     crypto_aead.obj
 0002:00018850       $unwind$??1?$basic_string@DU?$char_traits@D@std@@V?$allocator@D@2@@std@@QEAA@XZ 000000018006c850     crypto_aead.obj
 0002:00018858       $unwind$wctomb_s           000000018006c858     libucrt:wctomb.obj
 0002:00018858       $unwind$_itow_s            000000018006c858     libucrt:xtoa.obj
 0002:00018858       $unwind$_wtol              000000018006c858     libucrt:atox.obj
 0002:00018858       $unwind$?_Doraise@failure@ios_base@std@@MEBAXXZ 000000018006c858     crypto_aead.obj
 0002:00018858       $unwind$?_Doraise@runtime_error@std@@MEBAXXZ 000000018006c858     crypto_aead.obj
 0002:00018858       $unwind$mbstowcs_s         000000018006c858     libucrt:mbstowcs.obj
 0002:00018858       $unwind$_invalid_parameter_noinfo_noreturn 000000018006c858     libucrt:invalid_parameter.obj
 0002:00018858       $unwind$_invalid_parameter_noinfo 000000018006c858     libucrt:invalid_parameter.obj
 0002:00018858       $unwind$_log10_special     000000018006c858     libucrt:log_special.obj
 0002:00018860       $unwind$_stricmp_l         000000018006c860     libucrt:stricmp.obj
 0002:00018860       $unwind$?x_ismbbtype_l@@YAHPEAU__crt_locale_pointers@@IHH@Z 000000018006c860     libucrt:ismbbyte.obj
 0002:00018860       $unwind$??0_Locinfo@std@@QEAA@PEBD@Z 000000018006c860     crypto_aead.obj
 0002:00018870       $unwind$__acrt_FlsGetValue 000000018006c870     libucrt:winapi_thunks.obj
 0002:00018870       $unwind$??_Gios_base@std@@UEAAPEAXI@Z 000000018006c870     crypto_aead.obj
 0002:00018870       $unwind$_Deletegloballocale 000000018006c870     libcpmt:locale0.obj
 0002:00018870       $unwind$?force_decimal_point@__crt_stdio_output@@YAXPEADQEAU__crt_locale_pointers@@@Z 000000018006c870     libucrt:output.obj
 0002:00018870       $unwind$??_Gbad_array_new_length@std@@UEAAPEAXI@Z 000000018006c870     LIBCMT:throw_bad_alloc.obj
 0002:00018870       $unwind$?__SetUnwindTryBlock@@YAXPEA_KPEAU_xDISPATCHER_CONTEXT@@PEBU_s_FuncInfo@@H@Z 000000018006c870     libvcruntime:ehstate.obj
 0002:00018870       $unwind$GetLcidFromLanguage 000000018006c870     libucrt:getqloc_downlevel.obj
 0002:00018870       $unwind$??_Gbad_exception@std@@UEAAPEAXI@Z 000000018006c870     libvcruntime:frame.obj
 0002:00018870       $unwind$??0_LocaleUpdate@@QEAA@QEAU__crt_locale_pointers@@@Z 000000018006c870     libucrt:output.obj
 0002:00018870       $unwind$??1_Init_locks@std@@QEAA@XZ 000000018006c870     libcpmt:xlock.obj
 0002:00018870       $unwind$?_Locinfo_ctor@_Locinfo@std@@SAXPEAV12@PEBD@Z 000000018006c870     libcpmt:locale0.obj
 0002:00018870       $unwind$GetLcidFromLangCountry 000000018006c870     libucrt:getqloc_downlevel.obj
 0002:00018870       $unwind$__acrt_errno_map_os_error 000000018006c870     libucrt:errno.obj
 0002:00018870       $unwind$??_G?$numpunct@D@std@@MEAAPEAXI@Z 000000018006c870     crypto_aead.obj
 0002:00018870       $unwind$??_Gexception@std@@UEAAPEAXI@Z 000000018006c870     libcpmt:xthrow.obj
 0002:00018870       $unwind$__acrt_uninitialize_lowio 000000018006c870     libucrt:ioinit.obj
 0002:00018870       $unwind$??_Gbad_alloc@std@@UEAAPEAXI@Z 000000018006c870     libcpmt:xthrow.obj
 0002:00018870       $unwind$__acrt_FlsFree     000000018006c870     libucrt:winapi_thunks.obj
 0002:00018870       $unwind$__acrt_IsValidLocaleName 000000018006c870     libucrt:winapi_thunks.obj
 0002:00018870       $unwind$_updatetlocinfoEx_nolock 000000018006c870     libucrt:locale_refcounting.obj
 0002:00018870       $unwind$??_G?$basic_ostringstream@DU?$char_traits@D@std@@V?$allocator@D@2@@std@@UEAAPEAXI@Z 000000018006c870     crypto_aead.obj
 0002:00018870       $unwind$??0?$basic_streambuf@DU?$char_traits@D@std@@@std@@IEAA@XZ 000000018006c870     crypto_aead.obj
 0002:00018870       $unwind$?replace_current_thread_locale_nolock@@YAXQEAU__acrt_ptd@@QEAU__crt_locale_data@@@Z 000000018006c870     libucrt:per_thread_data.obj
 0002:00018870       $unwind$??_G?$basic_ostream@DU?$char_traits@D@std@@@std@@UEAAPEAXI@Z 000000018006c870     crypto_aead.obj
 0002:00018870       $unwind$wcsncpy_s          000000018006c870     libucrt:wcsncpy_s.obj
 0002:00018870       $unwind$wcsncat_s          000000018006c870     libucrt:wcsncat_s.obj
 0002:00018870       $unwind$__acrt_invoke_user_matherr 000000018006c870     libucrt:matherr.obj
 0002:00018870       $unwind$??_Glocale@std@@QEAAPEAXI@Z 000000018006c870     crypto_aead.obj
 0002:00018870       $unwind$__acrt_FlsAlloc    000000018006c870     libucrt:winapi_thunks.obj
 0002:00018870       $unwind$_fclose_nolock     000000018006c870     libucrt:fclose.obj
 0002:00018870       $unwind$__acrt_get_parent_window 000000018006c870     libucrt:winapi_thunks.obj
 0002:00018870       $unwind$??_Glogic_error@std@@UEAAPEAXI@Z 000000018006c870     libcpmt:xthrow.obj
 0002:00018870       $unwind$?DloadGetSRWLockFunctionPointers@@YAEXZ 000000018006c870     DelayImp:delayhlp.obj
 0002:00018870       $unwind$??_G?$basic_ios@DU?$char_traits@D@std@@@std@@UEAAPEAXI@Z 000000018006c870     crypto_aead.obj
 0002:00018870       $unwind$??0sentry@?$basic_ostream@DU?$char_traits@D@std@@@std@@QEAA@AEAV12@@Z 000000018006c870     crypto_aead.obj
 0002:00018870       $unwind$?_Assign_rv@?$basic_string@DU?$char_traits@D@std@@V?$allocator@D@2@@std@@QEAAX$$QEAV12@@Z 000000018006c870     crypto_aead.obj
 0002:00018870       $unwind$??1_Locinfo@std@@QEAA@XZ 000000018006c870     crypto_aead.obj
 0002:00018870       $unwind$__acrt_getptd      000000018006c870     libucrt:per_thread_data.obj
 0002:00018870       $unwind$?<helper_func_cdecl>@<lambda_e2bb8337c48846e80c921ea5ddadc92d>@@CAHPEA_W@Z 000000018006c870     libucrt:winapi_thunks.obj
 0002:00018870       $unwind$?_New_Locimp@_Locimp@locale@std@@CAPEAV123@_N@Z 000000018006c870     libcpmt:locale0.obj
 0002:00018870       $unwind$strncpy_s          000000018006c870     libucrt:strncpy_s.obj
 0002:00018870       $unwind$?DloadAcquireSectionWriteAccess@@YAXXZ 000000018006c870     DelayImp:delayhlp.obj
 0002:00018870       $unwind$__vcrt_FlsAlloc    000000018006c870     libvcruntime:winapi_downlevel.obj
 0002:00018870       $unwind$??_G?$ctype@D@std@@MEAAPEAXI@Z 000000018006c870     crypto_aead.obj
 0002:00018870       $unwind$??_Glength_error@std@@UEAAPEAXI@Z 000000018006c870     libcpmt:xthrow.obj
 0002:00018870       $unwind$?type_case_c_tchar@?$output_processor@DV?$string_output_adapter@D@__crt_stdio_output@@V?$format_validation_base@DV?$string_output_adapter@D@__crt_stdio_output@@@2@@__crt_stdio_output@@AEAA_ND@Z 000000018006c870     libucrt:output.obj
 0002:00018870       $unwind$_close_nolock      000000018006c870     libucrt:close.obj
 0002:00018870       $unwind$??0?$basic_ostringstream@DU?$char_traits@D@std@@V?$allocator@D@2@@std@@QEAA@H@Z 000000018006c870     crypto_aead.obj
 0002:00018870       $unwind$?try_cor_exit_process@@YAXI@Z 000000018006c870     libucrt:exit.obj
 0002:00018870       $unwind$GetLocaleNameFromLanguage 000000018006c870     libucrt:get_qualified_locale.obj
 0002:00018870       $unwind$__vcrt_FlsFree     000000018006c870     libvcruntime:winapi_downlevel.obj
 0002:00018870       $unwind$??$common_xtox@K_W@@YAHKQEA_W_KI_N@Z 000000018006c870     libucrt:xtoa.obj
 0002:00018870       $unwind$GetLocaleNameFromLangCountry 000000018006c870     libucrt:get_qualified_locale.obj
 0002:00018870       $unwind$__vcrt_FlsGetValue 000000018006c870     libvcruntime:winapi_downlevel.obj
 0002:00018870       $unwind$_callnewh          000000018006c870     libucrt:new_handler.obj
 0002:00018870       $unwind$??1?$basic_ostringstream@DU?$char_traits@D@std@@V?$allocator@D@2@@std@@UEAA@XZ 000000018006c870     crypto_aead.obj
 0002:00018870       $unwind$?ExFilterRethrow@@YAHPEAU_EXCEPTION_POINTERS@@PEAUEHExceptionRecord@@PEAH@Z 000000018006c870     libvcruntime:frame.obj
 0002:00018870       $unwind$_realloc_base      000000018006c870     libucrt:realloc_base.obj
 0002:00018870       $unwind$__acrt_stdio_begin_temporary_buffering_nolock 000000018006c870     libucrt:_sftbuf.obj
 0002:00018870       $unwind$_FindAndUnlinkFrame 000000018006c870     libvcruntime:trnsctrl.obj
 0002:00018870       $unwind$?erase@?$basic_string@DU?$char_traits@D@std@@V?$allocator@D@2@@std@@QEAAAEAV12@_K0@Z 000000018006c870     crypto_aead.obj
 0002:00018870       $unwind$??$common_initialize_environment_nolock@D@@YAHXZ 000000018006c870     libucrt:environment_initialization.obj
 0002:00018870       $unwind$?internal_isupper_l@@YA_NHQEAU__crt_locale_pointers@@@Z 000000018006c870     libucrt:tolower_toupper.obj
 0002:00018870       $unwind$__acrt_locale_initialize_time 000000018006c870     libucrt:inittime.obj
 0002:00018870       $unwind$??_Gout_of_range@std@@UEAAPEAXI@Z 000000018006c870     libcpmt:xthrow.obj
 0002:00018870       $unwind$?assign@?$basic_string@DU?$char_traits@D@std@@V?$allocator@D@2@@std@@QEAAAEAV12@$$QEAV12@@Z 000000018006c870     crypto_aead.obj
 0002:0001887c       $unwind$?_Getcat@?$ctype@D@std@@SA_KPEAPEBVfacet@locale@2@PEBV42@@Z 000000018006c87c     crypto_aead.obj
 0002:0001888c       $chain$0$?_Getcat@?$ctype@D@std@@SA_KPEAPEBVfacet@locale@2@PEBV42@@Z 000000018006c88c     crypto_aead.obj
 0002:000188a0       $chain$1$?_Getcat@?$ctype@D@std@@SA_KPEAPEBVfacet@locale@2@PEBV42@@Z 000000018006c8a0     crypto_aead.obj
 0002:000188b0       $unwind$TestDefaultLanguage 000000018006c8b0     libucrt:getqloc_downlevel.obj
 0002:000188b0       $unwind$ProcessCodePage    000000018006c8b0     libucrt:get_qualified_locale.obj
 0002:000188b0       $unwind$?type_case_c_tchar@?$output_processor@_WV?$stream_output_adapter@_W@__crt_stdio_output@@V?$standard_base@_WV?$stream_output_adapter@_W@__crt_stdio_output@@@2@@__crt_stdio_output@@AEAA_N_W@Z 000000018006c8b0     libucrt:output.obj
 0002:000188b0       $unwind$?do_toupper@?$ctype@D@std@@MEBAPEBDPEADPEBD@Z 000000018006c8b0     crypto_aead.obj
 0002:000188b0       $unwind$??R<lambda_b721fa326cdb32351d23dfa67958c160>@@QEBAHXZ 000000018006c8b0     libucrt:setvbuf.obj
 0002:000188b0       $unwind$?do_tolower@?$ctype@D@std@@MEBAPEBDPEADPEBD@Z 000000018006c8b0     crypto_aead.obj
 0002:000188b0       $unwind$?type_case_c_tchar@?$output_processor@_WV?$string_output_adapter@_W@__crt_stdio_output@@V?$standard_base@_WV?$string_output_adapter@_W@__crt_stdio_output@@@2@@__crt_stdio_output@@AEAA_N_W@Z 000000018006c8b0     libucrt:output.obj
 0002:000188b0       $unwind$ProcessCodePage    000000018006c8b0     libucrt:getqloc_downlevel.obj
 0002:000188c0       $chain$0$?do_tolower@?$ctype@D@std@@MEBAPEBDPEADPEBD@Z 000000018006c8c0     crypto_aead.obj
 0002:000188d4       $chain$1$?do_tolower@?$ctype@D@std@@MEBAPEBDPEADPEBD@Z 000000018006c8d4     crypto_aead.obj
 0002:000188e4       $chain$0$?do_toupper@?$ctype@D@std@@MEBAPEBDPEADPEBD@Z 000000018006c8e4     crypto_aead.obj
 0002:000188f8       $chain$1$?do_toupper@?$ctype@D@std@@MEBAPEBDPEADPEBD@Z 000000018006c8f8     crypto_aead.obj
 0002:00018908       $unwind$??0_System_error@std@@IEAA@Verror_code@1@AEBV?$basic_string@DU?$char_traits@D@std@@V?$allocator@D@2@@1@@Z 000000018006c908     crypto_aead.obj
 0002:00018924       $unwind$?clear@ios_base@std@@QEAAXH_N@Z 000000018006c924     crypto_aead.obj
 0002:00018938       $chain$0$?clear@ios_base@std@@QEAAXH_N@Z 000000018006c938     crypto_aead.obj
 0002:0001894c       $chain$1$?clear@ios_base@std@@QEAAXH_N@Z 000000018006c94c     crypto_aead.obj
 0002:0001895c       $chain$2$?clear@ios_base@std@@QEAAXH_N@Z 000000018006c95c     crypto_aead.obj
 0002:00018970       $unwind$?FunctionCallbackWrapper@imp@Nan@@YAXAEBV?$FunctionCallbackInfo@VValue@v8@@@v8@@@Z 000000018006c970     crypto_aead.obj
 0002:00018980       $unwind$??$To@VInteger@v8@@@imp@Nan@@YA?AV?$Local@VInteger@v8@@@v8@@V23@@Z 000000018006c980     crypto_aead.obj
 0002:00018990       $unwind$?New@?$Factory@VFunctionTemplate@v8@@@imp@Nan@@SA?AV?$Local@VFunctionTemplate@v8@@@v8@@P6AXAEBV?$FunctionCallbackInfo@VValue@v8@@@3@@ZV?$Local@VValue@v8@@@5@V?$Local@VSignature@v8@@@5@@Z 000000018006c990     crypto_aead.obj
 0002:000189a0       $chain$0$?New@?$Factory@VFunctionTemplate@v8@@@imp@Nan@@SA?AV?$Local@VFunctionTemplate@v8@@@v8@@P6AXAEBV?$FunctionCallbackInfo@VValue@v8@@@3@@ZV?$Local@VValue@v8@@@5@V?$Local@VSignature@v8@@@5@@Z 000000018006c9a0     crypto_aead.obj
 0002:000189b4       $chain$1$?New@?$Factory@VFunctionTemplate@v8@@@imp@Nan@@SA?AV?$Local@VFunctionTemplate@v8@@@v8@@P6AXAEBV?$FunctionCallbackInfo@VValue@v8@@@3@@ZV?$Local@VValue@v8@@@5@V?$Local@VSignature@v8@@@5@@Z 000000018006c9b4     crypto_aead.obj
 0002:000189c8       $chain$2$?New@?$Factory@VFunctionTemplate@v8@@@imp@Nan@@SA?AV?$Local@VFunctionTemplate@v8@@@v8@@P6AXAEBV?$FunctionCallbackInfo@VValue@v8@@@3@@ZV?$Local@VValue@v8@@@5@V?$Local@VSignature@v8@@@5@@Z 000000018006c9c8     crypto_aead.obj
 0002:000189d8       $chain$3$?New@?$Factory@VFunctionTemplate@v8@@@imp@Nan@@SA?AV?$Local@VFunctionTemplate@v8@@@v8@@P6AXAEBV?$FunctionCallbackInfo@VValue@v8@@@3@@ZV?$Local@VValue@v8@@@5@V?$Local@VSignature@v8@@@5@@Z 000000018006c9d8     crypto_aead.obj
 0002:000189e8       $unwind$?ThrowError@Nan@@YAXPEBD@Z 000000018006c9e8     crypto_aead.obj
 0002:000189f0       $unwind$?bind_increment@@YAXAEBV?$FunctionCallbackInfo@VValue@v8@@@Nan@@@Z 000000018006c9f0     helpers.obj
 0002:000189f0       $unwind$_isleadbyte_l      000000018006c9f0     libucrt:_wctype.obj
 0002:000189f0       $unwind$?bind_crypto_aead_aes256gcm_is_available@@YAXAEBV?$FunctionCallbackInfo@VValue@v8@@@Nan@@@Z 000000018006c9f0     crypto_aead.obj
 0002:000189f0       $unwind$isupper            000000018006c9f0     libucrt:_ctype.obj
 0002:000189f0       $unwind$islower            000000018006c9f0     libucrt:_ctype.obj
 0002:000189f0       $unwind$?bind_randombytes_stir@@YAXAEBV?$FunctionCallbackInfo@VValue@v8@@@Nan@@@Z 000000018006c9f0     randombytes.obj
 0002:000189f0       $unwind$?bind_randombytes_buf@@YAXAEBV?$FunctionCallbackInfo@VValue@v8@@@Nan@@@Z 000000018006c9f0     randombytes.obj
 0002:000189f0       $unwind$?bind_memzero@@YAXAEBV?$FunctionCallbackInfo@VValue@v8@@@Nan@@@Z 000000018006c9f0     helpers.obj
 0002:000189f0       $unwind$?getSystemCP@@YAHH@Z 000000018006c9f0     libucrt:mbctype.obj
 0002:000189f0       $unwind$isdigit            000000018006c9f0     libucrt:_ctype.obj
 0002:000189f8       $unwind$?bind_crypto_sign_ed25519_sk_to_seed@@YAXAEBV?$FunctionCallbackInfo@VValue@v8@@@Nan@@@Z 000000018006c9f8     crypto_sign_ed25519.obj
 0002:000189f8       $unwind$?bind_crypto_onetimeauth_poly1305_init@@YAXAEBV?$FunctionCallbackInfo@VValue@v8@@@Nan@@@Z 000000018006c9f8     crypto_onetimeauth_poly1305.obj
 0002:000189f8       $unwind$?bind_crypto_aead_aes256gcm_beforenm@@YAXAEBV?$FunctionCallbackInfo@VValue@v8@@@Nan@@@Z 000000018006c9f8     crypto_aead.obj
 0002:000189f8       $unwind$?bind_crypto_sign_ed25519_sk_to_pk@@YAXAEBV?$FunctionCallbackInfo@VValue@v8@@@Nan@@@Z 000000018006c9f8     crypto_sign_ed25519.obj
 0002:00018a04       $chain$0$?bind_crypto_aead_aes256gcm_beforenm@@YAXAEBV?$FunctionCallbackInfo@VValue@v8@@@Nan@@@Z 000000018006ca04     crypto_aead.obj
 0002:00018a18       $unwind$?bind_crypto_aead_aes256gcm_encrypt_afternm@@YAXAEBV?$FunctionCallbackInfo@VValue@v8@@@Nan@@@Z 000000018006ca18     crypto_aead.obj
 0002:00018a30       $chain$0$?bind_crypto_aead_aes256gcm_encrypt_afternm@@YAXAEBV?$FunctionCallbackInfo@VValue@v8@@@Nan@@@Z 000000018006ca30     crypto_aead.obj
 0002:00018a44       $chain$1$?bind_crypto_aead_aes256gcm_encrypt_afternm@@YAXAEBV?$FunctionCallbackInfo@VValue@v8@@@Nan@@@Z 000000018006ca44     crypto_aead.obj
 0002:00018a54       $unwind$?bind_crypto_aead_chacha20poly1305_ietf_decrypt_detached@@YAXAEBV?$FunctionCallbackInfo@VValue@v8@@@Nan@@@Z 000000018006ca54     crypto_aead.obj
 0002:00018a54       $unwind$?bind_crypto_aead_aes256gcm_decrypt_afternm@@YAXAEBV?$FunctionCallbackInfo@VValue@v8@@@Nan@@@Z 000000018006ca54     crypto_aead.obj
 0002:00018a54       $unwind$?bind_crypto_aead_aes256gcm_decrypt_detached@@YAXAEBV?$FunctionCallbackInfo@VValue@v8@@@Nan@@@Z 000000018006ca54     crypto_aead.obj
 0002:00018a54       $unwind$?bind_crypto_aead_chacha20poly1305_decrypt_detached@@YAXAEBV?$FunctionCallbackInfo@VValue@v8@@@Nan@@@Z 000000018006ca54     crypto_aead.obj
 0002:00018a7c       $unwind$?bind_crypto_aead_aes256gcm_encrypt_detached_afternm@@YAXAEBV?$FunctionCallbackInfo@VValue@v8@@@Nan@@@Z 000000018006ca7c     crypto_aead.obj
 0002:00018a94       $chain$0$?bind_crypto_aead_aes256gcm_encrypt_detached_afternm@@YAXAEBV?$FunctionCallbackInfo@VValue@v8@@@Nan@@@Z 000000018006ca94     crypto_aead.obj
 0002:00018aa8       $chain$1$?bind_crypto_aead_aes256gcm_encrypt_detached_afternm@@YAXAEBV?$FunctionCallbackInfo@VValue@v8@@@Nan@@@Z 000000018006caa8     crypto_aead.obj
 0002:00018ab8       $unwind$?bind_crypto_aead_aes256gcm_decrypt_detached_afternm@@YAXAEBV?$FunctionCallbackInfo@VValue@v8@@@Nan@@@Z 000000018006cab8     crypto_aead.obj
 0002:00018ad0       $unwind$?bind_crypto_aead_aes256gcm_encrypt@@YAXAEBV?$FunctionCallbackInfo@VValue@v8@@@Nan@@@Z 000000018006cad0     crypto_aead.obj
 0002:00018ad0       $unwind$?bind_crypto_aead_chacha20poly1305_encrypt@@YAXAEBV?$FunctionCallbackInfo@VValue@v8@@@Nan@@@Z 000000018006cad0     crypto_aead.obj
 0002:00018ad0       $unwind$?bind_crypto_aead_chacha20poly1305_ietf_encrypt@@YAXAEBV?$FunctionCallbackInfo@VValue@v8@@@Nan@@@Z 000000018006cad0     crypto_aead.obj
 0002:00018ae4       $chain$0$?bind_crypto_aead_aes256gcm_encrypt@@YAXAEBV?$FunctionCallbackInfo@VValue@v8@@@Nan@@@Z 000000018006cae4     crypto_aead.obj
 0002:00018af8       $chain$1$?bind_crypto_aead_aes256gcm_encrypt@@YAXAEBV?$FunctionCallbackInfo@VValue@v8@@@Nan@@@Z 000000018006caf8     crypto_aead.obj
 0002:00018b0c       $chain$2$?bind_crypto_aead_aes256gcm_encrypt@@YAXAEBV?$FunctionCallbackInfo@VValue@v8@@@Nan@@@Z 000000018006cb0c     crypto_aead.obj
 0002:00018b1c       $unwind$?bind_crypto_aead_aes256gcm_decrypt@@YAXAEBV?$FunctionCallbackInfo@VValue@v8@@@Nan@@@Z 000000018006cb1c     crypto_aead.obj
 0002:00018b1c       $unwind$?bind_crypto_aead_chacha20poly1305_decrypt@@YAXAEBV?$FunctionCallbackInfo@VValue@v8@@@Nan@@@Z 000000018006cb1c     crypto_aead.obj
 0002:00018b1c       $unwind$?bind_crypto_aead_chacha20poly1305_ietf_decrypt@@YAXAEBV?$FunctionCallbackInfo@VValue@v8@@@Nan@@@Z 000000018006cb1c     crypto_aead.obj
 0002:00018b40       $chain$0$?bind_crypto_aead_aes256gcm_decrypt@@YAXAEBV?$FunctionCallbackInfo@VValue@v8@@@Nan@@@Z 000000018006cb40     crypto_aead.obj
 0002:00018b54       $chain$1$?bind_crypto_aead_aes256gcm_decrypt@@YAXAEBV?$FunctionCallbackInfo@VValue@v8@@@Nan@@@Z 000000018006cb54     crypto_aead.obj
 0002:00018b64       $unwind$?bind_crypto_aead_aes256gcm_encrypt_detached@@YAXAEBV?$FunctionCallbackInfo@VValue@v8@@@Nan@@@Z 000000018006cb64     crypto_aead.obj
 0002:00018b64       $unwind$?bind_crypto_aead_chacha20poly1305_ietf_encrypt_detached@@YAXAEBV?$FunctionCallbackInfo@VValue@v8@@@Nan@@@Z 000000018006cb64     crypto_aead.obj
 0002:00018b64       $unwind$?bind_crypto_aead_chacha20poly1305_encrypt_detached@@YAXAEBV?$FunctionCallbackInfo@VValue@v8@@@Nan@@@Z 000000018006cb64     crypto_aead.obj
 0002:00018b78       $chain$1$?bind_crypto_aead_aes256gcm_encrypt_detached@@YAXAEBV?$FunctionCallbackInfo@VValue@v8@@@Nan@@@Z 000000018006cb78     crypto_aead.obj
 0002:00018b90       $chain$0$?bind_crypto_aead_chacha20poly1305_encrypt@@YAXAEBV?$FunctionCallbackInfo@VValue@v8@@@Nan@@@Z 000000018006cb90     crypto_aead.obj
 0002:00018ba4       $chain$1$?bind_crypto_aead_chacha20poly1305_encrypt@@YAXAEBV?$FunctionCallbackInfo@VValue@v8@@@Nan@@@Z 000000018006cba4     crypto_aead.obj
 0002:00018bb8       $chain$2$?bind_crypto_aead_chacha20poly1305_encrypt@@YAXAEBV?$FunctionCallbackInfo@VValue@v8@@@Nan@@@Z 000000018006cbb8     crypto_aead.obj
 0002:00018bc8       $chain$0$?bind_crypto_aead_chacha20poly1305_decrypt@@YAXAEBV?$FunctionCallbackInfo@VValue@v8@@@Nan@@@Z 000000018006cbc8     crypto_aead.obj
 0002:00018bdc       $chain$1$?bind_crypto_aead_chacha20poly1305_decrypt@@YAXAEBV?$FunctionCallbackInfo@VValue@v8@@@Nan@@@Z 000000018006cbdc     crypto_aead.obj
 0002:00018bec       $chain$1$?bind_crypto_aead_chacha20poly1305_encrypt_detached@@YAXAEBV?$FunctionCallbackInfo@VValue@v8@@@Nan@@@Z 000000018006cbec     crypto_aead.obj
 0002:00018c04       $chain$0$?bind_crypto_aead_chacha20poly1305_ietf_encrypt@@YAXAEBV?$FunctionCallbackInfo@VValue@v8@@@Nan@@@Z 000000018006cc04     crypto_aead.obj
 0002:00018c18       $chain$1$?bind_crypto_aead_chacha20poly1305_ietf_encrypt@@YAXAEBV?$FunctionCallbackInfo@VValue@v8@@@Nan@@@Z 000000018006cc18     crypto_aead.obj
 0002:00018c2c       $chain$2$?bind_crypto_aead_chacha20poly1305_ietf_encrypt@@YAXAEBV?$FunctionCallbackInfo@VValue@v8@@@Nan@@@Z 000000018006cc2c     crypto_aead.obj
 0002:00018c3c       $chain$0$?bind_crypto_aead_chacha20poly1305_ietf_decrypt@@YAXAEBV?$FunctionCallbackInfo@VValue@v8@@@Nan@@@Z 000000018006cc3c     crypto_aead.obj
 0002:00018c50       $chain$1$?bind_crypto_aead_chacha20poly1305_ietf_decrypt@@YAXAEBV?$FunctionCallbackInfo@VValue@v8@@@Nan@@@Z 000000018006cc50     crypto_aead.obj
 0002:00018c60       $chain$1$?bind_crypto_aead_chacha20poly1305_ietf_encrypt_detached@@YAXAEBV?$FunctionCallbackInfo@VValue@v8@@@Nan@@@Z 000000018006cc60     crypto_aead.obj
 0002:00018c78       $unwind$?register_crypto_streams@@YAXV?$Local@VObject@v8@@@v8@@@Z 000000018006cc78     crypto_streams.obj
 0002:00018c78       $unwind$?register_crypto_box@@YAXV?$Local@VObject@v8@@@v8@@@Z 000000018006cc78     crypto_box.obj
 0002:00018c78       $unwind$?register_crypto_aead@@YAXV?$Local@VObject@v8@@@v8@@@Z 000000018006cc78     crypto_aead.obj
 0002:00018c88       $unwind$?seekpos@?$basic_stringbuf@DU?$char_traits@D@std@@V?$allocator@D@2@@std@@MEAA?AV?$fpos@U_Mbstatet@@@2@V32@H@Z 000000018006cc88     crypto_aead.obj
 0002:00018c94       $unwind$?seekoff@?$basic_stringbuf@DU?$char_traits@D@std@@V?$allocator@D@2@@std@@MEAA?AV?$fpos@U_Mbstatet@@@2@_JHH@Z 000000018006cc94     crypto_aead.obj
 0002:00018ca4       $unwind$?overflow@?$basic_stringbuf@DU?$char_traits@D@std@@V?$allocator@D@2@@std@@MEAAHH@Z 000000018006cca4     crypto_aead.obj
 0002:00018ca4       $unwind$__CxxCallCatchBlock$fin$1 000000018006cca4     libvcruntime:frame.obj
 0002:00018cb0       $chain$0$?overflow@?$basic_stringbuf@DU?$char_traits@D@std@@V?$allocator@D@2@@std@@MEAAHH@Z 000000018006ccb0     crypto_aead.obj
 0002:00018cc4       $chain$6$?overflow@?$basic_stringbuf@DU?$char_traits@D@std@@V?$allocator@D@2@@std@@MEAAHH@Z 000000018006ccc4     crypto_aead.obj
 0002:00018ce8       $chain$7$?overflow@?$basic_stringbuf@DU?$char_traits@D@std@@V?$allocator@D@2@@std@@MEAAHH@Z 000000018006cce8     crypto_aead.obj
 0002:00018d04       $unwind$??6?$basic_ostream@DU?$char_traits@D@std@@@std@@QEAAAEAV01@I@Z 000000018006cd04     crypto_aead.obj
 0002:00018d0c       $chain$0$??6?$basic_ostream@DU?$char_traits@D@std@@@std@@QEAAAEAV01@I@Z 000000018006cd0c     crypto_aead.obj
 0002:00018d20       $chain$2$??6?$basic_ostream@DU?$char_traits@D@std@@@std@@QEAAAEAV01@I@Z 000000018006cd20     crypto_aead.obj
 0002:00018d38       $chain$3$??6?$basic_ostream@DU?$char_traits@D@std@@@std@@QEAAAEAV01@I@Z 000000018006cd38     crypto_aead.obj
 0002:00018d4c       $chain$4$??6?$basic_ostream@DU?$char_traits@D@std@@@std@@QEAAAEAV01@I@Z 000000018006cd4c     crypto_aead.obj
 0002:00018d5c       $chain$7$??6?$basic_ostream@DU?$char_traits@D@std@@@std@@QEAAAEAV01@I@Z 000000018006cd5c     crypto_aead.obj
 0002:00018d5c       $chain$5$??6?$basic_ostream@DU?$char_traits@D@std@@@std@@QEAAAEAV01@I@Z 000000018006cd5c     crypto_aead.obj
 0002:00018d6c       $chain$6$??6?$basic_ostream@DU?$char_traits@D@std@@@std@@QEAAAEAV01@I@Z 000000018006cd6c     crypto_aead.obj
 0002:00018d80       $unwind$?xsputn@?$basic_streambuf@DU?$char_traits@D@std@@@std@@MEAA_JPEBD_J@Z 000000018006cd80     crypto_aead.obj
 0002:00018d94       $chain$0$?xsputn@?$basic_streambuf@DU?$char_traits@D@std@@@std@@MEAA_JPEBD_J@Z 000000018006cd94     crypto_aead.obj
 0002:00018da8       $chain$1$?xsputn@?$basic_streambuf@DU?$char_traits@D@std@@@std@@MEAA_JPEBD_J@Z 000000018006cda8     crypto_aead.obj
 0002:00018db8       $unwind$?xsgetn@?$basic_streambuf@DU?$char_traits@D@std@@@std@@MEAA_JPEAD_J@Z 000000018006cdb8     crypto_aead.obj
 0002:00018dc8       $chain$1$?xsgetn@?$basic_streambuf@DU?$char_traits@D@std@@@std@@MEAA_JPEAD_J@Z 000000018006cdc8     crypto_aead.obj
 0002:00018de0       $chain$2$?xsgetn@?$basic_streambuf@DU?$char_traits@D@std@@@std@@MEAA_JPEAD_J@Z 000000018006cde0     crypto_aead.obj
 0002:00018df0       $chain$3$?xsgetn@?$basic_streambuf@DU?$char_traits@D@std@@@std@@MEAA_JPEAD_J@Z 000000018006cdf0     crypto_aead.obj
 0002:00018e08       $unwind$_Getcvt            000000018006ce08     libcpmt:xwctomb.obj
 0002:00018e08       $unwind$?__scrt_initialize_thread_safe_statics@@YAHXZ 000000018006ce08     LIBCMT:thread_safe_statics.obj
 0002:00018e08       $unwind$memcpy_s           000000018006ce08     libucrt:strtod.obj
 0002:00018e08       $unwind$__acrt_stdio_flush_and_write_wide_nolock 000000018006ce08     libucrt:_flsbuf.obj
 0002:00018e08       $unwind$?free_crt_array_internal@@YAXQEAPEBX_K@Z 000000018006ce08     libucrt:inittime.obj
 0002:00018e08       $unwind$__vcrt_getptd_noexit 000000018006ce08     libvcruntime:per_thread_data.obj
 0002:00018e08       $unwind$??R<lambda_ad1ced32f4ac17aa236e5ef05d6b3b7c>@@QEBAXXZ 000000018006ce08     libucrt:mbctype.obj
 0002:00018e08       $unwind$_DllMainCRTStartup 000000018006ce08     LIBCMT:dll_dllmain.obj
 0002:00018e08       $unwind$_exception_enabled 000000018006ce08     libucrt:libm_error.obj
 0002:00018e08       $unwind$_initterm_e        000000018006ce08     libucrt:initterm.obj
 0002:00018e08       $unwind$__acrt_FlsSetValue 000000018006ce08     libucrt:winapi_thunks.obj
 0002:00018e08       $unwind$?_Tidy@ios_base@std@@AEAAXXZ 000000018006ce08     libcpmt:ios.obj
 0002:00018e08       $unwind$??_G?$basic_streambuf@DU?$char_traits@D@std@@@std@@UEAAPEAXI@Z 000000018006ce08     crypto_aead.obj
 0002:00018e08       $unwind$??_G?$basic_stringbuf@DU?$char_traits@D@std@@V?$allocator@D@2@@std@@UEAAPEAXI@Z 000000018006ce08     crypto_aead.obj
 0002:00018e08       $unwind$memcpy_s           000000018006ce08     libucrt:cfout.obj
 0002:00018e08       $unwind$__acrt_stdio_flush_nolock 000000018006ce08     libucrt:fflush.obj
 0002:00018e08       $unwind$?type_case_Z@?$output_processor@_WV?$string_output_adapter@_W@__crt_stdio_output@@V?$standard_base@_WV?$string_output_adapter@_W@__crt_stdio_output@@@2@@__crt_stdio_output@@AEAA_NXZ 000000018006ce08     libucrt:output.obj
 0002:00018e08       $unwind$__acrt_execute_uninitializers 000000018006ce08     libucrt:shared_initialization.obj
 0002:00018e08       $unwind$__acrt_GetUserDefaultLocaleName 000000018006ce08     libucrt:winapi_thunks.obj
 0002:00018e08       $unwind$??0_Init_locks@std@@QEAA@XZ 000000018006ce08     libcpmt:xlock.obj
 0002:00018e08       $unwind$__acrt_LocaleNameToLCID 000000018006ce08     libucrt:winapi_thunks.obj
 0002:00018e08       $unwind$_RTC_Terminate     000000018006ce08     LIBCMT:_initsect_.obj
 0002:00018e08       $unwind$?type_case_n@?$output_processor@_WV?$string_output_adapter@_W@__crt_stdio_output@@V?$standard_base@_WV?$string_output_adapter@_W@__crt_stdio_output@@@2@@__crt_stdio_output@@AEAA_NXZ 000000018006ce08     libucrt:output.obj
 0002:00018e08       $unwind$??$common_lseek_nolock@_J@@YA_JH_JH@Z 000000018006ce08     libucrt:lseek.obj
 0002:00018e08       $unwind$??4?$_Yarn@D@std@@QEAAAEAV01@PEBD@Z 000000018006ce08     libcpmt:locale0.obj
 0002:00018e08       $unwind$?type_case_Z@?$output_processor@_WV?$stream_output_adapter@_W@__crt_stdio_output@@V?$standard_base@_WV?$stream_output_adapter@_W@__crt_stdio_output@@@2@@__crt_stdio_output@@AEAA_NXZ 000000018006ce08     libucrt:output.obj
 0002:00018e08       $unwind$?type_case_n@?$output_processor@DV?$string_output_adapter@D@__crt_stdio_output@@V?$format_validation_base@DV?$string_output_adapter@D@__crt_stdio_output@@@2@@__crt_stdio_output@@AEAA_NXZ 000000018006ce08     libucrt:output.obj
 0002:00018e08       $unwind$__acrt_getptd_noexit 000000018006ce08     libucrt:per_thread_data.obj
 0002:00018e08       $unwind$?assign@?$basic_string@DU?$char_traits@D@std@@V?$allocator@D@2@@std@@QEAAAEAV12@_KD@Z 000000018006ce08     crypto_aead.obj
 0002:00018e08       $unwind$?type_case_s@?$output_processor@_WV?$stream_output_adapter@_W@__crt_stdio_output@@V?$standard_base@_WV?$stream_output_adapter@_W@__crt_stdio_output@@@2@@__crt_stdio_output@@AEAA_NXZ 000000018006ce08     libucrt:output.obj
 0002:00018e08       $unwind$_Init_thread_wait  000000018006ce08     LIBCMT:thread_safe_statics.obj
 0002:00018e08       $unwind$?assign@?$basic_string@DU?$char_traits@D@std@@V?$allocator@D@2@@std@@QEAAAEAV12@PEBD_K@Z 000000018006ce08     crypto_aead.obj
 0002:00018e08       $unwind$__acrt_stdio_flush_and_write_narrow_nolock 000000018006ce08     libucrt:_flsbuf.obj
 0002:00018e08       $unwind$_RTC_Initialize    000000018006ce08     LIBCMT:_initsect_.obj
 0002:00018e08       $unwind$?type_case_n@?$output_processor@_WV?$stream_output_adapter@_W@__crt_stdio_output@@V?$standard_base@_WV?$stream_output_adapter@_W@__crt_stdio_output@@@2@@__crt_stdio_output@@AEAA_NXZ 000000018006ce08     libucrt:output.obj
 0002:00018e08       $unwind$?type_case_Z@?$output_processor@DV?$string_output_adapter@D@__crt_stdio_output@@V?$format_validation_base@DV?$string_output_adapter@D@__crt_stdio_output@@@2@@__crt_stdio_output@@AEAA_NXZ 000000018006ce08     libucrt:output.obj
 0002:00018e08       $unwind$__vcrt_FlsSetValue 000000018006ce08     libvcruntime:winapi_downlevel.obj
 0002:00018e08       $unwind$?type_case_s@?$output_processor@_WV?$string_output_adapter@_W@__crt_stdio_output@@V?$standard_base@_WV?$string_output_adapter@_W@__crt_stdio_output@@@2@@__crt_stdio_output@@AEAA_NXZ 000000018006ce08     libucrt:output.obj
 0002:00018e08       $unwind$?type_case_s@?$output_processor@DV?$string_output_adapter@D@__crt_stdio_output@@V?$format_validation_base@DV?$string_output_adapter@D@__crt_stdio_output@@@2@@__crt_stdio_output@@AEAA_NXZ 000000018006ce08     libucrt:output.obj
 0002:00018e18       $unwind$?do_put@?$num_put@DV?$ostreambuf_iterator@DU?$char_traits@D@std@@@std@@@std@@MEBA?AV?$ostreambuf_iterator@DU?$char_traits@D@std@@@2@V32@AEAVios_base@2@DPEBX@Z 000000018006ce18     crypto_aead.obj
 0002:00018e30       $unwind$?do_put@?$num_put@DV?$ostreambuf_iterator@DU?$char_traits@D@std@@@std@@@std@@MEBA?AV?$ostreambuf_iterator@DU?$char_traits@D@std@@@2@V32@AEAVios_base@2@DN@Z 000000018006ce30     crypto_aead.obj
 0002:00018e30       $unwind$?do_put@?$num_put@DV?$ostreambuf_iterator@DU?$char_traits@D@std@@@std@@@std@@MEBA?AV?$ostreambuf_iterator@DU?$char_traits@D@std@@@2@V32@AEAVios_base@2@DO@Z 000000018006ce30     crypto_aead.obj
 0002:00018e54       $unwind$?do_put@?$num_put@DV?$ostreambuf_iterator@DU?$char_traits@D@std@@@std@@@std@@MEBA?AV?$ostreambuf_iterator@DU?$char_traits@D@std@@@2@V32@AEAVios_base@2@DK@Z 000000018006ce54     crypto_aead.obj
 0002:00018e54       $unwind$?do_put@?$num_put@DV?$ostreambuf_iterator@DU?$char_traits@D@std@@@std@@@std@@MEBA?AV?$ostreambuf_iterator@DU?$char_traits@D@std@@@2@V32@AEAVios_base@2@D_K@Z 000000018006ce54     crypto_aead.obj
 0002:00018e54       $unwind$?do_put@?$num_put@DV?$ostreambuf_iterator@DU?$char_traits@D@std@@@std@@@std@@MEBA?AV?$ostreambuf_iterator@DU?$char_traits@D@std@@@2@V32@AEAVios_base@2@DJ@Z 000000018006ce54     crypto_aead.obj
 0002:00018e54       $unwind$?do_put@?$num_put@DV?$ostreambuf_iterator@DU?$char_traits@D@std@@@std@@@std@@MEBA?AV?$ostreambuf_iterator@DU?$char_traits@D@std@@@2@V32@AEAVios_base@2@D_J@Z 000000018006ce54     crypto_aead.obj
 0002:00018e6c       $unwind$?do_put@?$num_put@DV?$ostreambuf_iterator@DU?$char_traits@D@std@@@std@@@std@@MEBA?AV?$ostreambuf_iterator@DU?$char_traits@D@std@@@2@V32@AEAVios_base@2@D_N@Z 000000018006ce6c     crypto_aead.obj
 0002:00018e88       $chain$1$?do_put@?$num_put@DV?$ostreambuf_iterator@DU?$char_traits@D@std@@@std@@@std@@MEBA?AV?$ostreambuf_iterator@DU?$char_traits@D@std@@@2@V32@AEAVios_base@2@D_N@Z 000000018006ce88     crypto_aead.obj
 0002:00018ea0       $chain$2$?do_put@?$num_put@DV?$ostreambuf_iterator@DU?$char_traits@D@std@@@std@@@std@@MEBA?AV?$ostreambuf_iterator@DU?$char_traits@D@std@@@2@V32@AEAVios_base@2@D_N@Z 000000018006cea0     crypto_aead.obj
 0002:00018eb4       $chain$3$?do_put@?$num_put@DV?$ostreambuf_iterator@DU?$char_traits@D@std@@@std@@@std@@MEBA?AV?$ostreambuf_iterator@DU?$char_traits@D@std@@@2@V32@AEAVios_base@2@D_N@Z 000000018006ceb4     crypto_aead.obj
 0002:00018ec4       $chain$4$?do_put@?$num_put@DV?$ostreambuf_iterator@DU?$char_traits@D@std@@@std@@@std@@MEBA?AV?$ostreambuf_iterator@DU?$char_traits@D@std@@@2@V32@AEAVios_base@2@D_N@Z 000000018006cec4     crypto_aead.obj
 0002:00018ed4       $chain$5$?do_put@?$num_put@DV?$ostreambuf_iterator@DU?$char_traits@D@std@@@std@@@std@@MEBA?AV?$ostreambuf_iterator@DU?$char_traits@D@std@@@2@V32@AEAVios_base@2@D_N@Z 000000018006ced4     crypto_aead.obj
 0002:00018eec       $unwind$__std_exception_copy 000000018006ceec     libvcruntime:std_exception.obj
 0002:00018eec       $unwind$_free_osfhnd       000000018006ceec     libucrt:osfinfo.obj
 0002:00018eec       $unwind$?initialize_stdio_handles_nolock@@YAXXZ 000000018006ceec     libucrt:ioinit.obj
 0002:00018eec       $unwind$_wcstombs_s_l      000000018006ceec     libucrt:wcstombs.obj
 0002:00018eec       $unwind$?assign@?$basic_string@DU?$char_traits@D@std@@V?$allocator@D@2@@std@@QEAAAEAV12@AEBV12@_K1@Z 000000018006ceec     crypto_aead.obj
 0002:00018f00       $unwind$?append@?$basic_string@DU?$char_traits@D@std@@V?$allocator@D@2@@std@@QEAAAEAV12@_KD@Z 000000018006cf00     crypto_aead.obj
 0002:00018f00       $unwind$?append@?$basic_string@DU?$char_traits@D@std@@V?$allocator@D@2@@std@@QEAAAEAV12@PEBD_K@Z 000000018006cf00     crypto_aead.obj
 0002:00018f10       $chain$0$?append@?$basic_string@DU?$char_traits@D@std@@V?$allocator@D@2@@std@@QEAAAEAV12@PEBD_K@Z 000000018006cf10     crypto_aead.obj
 0002:00018f24       $chain$1$?append@?$basic_string@DU?$char_traits@D@std@@V?$allocator@D@2@@std@@QEAAAEAV12@PEBD_K@Z 000000018006cf24     crypto_aead.obj
 0002:00018f34       $chain$2$?append@?$basic_string@DU?$char_traits@D@std@@V?$allocator@D@2@@std@@QEAAAEAV12@PEBD_K@Z 000000018006cf34     crypto_aead.obj
 0002:00018f48       $unwind$?insert@?$basic_string@DU?$char_traits@D@std@@V?$allocator@D@2@@std@@QEAAAEAV12@_K0D@Z 000000018006cf48     crypto_aead.obj
 0002:00018f48       $unwind$?append@?$basic_string@DU?$char_traits@D@std@@V?$allocator@D@2@@std@@QEAAAEAV12@AEBV12@_K1@Z 000000018006cf48     crypto_aead.obj
 0002:00018f5c       $chain$0$?append@?$basic_string@DU?$char_traits@D@std@@V?$allocator@D@2@@std@@QEAAAEAV12@AEBV12@_K1@Z 000000018006cf5c     crypto_aead.obj
 0002:00018f70       $chain$1$?append@?$basic_string@DU?$char_traits@D@std@@V?$allocator@D@2@@std@@QEAAAEAV12@AEBV12@_K1@Z 000000018006cf70     crypto_aead.obj
 0002:00018f80       $chain$2$?append@?$basic_string@DU?$char_traits@D@std@@V?$allocator@D@2@@std@@QEAAAEAV12@AEBV12@_K1@Z 000000018006cf80     crypto_aead.obj
 0002:00018f94       $unwind$?str@?$basic_stringbuf@DU?$char_traits@D@std@@V?$allocator@D@2@@std@@QEBA?AV?$basic_string@DU?$char_traits@D@std@@V?$allocator@D@2@@2@XZ 000000018006cf94     crypto_aead.obj
 0002:00018fac       $unwind$_fileno            000000018006cfac     libucrt:fileno.obj
 0002:00018fac       $unwind$uninitialize_environment 000000018006cfac     libucrt:initialization.obj
 0002:00018fac       $unwind$?initialize_multibyte@@YAHXZ 000000018006cfac     libucrt:multibyte_initializer.obj
 0002:00018fac       $unwind$_statfp            000000018006cfac     libucrt:fpctrl.obj
 0002:00018fac       $unwind$__acrt_initialize_heap 000000018006cfac     libucrt:heap_handle.obj
 0002:00018fac       $unwind$__scrt_dllmain_crt_thread_detach 000000018006cfac     LIBCMT:utility.obj
 0002:00018fac       $unwind$__scrt_dllmain_crt_thread_attach 000000018006cfac     LIBCMT:utility.obj
 0002:00018fac       $unwind$__scrt_dllmain_uninitialize_critical 000000018006cfac     LIBCMT:utility.obj
 0002:00018fac       $unwind$__pctype_func      000000018006cfac     libucrt:ctype.obj
 0002:00018fac       $unwind$?allocate@?$allocator@D@std@@QEAAPEAD_K@Z 000000018006cfac     crypto_aead.obj
 0002:00018fac       $unwind$__scrt_dllmain_uninitialize_c 000000018006cfac     LIBCMT:utility.obj
